{
  "main_library": {
    "compatibility_versions": [
      {
        "version": "0"
      }
    ],
    "current_versions": [
      {
        "version": "0"
      }
    ],
    "exported_symbols": [
      {
        "data": {
          "global": [
            "_cmu_lts_rules",
            "__ZN4onnx14AttributeProto7STRINGSE",
            "__ZTVN7keenasr11ASRResponseE",
            "__ZTIN5kaldi5nnet328SpecAugmentTimeMaskComponentE",
            "__ZTSN4onnx26TensorShapeProto_DimensionE",
            "__ZTVN5kaldi18OnlineProcessPitchE",
            "_cst_val_type_userdata",
            "_FLAGS_fst_weight_parentheses",
            "_cst_rx_dotted_abbrev",
            "__ZTVN5kaldi5nnet332ReplaceIndexForwardingDescriptorE",
            "__ZN4onnx13SequenceProto6TENSORE",
            "_usmoney",
            "_cst_val_type_voice",
            "__ZTSN4onnx16TypeProto_OpaqueE",
            "__ZN4onnx11TensorProto6STRINGE",
            "__ZTVN3fst17InverseContextFstE",
            "_val_int_12",
            "__ZN4onnx11TensorProto6UINT32E",
            "__ZTIN5kaldi5nnet327DecodableAmNnetSimpleLoopedE",
            "__ZTVN5kaldi12ParseOptionsE",
            "__ZN3G2P26g2p_dir_path_phonetisaurusE",
            "__ZTIN3fst17InverseContextFstE",
            "_cmu_lts_phone_table",
            "__ZN4onnx13OptionalProto8SEQUENCEE",
            "__ZN7keenasr8Uploader14uploader_mutexE",
            "__ZTVN5kaldi5nnet329StatisticsExtractionComponentE",
            "__ZN7keenasr8Uploader7app_keyE",
            "__ZTVN4onnx13SequenceProtoE",
            "__ZTVN4onnx18TypeProto_SequenceE",
            "__ZN4onnx11TensorProto10COMPLEX128E",
            "__ZTIN4onnx18TypeProto_OptionalE",
            "__ZTIN5kaldi5nnet328RestrictedAttentionComponentE",
            "__ZTSN5boost10filesystem16filesystem_errorE",
            "__ZTSN5kaldi17ScalarClusterableE",
            "_AEAudioControllerErrorOccurredNotification",
            "__ZN7Lexicon18asr_bundle_lexiconE",
            "__ZTVN5kaldi5nnet326OffsetForwardingDescriptorE",
            "__zf_log_global_format",
            "__ZTVN5kaldi17ScalarClusterableE",
            "__ZN4onnx14AttributeProto5GRAPHE",
            "__ZTSN4onnx9TypeProtoE",
            "_val_int_1",
            "_cst_ts_default_postpunctuationsymbols",
            "__ZTIN5kaldi5nnet313NoOpComponentE",
            "_val_int_19",
            "__ZTVN7keenasr9ASRResultE",
            "_kiosVersion",
            "_cmu_lex_entries_huff_table",
            "__ZTSN4onnx14AttributeProtoE",
            "_AEAudioControllerDidRecreateGraphNotification",
            "__ZTVN5kaldi5nnet347StatisticsExtractionComponentPrecomputedIndexesE",
            "_val_string_13",
            "__ZTVN5kaldi5nnet328RestrictedAttentionComponent18PrecomputedIndexesE",
            "__ZTIN5kaldi5nnet345BackpropTruncationComponentPrecomputedIndexesE",
            "__ZTVN5kaldi5nnet327DecodableAmOnnxLoopedOnlineE",
            "__zf_log_tag_prefix",
            "__ZN4onnx11TensorProto5UINT8E",
            "__ZN4onnx13OptionalProto13SPARSE_TENSORE",
            "_AEAudioControllerErrorDomain",
            "__ZTVN4onnx16TypeProto_OpaqueE",
            "__ZTVN5kaldi5nnet320ConvolutionComponentE",
            "__ZTVN5kaldi5nnet318CompositeComponentE",
            "__ZTIN5kaldi5nnet316SigmoidComponentE",
            "_FLAGS_save_relabel_ipairs",
            "_AEAudioStreamBasicDescriptionNonInterleavedFloatStereo",
            "__ZTVN5kaldi5nnet319LogSoftmaxComponentE",
            "__ZTSN5kaldi5nnet326OffsetForwardingDescriptorE",
            "_cst_rx_uppercase",
            "__ZTSN5kaldi12ParseOptionsE",
            "__ZTIN4onnx8MapProtoE",
            "__ZTSN5kaldi5nnet327DecodableAmOnnxLoopedOnlineE",
            "__ZTVN4onnx16TensorShapeProtoE",
            "__ZTIN4onnx22TypeProto_SparseTensorE",
            "__ZTIN4onnx17SparseTensorProtoE",
            "_cst_val_type_vit_cand",
            "__ZTIN5kaldi5nnet318UpdatableComponentE",
            "__ZTSN5kaldi5nnet323RepeatedAffineComponentE",
            "__ZN4onnx11TensorProto22DataLocation_ARRAYSIZEE",
            "__ZN4onnx11TensorProto14FLOAT8E4M3FNUZE",
            "__ZTIN3cpr21EncodedAuthenticationE",
            "__ZTVN5kaldi17ContextDependencyE",
            "__ZTIN5kaldi5nnet318BatchNormComponentE",
            "__ZN4onnx38_TensorProto_Segment_default_instance_E",
            "__ZTIN5kaldi11ClusterableE",
            "__ZTIN5kaldi5nnet313TdnnComponentE",
            "_val_string_16",
            "__ZTVN4onnx19TensorProto_SegmentE",
            "__ZTSN5kaldi5nnet330TimeHeightConvolutionComponentE",
            "__ZTIN5kaldi5nnet323RepeatedAffineComponentE",
            "__ZTVN5boost10filesystem6detail18utf8_codecvt_facetE",
            "__ZTSN4onnx8MapProtoE",
            "_FLAGS_fst_default_cache_gc_limit",
            "__ZTSN5kaldi5nnet328RestrictedAttentionComponent18PrecomputedIndexesE",
            "__ZTVN5kaldi5nnet313TdnnComponent18PrecomputedIndexesE",
            "__ZTSN3fst17InverseContextFstE",
            "__ZTVN5kaldi5nnet327DecodableAmNnetSimpleLoopedE",
            "_us_pos_cart",
            "__ZTSN5kaldi5nnet328RestrictedAttentionComponentE",
            "__ZTVN4onnx14AttributeProtoE",
            "_val_string_7",
            "__ZTI7G2PEnUs",
            "__ZTIN5kaldi18OnlineCacheFeatureE",
            "_val_string_10",
            "__ZTSN5kaldi5nnet338NaturalGradientRepeatedAffineComponentE",
            "__ZN4onnx14AttributeProto7TENSORSE",
            "__ZTV15KaldiRecognizer",
            "__ZTIN5kaldi5nnet319MaxpoolingComponentE",
            "__ZTIN5boost10filesystem16filesystem_errorE",
            "__ZTIN5kaldi13SplitEventMapE",
            "_f0_lr_terms",
            "__ZTVN5kaldi5nnet330NaturalGradientAffineComponentE",
            "__ZTIN5kaldi5nnet321ClipGradientComponentE",
            "__ZTIN5kaldi19OnlineAppendFeatureE",
            "__ZN4onnx13OptionalProto12DataType_MINE",
            "_us_nums_cart",
            "__ZTIN5kaldi14ArpaFileParserE",
            "__ZTSN4onnx16TypeProto_TensorE",
            "__ZTIN5kaldi5nnet330NaturalGradientAffineComponentE",
            "__ZTI20KaldiNNet3Recognizer",
            "__ZN4onnx11TensorProto4BOOLE",
            "__ZTIN7keenasr11ASRResponseE",
            "__ZTVN5kaldi14ArpaLmCompilerE",
            "__ZTSN5kaldi5nnet39ComponentE",
            "__ZTVN5kaldi5nnet328RoundingForwardingDescriptorE",
            "__ZTSN5kaldi5nnet316SigmoidComponentE",
            "__ZTVN4onnx8MapProtoE",
            "__ZTIN4onnx10GraphProtoE",
            "_val_string_2",
            "_val_int_0",
            "__ZTVN5kaldi5nnet321ClipGradientComponentE",
            "__ZTS15KaldiRecognizer",
            "_val_int_4",
            "__ZTVN5kaldi5nnet321OptionalSumDescriptorE",
            "__ZN4onnx14AttributeProto17AttributeType_MINE",
            "_val_int_6",
            "__ZTIN4onnx22StringStringEntryProtoE",
            "__ZTVN5kaldi5nnet338NaturalGradientRepeatedAffineComponentE",
            "__ZTSN4onnx17SparseTensorProtoE",
            "__ZTSN5kaldi5nnet316PermuteComponentE",
            "__ZN7keenasr10Recognizer17shared_recognizerE",
            "__ZN3cpr16GlobalThreadPool11s_pInstanceE",
            "_AEAudioFileWriterErrorDomain",
            "__ZN4onnx29_GraphProto_default_instance_E",
            "_cst_rx_digits",
            "__ZTIN4onnx13TypeProto_MapE",
            "__ZTSN5kaldi5nnet344StatisticsPoolingComponentPrecomputedIndexesE",
            "_cst_rx_alphanum",
            "__ZTSN7keenasr11ASRResponseE",
            "_val_int_17",
            "__ZTIN5kaldi5nnet318NormalizeComponentE",
            "__ZTSN5kaldi5nnet321ClipGradientComponentE",
            "__ZTIN3cpr10ThreadPoolE",
            "__ZTIN5kaldi5nnet327DecodableAmOnnxLoopedOnlineE",
            "__ZTIN5kaldi10OnlineCmvnE",
            "_val_string_6",
            "__ZTSN5kaldi5nnet347StatisticsExtractionComponentPrecomputedIndexesE",
            "__ZTSN5kaldi18OnlineCacheFeatureE",
            "_cst_val_type_wave",
            "__ZTSN5kaldi5nnet319SimpleSumDescriptorE",
            "__ZTVN5kaldi5nnet318NormalizeComponentE",
            "__ZN4onnx35_TensorShapeProto_default_instance_E",
            "__ZTSN5kaldi5nnet315AffineComponentE",
            "__ZTIN5kaldi5nnet319FixedScaleComponentE",
            "__ZTSN5kaldi5nnet316DropoutComponentE",
            "__ZTSN5kaldi5nnet313NoOpComponentE",
            "__ZN4onnx11TensorProto5INT16E",
            "_kaldi_asr_bundle_path",
            "__ZTIN4onnx11TensorProtoE",
            "__ZTIN5kaldi5nnet324GruNonlinearityComponentE",
            "__ZTVN5kaldi5nnet339NaturalGradientPerElementScaleComponentE",
            "__ZN4onnx14AttributeProto10TYPE_PROTOE",
            "__ZN4onnx37_TypeProto_Optional_default_instance_E",
            "_cst_val_type_dur_stats",
            "__ZTSN5kaldi5nnet324PerElementScaleComponentE",
            "__ZTIN5kaldi5nnet313TanhComponentE",
            "_cst_rx_white",
            "__ZTVN5kaldi5nnet323RepeatedAffineComponentE",
            "__ZTVN5kaldi5nnet337DistributeComponentPrecomputedIndexesE",
            "__ZTIN5kaldi5nnet347StatisticsExtractionComponentPrecomputedIndexesE",
            "__ZTVN5kaldi5nnet320FixedAffineComponentE",
            "__ZN7keenasr8Uploader6pausedE",
            "_illion",
            "__ZTV20KaldiNNet3Recognizer",
            "__ZTSN5kaldi18OnlineProcessPitchE",
            "__ZTVN5kaldi5nnet319MaxpoolingComponentE",
            "_digits2dash",
            "__ZTIN5kaldi18ConstArpaLmBuilderE",
            "__ZN4onnx13SequenceProto8OPTIONALE",
            "__ZTVN5kaldi5nnet316SigmoidComponentE",
            "__ZTVN5kaldi5nnet315LinearComponentE",
            "_FLAGS_help",
            "__ZTI15KaldiRecognizer",
            "__ZTSN5kaldi5nnet325LstmNonlinearityComponentE",
            "__ZN4onnx11TensorProto5FLOATE",
            "__ZTI3G2P",
            "__ZTVN5kaldi5nnet317SumGroupComponentE",
            "__ZN4onnx11TensorProto5INT64E",
            "__ZTSN5kaldi5nnet330NaturalGradientAffineComponentE",
            "__ZN7keenasr10Recognizer20kDefaultDecodeConfigE",
            "__ZN4onnx13OptionalProto18DataType_ARRAYSIZEE",
            "__ZTVN5kaldi5nnet329SwitchingForwardingDescriptorE",
            "_cst_ts_default_prepunctuationsymbols",
            "__ZTVN5kaldi15MultiThreadableE",
            "__ZTSN5kaldi5nnet339NaturalGradientPerElementScaleComponentE",
            "__ZTIN5kaldi5nnet318NonlinearComponentE",
            "_cst_val_type_lpcres",
            "__ZTVN5kaldi5nnet324PerElementScaleComponentE",
            "__ZTSN5kaldi5nnet332ReplaceIndexForwardingDescriptorE",
            "__ZN4onnx14AttributeProto3INTE",
            "__ZTIN5kaldi5nnet338NaturalGradientRepeatedAffineComponentE",
            "__ZTIN4onnx16TensorAnnotationE",
            "_val_int_14",
            "_kAERecorderErrorKey",
            "_us_phoneset",
            "__ZTIN5kaldi5nnet330TimeHeightConvolutionComponentE",
            "__ZTVN5kaldi5nnet314PnormComponentE",
            "__ZTIN5kaldi15MultiThreadableE",
            "__ZN4onnx35_TypeProto_Opaque_default_instance_E",
            "_romannums",
            "__ZTSN5kaldi5nnet318UpdatableComponentE",
            "_val_string_0",
            "__ZTVN4onnx9NodeProtoE",
            "__ZTVN5kaldi19OnlineAppendFeatureE",
            "__ZTVN5kaldi20OnlineIvectorFeatureE",
            "__ZTSN5kaldi5nnet341GeneralDropoutComponentPrecomputedIndexesE",
            "_FLAGS_end_symbol",
            "__ZTVN5kaldi5nnet327DecodableAmNnetLoopedOnlineE",
            "__ZTIN5kaldi5nnet341GeneralDropoutComponentPrecomputedIndexesE",
            "__ZTIN5kaldi5nnet323GeneralDropoutComponentE",
            "__ZTVN5kaldi5nnet313TdnnComponentE",
            "__ZTSN5kaldi5nnet319LogSoftmaxComponentE",
            "__ZTIN5kaldi16ConstantEventMapE",
            "_cst_val_type_cart",
            "__ZN5kaldi13g_num_threadsE",
            "__ZN4onnx13OptionalProto12DataType_MAXE",
            "__ZTVN5kaldi5nnet329DecodableNnetLoopedOnlineBaseE",
            "_AEAudioControllerSessionRouteChangeNotification",
            "__ZTIN5kaldi5nnet325LstmNonlinearityComponentE",
            "__ZTSN5kaldi18ConstArpaLmBuilderE",
            "_cmu_lts_letter_table",
            "__ZTVN5kaldi18OnlineSpliceFramesE",
            "__ZN7keenasr13DecodingGraph13tmp_directoryE",
            "_cst_val_type_relation",
            "__ZTIN5kaldi5nnet326OffsetForwardingDescriptorE",
            "__ZTV5G2PEs",
            "__ZTVN4onnx13FunctionProtoE",
            "__ZTVN5kaldi5nnet330TimeHeightConvolutionComponentE",
            "__ZTIN5kaldi5nnet39ComponentE",
            "_flite_voice_list",
            "__ZTSN5kaldi5nnet318NonlinearComponentE",
            "__ZTVN5kaldi13SplitEventMapE",
            "__ZTIN5kaldi13TableEventMapE",
            "__ZTSN5kaldi5nnet329StatisticsExtractionComponentE",
            "__ZTVN5kaldi5nnet319SimpleSumDescriptorE",
            "__ZTVN4onnx17SparseTensorProtoE",
            "__ZTSN5kaldi5nnet328RoundingForwardingDescriptorE",
            "_cst_val_type_breakfunc",
            "__ZTVN5kaldi5nnet345BackpropTruncationComponentPrecomputedIndexesE",
            "__ZTVN5kaldi5nnet328RestrictedAttentionComponentE",
            "__ZTIN5kaldi17ContextDependencyE",
            "__ZTSN3cpr10ThreadPoolE",
            "_cst_val_type_phoneset",
            "__ZTSN5kaldi11ClusterableE",
            "__ZTSN7keenasr9ASRResultE",
            "__ZTIN5kaldi18OnlineSpliceFramesE",
            "_cmu_us_kal_phon_res",
            "__ZTSN5kaldi15OnlineTransformE",
            "__ZTSN5kaldi5nnet319DistributeComponentE",
            "__ZTVN4onnx11TensorProtoE",
            "__ZTIN5kaldi15OnlineTransformE",
            "__zf_log_global_output",
            "__ZTVN4onnx18OperatorSetIdProtoE",
            "__ZTVN5kaldi16GaussClusterableE",
            "__ZN4onnx13OptionalProto8OPTIONALE",
            "_KeenASRVersionString",
            "__ZTVN5kaldi5nnet313NoOpComponentE",
            "_cst_ts_default_singlecharsymbols",
            "__ZTSN4onnx13OptionalProtoE",
            "_cst_rx_lowercase",
            "_val_string_5",
            "__ZTSN5kaldi5nnet325PerElementOffsetComponentE",
            "_cst_val_type_features",
            "__ZTVN5kaldi5nnet330TimeHeightConvolutionComponent18PrecomputedIndexesE",
            "__ZTSN5kaldi5nnet320ConvolutionComponentE",
            "__ZN5kaldi5nnet318NormalizeComponent17kSquaredNormFloorE",
            "_val_int_16",
            "__ZN4onnx11TensorProto6DOUBLEE",
            "__ZTVN5kaldi5nnet325PerElementOffsetComponentE",
            "__ZTSN4onnx13SequenceProtoE",
            "__ZTIN5kaldi5nnet317SumBlockComponentE",
            "_cst_errjmp",
            "_us_int_tone_cart",
            "_val_string_19",
            "_cst_ts_default_whitespacesymbols",
            "__ZTSN5kaldi14ArpaFileParserE",
            "_AEAudioControllerSessionInterruptionBeganNotification",
            "_FLAGS_far_field_separator",
            "__ZN4onnx13SequenceProto9UNDEFINEDE",
            "__ZTVN4onnx22TypeProto_SparseTensorE",
            "__ZN4onnx14AttributeProto6FLOATSE",
            "__ZTIN5kaldi5nnet321OptionalSumDescriptorE",
            "__ZN4onnx11TensorProto9COMPLEX64E",
            "__ZTSN4onnx16TensorShapeProtoE",
            "__ZTIN5kaldi5nnet325DecodableNnetLoopedOnlineE",
            "__ZTVN5kaldi5nnet317SumBlockComponentE",
            "_KeenASRVersionNumber",
            "__ZTVN5kaldi5nnet316PermuteComponentE",
            "__ZTVN4onnx18TypeProto_OptionalE",
            "__ZTIN5kaldi5nnet315LinearComponentE",
            "_cst_val_type_clunit_db",
            "__ZTIN4onnx9TypeProtoE",
            "__ZTIN4onnx18TypeProto_SequenceE",
            "_hasvowel",
            "__ZTIN4onnx13OptionalProtoE",
            "_cst_val_type_itemfunc",
            "__ZTVN5kaldi5nnet323GeneralDropoutComponentE",
            "_kiosGitRevision",
            "__ZTSN4onnx11TensorProtoE",
            "__ZTSN5kaldi5nnet318NormalizeComponentE",
            "_val_int_11",
            "__ZTSN4onnx13TypeProto_MapE",
            "__ZN4onnx13OptionalProto9UNDEFINEDE",
            "__ZN4onnx27_MapProto_default_instance_E",
            "__ZN4onnx41_TypeProto_SparseTensor_default_instance_E",
            "__ZN4onnx11TensorProto16DataLocation_MAXE",
            "__ZTSN4onnx17TrainingInfoProtoE",
            "__ZTSN5kaldi5nnet320DropoutMaskComponentE",
            "_val_string_9",
            "__ZTIN5kaldi5nnet316PermuteComponentE",
            "__ZTSN5kaldi17VectorClusterableE",
            "__ZTVN5kaldi14ArpaFileParserE",
            "__ZTVN4onnx16TensorAnnotationE",
            "__ZTSN5kaldi5nnet328SpecAugmentTimeMaskComponentE",
            "_val_int_9",
            "__ZTIN4onnx9NodeProtoE",
            "_cst_val_type_cg_db",
            "__ZTSN5kaldi5nnet319BinarySumDescriptorE",
            "__ZTVN3fst11SymbolTableE",
            "_drst",
            "__ZTSN5kaldi5nnet324GruNonlinearityComponentE",
            "__ZTSN5kaldi5nnet323ScaleAndOffsetComponentE",
            "__ZN4onnx11TensorProto6UINT64E",
            "__ZTVN4onnx9TypeProtoE",
            "_numess",
            "__ZTSN5kaldi5nnet327DecodableAmNnetSimpleLoopedE",
            "__ZTV3G2P",
            "__ZTIN5kaldi5nnet337DistributeComponentPrecomputedIndexesE",
            "__ZTIN4onnx18OperatorSetIdProtoE",
            "__ZTIN4onnx16TypeProto_OpaqueE",
            "__ZTVN5kaldi5nnet321ConstantSumDescriptorE",
            "__ZTIN5kaldi5nnet315AffineComponentE",
            "__ZN4onnx11TensorProto8EXTERNALE",
            "_val_string_17",
            "__ZTIN5kaldi5nnet328RoundingForwardingDescriptorE",
            "__ZTSN5kaldi15MultiThreadableE",
            "__ZTVN5kaldi5nnet346SpecAugmentTimeMaskComponentPrecomputedIndexesE",
            "_cst_rx_alpha",
            "__ZN7keenasr10Recognizer14application_idE",
            "__ZTIN5kaldi12ParseOptionsE",
            "__ZN4onnx32_OptionalProto_default_instance_E",
            "_cmu_lex_num_entries",
            "_us_gpos",
            "_FLAGS_fst_field_separator",
            "__ZTIN5kaldi5nnet321ConstantSumDescriptorE",
            "_cmu_us_kal_phon_diphone",
            "__ZN4onnx11TensorProto10FLOAT8E5M2E",
            "__ZN4onnx14AttributeProto23AttributeType_ARRAYSIZEE",
            "_val_string_18",
            "_cmu_lex_phones_huff_table",
            "__ZTVN5kaldi5nnet325LstmNonlinearityComponentE",
            "__ZN4onnx11TensorProto12DataType_MAXE",
            "_cmu_lex",
            "__ZN7keenasr8Uploader13upload_threadE",
            "__ZN4onnx11TensorProto12DataType_MINE",
            "__ZTVN5kaldi5nnet341GeneralDropoutComponentPrecomputedIndexesE",
            "__ZTSN5boost10filesystem6detail18utf8_codecvt_facetE",
            "__ZN4onnx36_SparseTensorProto_default_instance_E",
            "__ZN4onnx14AttributeProto17AttributeType_MAXE",
            "__ZTSN5kaldi5nnet330TimeHeightConvolutionComponent18PrecomputedIndexesE",
            "_FLAGS_tmpdir",
            "__ZTIN5kaldi5nnet329DecodableNnetLoopedOnlineBaseE",
            "__ZN4onnx11TensorProto7DEFAULTE",
            "__ZN4onnx36_TrainingInfoProto_default_instance_E",
            "__ZN4onnx14AttributeProto11TYPE_PROTOSE",
            "__ZTSN4onnx22StringStringEntryProtoE",
            "__ZTIN7keenasr9ASRResultE",
            "__ZTIN4onnx26TensorShapeProto_DimensionE",
            "__ZTSN4onnx18TypeProto_OptionalE",
            "__ZTS7G2PEnUs",
            "__ZTIN5kaldi5nnet329SwitchingForwardingDescriptorE",
            "__ZTVN5kaldi18OnlineCacheFeatureE",
            "__ZTSN5kaldi5nnet316SoftmaxComponentE",
            "__ZTVN5kaldi15OnlineTransformE",
            "_cst_endian_loc",
            "_FLAGS_v",
            "__ZN4onnx37_TypeProto_Sequence_default_instance_E",
            "__ZN7keenasr8Uploader11stop_runnerE",
            "__ZTVN4onnx17TrainingInfoProtoE",
            "__ZTSN5kaldi5nnet313TdnnComponentE",
            "_cst_val_type_audio_streaming_info",
            "_FLAGS_fst_verify_properties",
            "__ZTSN5kaldi17ContextDependencyE",
            "__ZTIN5kaldi18OnlineDeltaFeatureE",
            "__ZTVN5kaldi26OnlineNnet2FeaturePipelineE",
            "__ZN4onnx13OptionalProto6TENSORE",
            "__ZN4onnx33_AttributeProto_default_instance_E",
            "_val_string_8",
            "_val_string_3",
            "__ZTV16G2PPhonetisaurus",
            "__ZTIN5kaldi5nnet320DropoutMaskComponentE",
            "__ZTS20KaldiNNet3Recognizer",
            "__ZN4onnx13SequenceProto8SEQUENCEE",
            "_cst_rx_commaint",
            "__ZN4onnx28_TypeProto_default_instance_E",
            "__ZN4onnx30_TensorProto_default_instance_E",
            "__ZTVN5kaldi13TableEventMapE",
            "__ZTSN5kaldi5nnet323GeneralDropoutComponentE",
            "__ZTSN4onnx22TypeProto_SparseTensorE",
            "__ZTIN5kaldi5nnet332ReplaceIndexForwardingDescriptorE",
            "_cst_rx_int",
            "__ZTVN5kaldi18OnlinePitchFeatureE",
            "__ZTIN5kaldi5nnet319SimpleSumDescriptorE",
            "__ZN4onnx32_TypeProto_Map_default_instance_E",
            "__ZTV7G2PEnUs",
            "__ZTVN4onnx13TypeProto_MapE",
            "__ZTSN5kaldi5nnet330OutputGruNonlinearityComponentE",
            "__ZTSN5kaldi5nnet317SumBlockComponentE",
            "__ZTSN5kaldi5nnet329SwitchingForwardingDescriptorE",
            "__ZTIN4onnx14ValueInfoProtoE",
            "_cmu_us_kal_phon_resi",
            "__ZN5kaldi22pitch_use_naive_searchE",
            "__ZTIN4onnx16TypeProto_TensorE",
            "__ZTSN5kaldi5nnet318CompositeComponentE",
            "_FLAGS_fst_default_cache_gc",
            "__ZTSN5kaldi5nnet337DistributeComponentPrecomputedIndexesE",
            "_cst_rx_double",
            "__ZTVN5kaldi5nnet318UpdatableComponentE",
            "_ordinal_number",
            "_val_int_13",
            "__ZTIN7keenasr10RecognizerE",
            "__ZTIN5kaldi17ScalarClusterableE",
            "__ZN5kaldi21g_kaldi_verbose_levelE",
            "__ZN3fst25ilabel_lookahead_fst_typeE",
            "__ZTVN5kaldi5nnet319FixedScaleComponentE",
            "__ZTSN5kaldi5nnet314PnormComponentE",
            "__ZN4onnx11TensorProto7FLOAT16E",
            "_val_string_4",
            "__ZTIN5kaldi5nnet317ConstantComponentE",
            "__ZN4onnx11TensorProto6UINT16E",
            "__ZTSN5kaldi5nnet325ConstantFunctionComponentE",
            "_us_durz_cart",
            "_FLAGS_fst_weight_separator",
            "_fourdigits",
            "__ZTSN5kaldi5nnet320BlockAffineComponentE",
            "__ZTSN5kaldi5nnet318BatchNormComponentE",
            "__ZN4onnx11TensorProto9UNDEFINEDE",
            "__ZTIN5kaldi5nnet339NaturalGradientPerElementScaleComponentE",
            "__ZTVN5kaldi5nnet326SimpleForwardingDescriptorE",
            "__ZTIN5kaldi5nnet326SimpleForwardingDescriptorE",
            "__ZTIN5kaldi5nnet328RestrictedAttentionComponent18PrecomputedIndexesE",
            "__ZTVN5kaldi5nnet330OutputGruNonlinearityComponentE",
            "__ZTSN3fst11SymbolTableE",
            "_val_int_7",
            "__ZTIN5boost10filesystem6detail18utf8_codecvt_facetE",
            "__ZTVN5kaldi10OnlineCmvnE",
            "__ZTSN5kaldi5nnet320FixedAffineComponentE",
            "_cst_val_type_sts_list",
            "__ZTSN5kaldi27ConstArpaLmDeterministicFstE",
            "_cst_val_type_utterance",
            "__ZTVN4onnx13OptionalProtoE",
            "_cachedVADParams",
            "__ZTSN5kaldi18OnlineDeltaFeatureE",
            "__ZTSN3cpr21EncodedAuthenticationE",
            "_FLAGS_fst_read_mode",
            "__ZTIN4onnx10ModelProtoE",
            "_cst_val_defs",
            "_val_string_14",
            "__ZTIN5kaldi5nnet318FixedBiasComponentE",
            "_AEAudioControllerErrorKey",
            "__ZTSN5kaldi5nnet327ElementwiseProductComponentE",
            "__ZTVN5kaldi5nnet319BinarySumDescriptorE",
            "__ZN4onnx11TensorProto8BFLOAT16E",
            "__ZN7keenasr8Uploader21upload_thread_startedE",
            "_FLAGS_ngram_error_fatal",
            "__ZN4onnx14AttributeProto13SPARSE_TENSORE",
            "__ZTSN4onnx14ValueInfoProtoE",
            "__ZTVN5kaldi5nnet320BlockAffineComponentE",
            "__ZTSN5kaldi13TableEventMapE",
            "__ZTSN5kaldi5nnet327BackpropTruncationComponentE",
            "_AEAudioStreamBasicDescriptionNonInterleaved16BitStereo",
            "__ZN7keenasr13DecodingGraph17dg_root_directoryE",
            "_numbertimexm",
            "_val_string_12",
            "_us_phrasing_cart",
            "_cmu_us_kal_phon_sts",
            "__ZTVN5kaldi5nnet318NonlinearComponentE",
            "__ZN4onnx11TensorProto16DataLocation_MINE",
            "_sevenphonenumber",
            "__ZTSN4onnx9NodeProtoE",
            "__ZTVN5kaldi18ConstArpaLmBuilderE",
            "_wandm",
            "__ZTVN5kaldi5nnet317ConstantComponentE",
            "__ZTVN5kaldi11ClusterableE",
            "__ZTSN4onnx13FunctionProtoE",
            "_AERecorderDidEncounterErrorNotification",
            "__ZTVN4onnx26TensorShapeProto_DimensionE",
            "__ZTSN5kaldi5nnet313TdnnComponent18PrecomputedIndexesE",
            "__ZTIN5kaldi5nnet316DropoutComponentE",
            "__ZN4onnx11TensorProto14FLOAT8E5M2FNUZE",
            "__ZTIN4onnx13FunctionProtoE",
            "__ZTSN5kaldi18OnlinePitchFeatureE",
            "__ZN4onnx29_ModelProto_default_instance_E",
            "_FLAGS_save_relabel_opairs",
            "__ZN4onnx11TensorProto12FLOAT8E4M3FNE",
            "_dottedabbrevs",
            "__ZTSN5kaldi5nnet329DecodableNnetLoopedOnlineBaseE",
            "__ZTIN5kaldi5nnet346SpecAugmentTimeMaskComponentPrecomputedIndexesE",
            "__ZTI16G2PPhonetisaurus",
            "__ZTIN4onnx17TrainingInfoProtoE",
            "_numbertime",
            "__ZTSN5kaldi5nnet315LinearComponentE",
            "__ZTVN5kaldi5nnet323ScaleAndOffsetComponentE",
            "__ZTSN5kaldi5nnet326SimpleForwardingDescriptorE",
            "__ZTVN5kaldi5nnet316DropoutComponentE",
            "__ZTIN5kaldi5nnet329StatisticsExtractionComponentE",
            "__ZTVN5kaldi5nnet327BackpropTruncationComponentE",
            "__ZTSN5kaldi13SplitEventMapE",
            "__ZTVN4onnx10GraphProtoE",
            "__ZTIN5kaldi5nnet320BlockAffineComponentE",
            "_cmu_lts_model",
            "__ZTIN4onnx16TensorShapeProtoE",
            "_threedigits",
            "__ZTIN5kaldi17VectorClusterableE",
            "__ZTVN5kaldi5nnet315AffineComponentE",
            "__ZTVN5kaldi5nnet325DecodableNnetLoopedOnlineE",
            "__ZTIN4onnx19TensorProto_SegmentE",
            "__ZTSN5kaldi5nnet319MaxpoolingComponentE",
            "__ZTVN5kaldi5nnet324GruNonlinearityComponentE",
            "__ZTIN5kaldi5nnet326StatisticsPoolingComponentE",
            "__ZTVN7keenasr10RecognizerE",
            "__ZTSN7keenasr10RecognizerE",
            "__ZN4onnx13OptionalProto3MAPE",
            "__ZN5kaldi5nnet37kNoTimeE",
            "__ZTVN4onnx22StringStringEntryProtoE",
            "__ZTVN5kaldi17VectorClusterableE",
            "__ZTIN5kaldi5nnet325PerElementOffsetComponentE",
            "__ZN4onnx11TensorProto4INT8E",
            "__ZN4onnx32_FunctionProto_default_instance_E",
            "__ZTIN5kaldi18OnlineProcessPitchE",
            "__ZTIN5kaldi26OnlineNnet2FeaturePipelineE",
            "_cst_val_type_track",
            "_cmu_lts_letter_index",
            "__ZTS5G2PEs",
            "_val_string_15",
            "__ZTS3G2P",
            "__ZTIN5kaldi5nnet314PnormComponentE",
            "_us_dur_stats",
            "__ZN4onnx33_ValueInfoProto_default_instance_E",
            "__ZTIN5kaldi5nnet330OutputGruNonlinearityComponentE",
            "__ZN7keenasr8Uploader8uploaderE",
            "__ZTVN5kaldi5nnet319DistributeComponentE",
            "_FLAGS_fst_error_fatal",
            "__ZTSN5kaldi19OnlineAppendFeatureE",
            "__ZN7keenasr8Uploader24remove_data_after_uploadE",
            "__ZTIN5kaldi5nnet344StatisticsPoolingComponentPrecomputedIndexesE",
            "__ZTSN5kaldi20OnlineIvectorFeatureE",
            "__zf_log_stderr_spec",
            "_cst_val_type_diphone_db",
            "__ZTVN5kaldi5nnet39ComponentE",
            "_cmu_us_kal_phon_lpc",
            "_FLAGS_fst_compat_symbols",
            "__ZN4onnx37_OperatorSetIdProto_default_instance_E",
            "__ZN4onnx41_StringStringEntryProto_default_instance_E",
            "_val_int_15",
            "_cmu_lex_num_bytes",
            "__ZTSN5kaldi5nnet324RectifiedLinearComponentE",
            "__ZTSN5kaldi5nnet321ConstantSumDescriptorE",
            "__ZN3fst22arc_lookahead_fst_typeE",
            "__ZN4onnx13SequenceProto12DataType_MAXE",
            "__ZN7keenasr10Recognizer9log_levelE",
            "__ZTVN5kaldi5nnet318FixedBiasComponentE",
            "__ZN4onnx45_TensorShapeProto_Dimension_default_instance_E",
            "__ZTIN5kaldi14ArpaLmCompilerE",
            "_val_int_5",
            "__ZTI5G2PEs",
            "_val_int_3",
            "_cmu_us_kal_phon_db",
            "__ZTVN5kaldi16ConstantEventMapE",
            "__ZTSN5kaldi16GaussClusterableE",
            "_cmu_lex_data",
            "__ZTVN5kaldi5nnet328SpecAugmentTimeMaskComponentE",
            "__ZTIN5kaldi5nnet313TdnnComponent18PrecomputedIndexesE",
            "__ZTIN5kaldi5nnet324RectifiedLinearComponentE",
            "__ZTVN3cpr10ThreadPoolE",
            "__ZN4onnx14AttributeProto6STRINGE",
            "__ZN4onnx14AttributeProto5FLOATE",
            "__ZN4onnx13SequenceProto12DataType_MINE",
            "_kAEAudioControllerCallbackKey",
            "__ZTIN5kaldi5nnet325ConstantFunctionComponentE",
            "__ZTSN5kaldi5nnet313TanhComponentE",
            "_cst_rx_identifier",
            "__ZTSN5kaldi5nnet317ConstantComponentE",
            "__ZTIN5kaldi5nnet320ConvolutionComponentE",
            "__ZTIN5kaldi5nnet323ScaleAndOffsetComponentE",
            "__ZTSN5kaldi10OnlineCmvnE",
            "__ZTIN4onnx14AttributeProtoE",
            "__ZN4onnx14AttributeProto6TENSORE",
            "__ZTSN4onnx18OperatorSetIdProtoE",
            "__ZTIN5kaldi5nnet319LogSoftmaxComponentE",
            "__ZN4onnx14AttributeProto4INTSE",
            "__ZTIN5kaldi5nnet327BackpropTruncationComponentE",
            "__ZTVN5kaldi5nnet316SoftmaxComponentE",
            "__ZTIN5kaldi5nnet319BinarySumDescriptorE",
            "__ZTVN5kaldi5nnet325ConstantFunctionComponentE",
            "__ZTIN5kaldi5nnet316SoftmaxComponentE",
            "_FLAGS_start_symbol",
            "__ZTVN5kaldi27ConstArpaLmDeterministicFstE",
            "__ZTSN5kaldi5nnet327DecodableAmNnetLoopedOnlineE",
            "__ZTIN5kaldi5nnet317SumGroupComponentE",
            "__ZTVN4onnx14ValueInfoProtoE",
            "__ZTIN5kaldi27ConstArpaLmDeterministicFstE",
            "__ZTVN4onnx10ModelProtoE",
            "__ZTSN5kaldi5nnet346SpecAugmentTimeMaskComponentPrecomputedIndexesE",
            "__ZN4onnx35_TensorAnnotation_default_instance_E",
            "__ZTVN5kaldi18OnlineDeltaFeatureE",
            "__ZTIN5kaldi16GaussClusterableE",
            "__ZN4onnx14AttributeProto6GRAPHSE",
            "__ZTIN5kaldi20OnlineIvectorFeatureE",
            "__ZTIN5kaldi5nnet324PerElementScaleComponentE",
            "__ZTIN5kaldi18OnlinePitchFeatureE",
            "__ZTVN5boost10filesystem16filesystem_errorE",
            "_val_string_11",
            "__ZTVN4onnx16TypeProto_TensorE",
            "__ZTIN5kaldi5nnet327ElementwiseProductComponentE",
            "_val_int_2",
            "__ZTIN4onnx13SequenceProtoE",
            "_cst_val_type_uttfunc",
            "_AEAudioStreamBasicDescriptionInterleaved16BitStereo",
            "_cmu_lex_phone_table",
            "__ZTIN3fst11SymbolTableE",
            "_AEAudioControllerSessionInterruptionEndedNotification",
            "__ZTSN5kaldi5nnet321OptionalSumDescriptorE",
            "__ZTVN3cpr21EncodedAuthenticationE",
            "__ZN4onnx13SequenceProto13SPARSE_TENSORE",
            "__ZTSN5kaldi5nnet345BackpropTruncationComponentPrecomputedIndexesE",
            "_cst_val_type_item",
            "_us_int_accent_cart",
            "_val_int_8",
            "_FLAGS_fst_align",
            "__ZTVN5kaldi5nnet327ElementwiseProductComponentE",
            "__ZTSN5kaldi18OnlineSpliceFramesE",
            "__ZN3fst25olabel_lookahead_fst_typeE",
            "__ZTVN5kaldi5nnet326StatisticsPoolingComponentE",
            "_FLAGS_helpshort",
            "_kAEAudioControllerUserInfoKey",
            "__ZTIN5kaldi5nnet327DecodableAmNnetLoopedOnlineE",
            "__ZN4onnx35_TypeProto_Tensor_default_instance_E",
            "_cst_regex_table",
            "__ZTSN5kaldi5nnet318FixedBiasComponentE",
            "__ZTVN5kaldi5nnet324RectifiedLinearComponentE",
            "__ZTIN5kaldi5nnet320FixedAffineComponentE",
            "__ZTVN5kaldi5nnet320DropoutMaskComponentE",
            "__ZN4onnx11TensorProto18DataType_ARRAYSIZEE",
            "_cst_val_type_lexicon",
            "__ZTSN5kaldi16ConstantEventMapE",
            "__ZN3fst13PropertyNamesE",
            "__ZTVN5kaldi5nnet318BatchNormComponentE",
            "__ZTSN5kaldi5nnet317SumGroupComponentE",
            "__ZTS16G2PPhonetisaurus",
            "_digitsslashdigits",
            "__ZN4onnx11TensorProto5INT32E",
            "__ZTSN5kaldi5nnet325DecodableNnetLoopedOnlineE",
            "__ZN4onnx13SequenceProto18DataType_ARRAYSIZEE",
            "__ZN3cpr16GlobalThreadPool7s_mutexE",
            "__ZTSN5kaldi5nnet326StatisticsPoolingComponentE",
            "__ZTSN5kaldi14ArpaLmCompilerE",
            "__ZTSN4onnx19TensorProto_SegmentE",
            "__zf_log_global_output_lvl",
            "__ZN4onnx14AttributeProto9UNDEFINEDE",
            "_val_string_1",
            "__ZTSN4onnx10ModelProtoE",
            "__ZN4onnx14AttributeProto14SPARSE_TENSORSE",
            "__ZTSN4onnx18TypeProto_SequenceE",
            "__ZN4onnx28_NodeProto_default_instance_E",
            "__ZTIN5kaldi5nnet330TimeHeightConvolutionComponent18PrecomputedIndexesE",
            "_val_int_10",
            "__ZTVN5kaldi5nnet313TanhComponentE",
            "__ZTSN4onnx16TensorAnnotationE",
            "__ZTIN5kaldi5nnet319DistributeComponentE",
            "__ZTSN4onnx10GraphProtoE",
            "__ZN4onnx32_SequenceProto_default_instance_E",
            "__ZTSN5kaldi5nnet319FixedScaleComponentE",
            "__ZTIN5kaldi5nnet318CompositeComponentE",
            "__ZN4onnx13SequenceProto3MAPE",
            "__ZTSN5kaldi26OnlineNnet2FeaturePipelineE",
            "_val_int_18",
            "__ZTVN5kaldi5nnet344StatisticsPoolingComponentPrecomputedIndexesE",
            "_cst_val_type_ffunc"
          ],
          "objc_class": [
            "AEMixerBuffer",
            "KIOSResponse",
            "AEFloatConverter",
            "AEAudioFileWriter",
            "AEMessageQueuePollThread",
            "KIOSAudioReceiver",
            "KIOSResult",
            "AEAudioControllerProxy",
            "KIOSPhone",
            "AEAudioControllerMessageQueue",
            "KIOSUploader",
            "AEAudioController",
            "KIOSDecodingGraph",
            "AEMessageQueue",
            "KIOSAudioController",
            "AEBlockChannel",
            "AERecorder",
            "AEMixerBufferPollProxy",
            "KIOSAlternativePronunciation",
            "KIOSWord",
            "KIOSRecognizer"
          ],
          "objc_ivar": [
            "AEMixerBufferPollProxy._mixerBuffer"
          ],
          "thread_local": [
            "__ZGVZN4sole5uuid4EvE4dist",
            "__ZZN4sole5uuid4EvE2rd",
            "__ZGVZN4sole5uuid4EvE2rd",
            "__ZZN4sole5uuid4EvE4dist"
          ],
          "weak": [
            "__ZGVZN3fst12LogWeightTplIdE3OneEvE3one",
            "__ZGVZN3fst12LogWeightTplIdE8NoWeightEvE9no_weight",
            "__ZZN3fst15GenericRegisterINSt3__112basic_stringIcNS1_11char_traitsIcEENS1_9allocatorIcEEEENS_16FstRegisterEntryINS_6ArcTplINS_12LogWeightTplIdEEEEEENS_11FstRegisterISC_EEE11GetRegisterEvE3reg",
            "__ZGVZN3fst17TropicalWeightTplIfE4ZeroEvE4zero",
            "__ZN3fst18CompactHashBiTableIiPNS_8internal21DeterminizeStateTupleINS_10ReverseArcINS_6ArcTplINS_17TropicalWeightTplIfEEEEEENS_18IntegerFilterStateIaEEEENS_28DefaultDeterminizeStateTableIS8_SA_E13StateTupleKeyENSE_15StateTupleEqualELNS_6HSTypeE0EE11kCurrentKeyE",
            "__ZZN3fst8DfsVisitINS_3FstINS_6ArcTplINS_17TropicalWeightTplIfEEEEEENS_15TopOrderVisitorIS5_EENS_16EpsilonArcFilterIS5_EEEEvRKT_PT0_T1_bE9kDfsWhite",
            "__ZZN3fst8DfsVisitINS_3FstINS_6ArcTplINS_17TropicalWeightTplIfEEEEEENS_10SccVisitorIS5_EENS_12AnyArcFilterIS5_EEEEvRKT_PT0_T1_bE9kDfsWhite",
            "__ZN3fst10MappedFile14kArchAlignmentE",
            "__ZZN3fst8DfsVisitINS_3FstINS_6ArcTplINS_16LatticeWeightTplIfEEEEEENS_15DfsOrderVisitorIS5_EENS_12AnyArcFilterIS5_EEEEvRKT_PT0_T1_bE9kDfsWhite",
            "__ZZN3fst8DfsVisitINS_10MutableFstINS_6ArcTplINS_17TropicalWeightTplIfEEEEEENS_10SccVisitorIS5_EENS_16EpsilonArcFilterIS5_EEEEvRKT_PT0_T1_bE9kDfsWhite",
            "__ZGVZN3fst16LatticeWeightTplIfE4TypeEvE4type",
            "__ZZN3fst10ReverseArcINS_6ArcTplINS_16LatticeWeightTplIfEEEEE4TypeEvE4type",
            "__ZTIN5kaldi24OnlineGenericBaseFeatureINS_11PlpComputerEEE",
            "__ZZN3fst15GenericRegisterINSt3__112basic_stringIcNS1_11char_traitsIcEENS1_9allocatorIcEEEENS_16FstRegisterEntryINS_6ArcTplINS_12LogWeightTplIfEEEEEENS_11FstRegisterISC_EEE11GetRegisterEvE3reg",
            "__ZGVZN3fst15GenericRegisterINSt3__112basic_stringIcNS1_11char_traitsIcEENS1_9allocatorIcEEEENS_16FstRegisterEntryINS_6ArcTplINS_17TropicalWeightTplIfEEEEEENS_11FstRegisterISC_EEE11GetRegisterEvE3reg",
            "__ZGVZN3fst10ReverseArcINS_6ArcTplINS_17TropicalWeightTplIfEEEEE4TypeEvE4type",
            "__ZZN3fst8DfsVisitINS_3FstINS_6ArcTplINS_16LatticeWeightTplIfEEEEEENS_10SccVisitorIS5_EENS_12AnyArcFilterIS5_EEEEvRKT_PT0_T1_bE9kDfsWhite",
            "__ZZN3fst19UnweightedCompactorINS_6ArcTplINS_17TropicalWeightTplIfEEEEE4TypeEvE4type",
            "__ZTSN5kaldi24OnlineGenericBaseFeatureINS_13FbankComputerEEE",
            "__ZZN3fst15GenericRegisterINSt3__14pairINS1_12basic_stringIcNS1_11char_traitsIcEENS1_9allocatorIcEEEES8_EEPFvPNS_6script13FarCreateArgsEENSA_24GenericOperationRegisterISE_EEE11GetRegisterEvE3reg",
            "__ZGVZN3fst15StringCompactorINS_6ArcTplINS_12LogWeightTplIdEEEEE4TypeEvE4type",
            "__ZZN3fst15StringCompactorINS_6ArcTplINS_12LogWeightTplIfEEEEE4TypeEvE4type",
            "__ZZN12FlagRegisterIdE11GetRegisterEvE3reg",
            "__ZZN3fst23WeightedStringCompactorINS_6ArcTplINS_17TropicalWeightTplIfEEEEE4TypeEvE4type",
            "__ZGVZN3fst12LogWeightTplIdE4TypeEvE4type",
            "__ZGVZNK5boost6system14error_category11init_stdcatEvE3mx_",
            "__ZGVZN3fst10ReverseArcINS_6ArcTplINS_12LogWeightTplIdEEEEE4TypeEvE4type",
            "__ZZN3fst19DefaultCompactStoreINSt3__14pairIiNS_17TropicalWeightTplIfEEEEjE4TypeEvE4type",
            "__ZGVZN3fst14RandEquivalentINS_6ArcTplINS_23CompactLatticeWeightTplINS_16LatticeWeightTplIfEEiEEEENS_18UniformArcSelectorIS6_EEEEbRKNS_3FstIT_EESD_ifRKNS_14RandGenOptionsIT0_EEPbE5icomp",
            "__ZGVZN3fst23CompactLatticeWeightTplINS_16LatticeWeightTplIfEEiE4TypeEvE4type",
            "__ZZN3fst17TropicalWeightTplIfE4ZeroEvE4zero",
            "__ZZN3fst8DfsVisitINS_3FstINS_6ArcTplINS_12LogWeightTplIdEEEEEENS_10SccVisitorIS5_EENS_12AnyArcFilterIS5_EEEEvRKT_PT0_T1_bE9kDfsWhite",
            "__ZZN3fst14RandEquivalentINS_6ArcTplINS_16LatticeWeightTplIfEEEENS_18UniformArcSelectorIS4_EEEEbRKNS_3FstIT_EESB_ifRKNS_14RandGenOptionsIT0_EEPbE5ocomp",
            "__ZZN3fst12LogWeightTplIfE4ZeroEvE4zero",
            "__ZZN3fst23WeightedStringCompactorINS_6ArcTplINS_12LogWeightTplIfEEEEE4TypeEvE4type",
            "__ZGVZN3fst6ArcTplINS_12LogWeightTplIdEEE4TypeEvE4type",
            "__ZZN3fst10ReverseArcINS_6ArcTplINS_23CompactLatticeWeightTplINS_16LatticeWeightTplIfEEiEEEEE4TypeEvE4type",
            "__ZZN3fst6ArcTplINS_23CompactLatticeWeightTplINS_16LatticeWeightTplIfEEiEEE4TypeEvE4type",
            "__ZGVZN12FlagRegisterINSt3__112basic_stringIcNS0_11char_traitsIcEENS0_9allocatorIcEEEEE11GetRegisterEvE3reg",
            "__ZGVZN3fst6ArcTplINS_17TropicalWeightTplIfEEE4TypeEvE4type",
            "__ZGVZN3fst17AcceptorCompactorINS_6ArcTplINS_12LogWeightTplIfEEEEE4TypeEvE4type",
            "__ZN3fst18CompactHashBiTableIiNS_24DefaultComposeStateTupleIiNS_18IntegerFilterStateIaEEEENS_11ComposeHashIS4_EENSt3__18equal_toIS4_EELNS_6HSTypeE1EE11kCurrentKeyE",
            "__ZGVZN3fst15GenericRegisterINSt3__112basic_stringIcNS1_11char_traitsIcEENS1_9allocatorIcEEEENS_16FstRegisterEntryINS_6ArcTplINS_12LogWeightTplIdEEEEEENS_11FstRegisterISC_EEE11GetRegisterEvE3reg",
            "__ZGVZN3fst27UnweightedAcceptorCompactorINS_6ArcTplINS_12LogWeightTplIfEEEEE4TypeEvE4type",
            "__ZZN3fst12LogWeightTplIdE8NoWeightEvE9no_weight",
            "__ZZN3fst8DfsVisitINS_3FstINS_10ReverseArcINS_6ArcTplINS_23CompactLatticeWeightTplINS_16LatticeWeightTplIfEEiEEEEEEEENS_10SccVisitorIS9_EENS_12AnyArcFilterIS9_EEEEvRKT_PT0_T1_bE9kDfsWhite",
            "__ZGVZN3fst17TropicalWeightTplIfE4TypeEvE4type",
            "__ZZN12FlagRegisterIiE11GetRegisterEvE3reg",
            "__ZGVZN3fst19DefaultCompactStoreINSt3__14pairINS2_IiNS_17TropicalWeightTplIfEEEEiEEjE4TypeEvE4type",
            "__ZGVZN3fst19DefaultCompactStoreINSt3__14pairIiNS_12LogWeightTplIfEEEEjE4TypeEvE4type",
            "__ZZN3fst8DfsVisitINS_10MutableFstINS_6ArcTplINS_17TropicalWeightTplIfEEEEEENS_15TopOrderVisitorIS5_EENS_16EpsilonArcFilterIS5_EEEEvRKT_PT0_T1_bE9kDfsWhite",
            "__ZZN3fst19DefaultCompactStoreINSt3__14pairINS2_IiNS_12LogWeightTplIfEEEEiEEjE4TypeEvE4type",
            "__ZGVZN3fst15GenericRegisterINSt3__14pairINS1_12basic_stringIcNS1_11char_traitsIcEENS1_9allocatorIcEEEES8_EEPFvPNS_6script4args15WithReturnValueIbNSB_7PackageIRKS8_SF_fSF_SF_NSB_9none_typeESG_SG_SG_EEEEENSA_24GenericOperationRegisterISL_EEE11GetRegisterEvE3reg",
            "__ZZN3fst8DfsVisitINS_3FstINS_6ArcTplINS_17TropicalWeightTplIfEEEEEENS_8internal16AcyclicMinimizerIS5_E13HeightVisitorENS_12AnyArcFilterIS5_EEEEvRKT_PT0_T1_bE9kDfsWhite",
            "__ZGVZN3fst12LogWeightTplIdE4ZeroEvE4zero",
            "__ZZN3fst6ArcTplINS_16LatticeWeightTplIfEEE4TypeEvE4type",
            "__ZGVZN3fst19UnweightedCompactorINS_6ArcTplINS_12LogWeightTplIfEEEEE4TypeEvE4type",
            "__ZZN3fst15StringCompactorINS_6ArcTplINS_17TropicalWeightTplIfEEEEE4TypeEvE4type",
            "__ZZN3fst19DefaultCompactStoreINSt3__14pairINS2_IiiEEiEEjE4TypeEvE4type",
            "__ZZN12FlagRegisterINSt3__112basic_stringIcNS0_11char_traitsIcEENS0_9allocatorIcEEEEE11GetRegisterEvE3reg",
            "__ZGVZN3fst27UnweightedAcceptorCompactorINS_6ArcTplINS_17TropicalWeightTplIfEEEEE4TypeEvE4type",
            "__ZZN3fst6ArcTplINS_12LogWeightTplIdEEE4TypeEvE4type",
            "__ZZN3fst10ReverseArcINS_6ArcTplINS_17TropicalWeightTplIfEEEEE4TypeEvE4type",
            "__ZGVZN3cpr10CurlHolder21curl_easy_init_mutex_EvE21curl_easy_init_mutex_",
            "__ZZN3fst12LogWeightTplIdE4TypeEvE4type",
            "__ZZN3fst8DfsVisitINS_3FstINS_6ArcTplINS_17TropicalWeightTplIfEEEEEENS_8internal14RandGenVisitorIS5_S5_EENS_12AnyArcFilterIS5_EEEEvRKT_PT0_T1_bE9kDfsWhite",
            "__ZZN3fst27UnweightedAcceptorCompactorINS_6ArcTplINS_17TropicalWeightTplIfEEEEE4TypeEvE4type",
            "__ZZN3fst8DfsVisitINS_3FstINS_10ReverseArcINS_6ArcTplINS_23CompactLatticeWeightTplINS_16LatticeWeightTplIfEEiEEEEEEEENS_15TopOrderVisitorIS9_EENS_12AnyArcFilterIS9_EEEEvRKT_PT0_T1_bE9kDfsWhite",
            "__ZTIN5kaldi24OnlineGenericBaseFeatureINS_13FbankComputerEEE",
            "__ZZN12FlagRegisterIxE11GetRegisterEvE3reg",
            "__ZN3fst10MappedFile13kMaxReadChunkE",
            "__ZZN3fst8DfsVisitINS_3FstINS_10ReverseArcINS_6ArcTplINS_12LogWeightTplIdEEEEEEEENS_10SccVisitorIS7_EENS_12AnyArcFilterIS7_EEEEvRKT_PT0_T1_bE9kDfsWhite",
            "__ZGVZN12FlagRegisterIbE11GetRegisterEvE3reg",
            "__ZGVZN3fst12LogWeightTplIfE4ZeroEvE4zero",
            "__ZZN3fst8DfsVisitINS_3FstINS_6ArcTplINS_23CompactLatticeWeightTplINS_16LatticeWeightTplIfEEiEEEEEENS_10SccVisitorIS7_EENS_16EpsilonArcFilterIS7_EEEEvRKT_PT0_T1_bE9kDfsWhite",
            "__ZZNK5boost6system10error_code8locationEvE3loc",
            "__ZZN3fst27UnweightedAcceptorCompactorINS_6ArcTplINS_12LogWeightTplIfEEEEE4TypeEvE4type",
            "__ZGVZN3fst17TropicalWeightTplIfE8NoWeightEvE9no_weight",
            "__ZZN12FlagRegisterIbE11GetRegisterEvE3reg",
            "__ZGVZN12FlagRegisterIxE11GetRegisterEvE3reg",
            "__ZZN3fst12LogWeightTplIdE3OneEvE3one",
            "__ZZN3cpr10CurlHolder21curl_easy_init_mutex_EvE21curl_easy_init_mutex_",
            "__ZZN3fst8DfsVisitINS_3FstINS_6ArcTplINS_12LogWeightTplIfEEEEEENS_10SccVisitorIS5_EENS_12AnyArcFilterIS5_EEEEvRKT_PT0_T1_bE9kDfsWhite",
            "__ZZN3fst19DefaultCompactStoreINSt3__14pairINS2_IiNS_17TropicalWeightTplIfEEEEiEEjE4TypeEvE4type",
            "__ZZN3fst8DfsVisitINS_3FstINS_6ArcTplINS_17TropicalWeightTplIfEEEEEENS_15TopOrderVisitorIS5_EENS_12AnyArcFilterIS5_EEEEvRKT_PT0_T1_bE9kDfsWhite",
            "__ZGVZN12FlagRegisterIiE11GetRegisterEvE3reg",
            "__ZNSt3__119piecewise_constructE",
            "__ZGVZN3fst10ReverseArcINS_6ArcTplINS_16LatticeWeightTplIfEEEEE4TypeEvE4type",
            "__ZZN3fst8DfsVisitINS_3FstINS_6ArcTplINS_23CompactLatticeWeightTplINS_16LatticeWeightTplIfEEiEEEEEENS_8internal14RandGenVisitorIS7_S7_EENS_12AnyArcFilterIS7_EEEEvRKT_PT0_T1_bE9kDfsWhite",
            "__ZGVZN3fst15StringCompactorINS_6ArcTplINS_17TropicalWeightTplIfEEEEE4TypeEvE4type",
            "__ZTSN5kaldi24OnlineGenericBaseFeatureINS_12MfccComputerEEE",
            "__ZZN3fst23CompactLatticeWeightTplINS_16LatticeWeightTplIfEEiE4TypeEvE4type",
            "__ZN5boost6system6detail18generic_cat_holderIvE8instanceE",
            "__ZGVZN3fst14RandEquivalentINS_6ArcTplINS_23CompactLatticeWeightTplINS_16LatticeWeightTplIfEEiEEEENS_18UniformArcSelectorIS6_EEEEbRKNS_3FstIT_EESD_ifRKNS_14RandGenOptionsIT0_EEPbE5ocomp",
            "__ZN5boost6system6detail18interop_cat_holderIvE8instanceE",
            "__ZGVZN3fst17TropicalWeightTplIfE3OneEvE3one",
            "__ZZN3fst8DfsVisitINS_3FstINS_6ArcTplINS_23CompactLatticeWeightTplINS_16LatticeWeightTplIfEEiEEEEEENS_15TopOrderVisitorIS7_EENS_12AnyArcFilterIS7_EEEEvRKT_PT0_T1_bE9kDfsWhite",
            "__ZZNK5boost6system14error_category11init_stdcatEvE3mx_",
            "__ZGVZN3fst17AcceptorCompactorINS_6ArcTplINS_17TropicalWeightTplIfEEEEE4TypeEvE4type",
            "__ZZN3fst17TropicalWeightTplIfE3OneEvE3one",
            "__ZZN3fst17TropicalWeightTplIfE8NoWeightEvE9no_weight",
            "__ZTVN5kaldi24OnlineGenericBaseFeatureINS_13FbankComputerEEE",
            "__ZGVZN12FlagRegisterIdE11GetRegisterEvE3reg",
            "__ZGVZN3fst14RandEquivalentINS_6ArcTplINS_16LatticeWeightTplIfEEEENS_18UniformArcSelectorIS4_EEEEbRKNS_3FstIT_EESB_ifRKNS_14RandGenOptionsIT0_EEPbE5icomp",
            "__ZZN3fst15StringCompactorINS_6ArcTplINS_12LogWeightTplIdEEEEE4TypeEvE4type",
            "__ZGVZN3fst19DefaultCompactStoreINSt3__14pairIiiEEjE4TypeEvE4type",
            "__ZZN3fst19UnweightedCompactorINS_6ArcTplINS_12LogWeightTplIfEEEEE4TypeEvE4type",
            "__ZN3fst18CompactHashBiTableIiNS_24DefaultComposeStateTupleIiNS_15PairFilterStateINS2_INS_18IntegerFilterStateIaEENS_17WeightFilterStateINS_17TropicalWeightTplIfEEEEEENS3_IiEEEEEENS_11ComposeHashISC_EENSt3__18equal_toISC_EELNS_6HSTypeE1EE11kCurrentKeyE",
            "__ZZN3fst16LatticeWeightTplIfE4TypeEvE4type",
            "__ZZN3fst19DefaultCompactStoreINSt3__14pairIiNS_12LogWeightTplIfEEEEjE4TypeEvE4type",
            "__ZGVZN3fst15GenericRegisterINSt3__14pairINS1_12basic_stringIcNS1_11char_traitsIcEENS1_9allocatorIcEEEES8_EEPFvPNS_6script21FarCompileStringsArgsEENSA_24GenericOperationRegisterISE_EEE11GetRegisterEvE3reg",
            "__ZGVN3Ort6GlobalIvE4api_E",
            "__ZGVZN3fst10ReverseArcINS_6ArcTplINS_12LogWeightTplIfEEEEE4TypeEvE4type",
            "__ZZN3fst17AcceptorCompactorINS_6ArcTplINS_17TropicalWeightTplIfEEEEE4TypeEvE4type",
            "__ZGVZN3fst10ReverseArcINS_6ArcTplINS_23CompactLatticeWeightTplINS_16LatticeWeightTplIfEEiEEEEE4TypeEvE4type",
            "__ZN3fst18CompactHashBiTableIlNS_18ReplaceStackPrefixIiiEENS_22ReplaceStackPrefixHashIiiEENSt3__18equal_toIS2_EELNS_6HSTypeE1EE11kCurrentKeyE",
            "__ZZN3fst8DfsVisitINS_3FstINS_6ArcTplINS_17TropicalWeightTplIfEEEEEENS_10SccVisitorIS5_EENS_16EpsilonArcFilterIS5_EEEEvRKT_PT0_T1_bE9kDfsWhite",
            "__ZGVZN3fst12LogWeightTplIfE3OneEvE3one",
            "__ZZN3fst10ReverseArcINS_6ArcTplINS_12LogWeightTplIfEEEEE4TypeEvE4type",
            "__ZGVZN3fst15StringCompactorINS_6ArcTplINS_12LogWeightTplIfEEEEE4TypeEvE4type",
            "__ZZN3fst15GenericRegisterINSt3__14pairINS1_12basic_stringIcNS1_11char_traitsIcEENS1_9allocatorIcEEEES8_EEPFvPNS_6script19FarPrintStringsArgsEENSA_24GenericOperationRegisterISE_EEE11GetRegisterEvE3reg",
            "__ZZN3fst15GenericRegisterINSt3__14pairINS1_12basic_stringIcNS1_11char_traitsIcEENS1_9allocatorIcEEEES8_EEPFvPNS_6script4args7PackageIRKNS1_6vectorIS8_NS6_IS8_EEEERKS8_SJ_KbNSB_9none_typeESL_SL_SL_SL_EEENSA_24GenericOperationRegisterISP_EEE11GetRegisterEvE3reg",
            "__ZZN3fst8DfsVisitINS_3FstINS_6ArcTplINS_12LogWeightTplIdEEEEEENS_15TopOrderVisitorIS5_EENS_12AnyArcFilterIS5_EEEEvRKT_PT0_T1_bE9kDfsWhite",
            "__ZZN3fst14RandEquivalentINS_6ArcTplINS_23CompactLatticeWeightTplINS_16LatticeWeightTplIfEEiEEEENS_18UniformArcSelectorIS6_EEEEbRKNS_3FstIT_EESD_ifRKNS_14RandGenOptionsIT0_EEPbE5ocomp",
            "__ZTIN5kaldi24OnlineGenericBaseFeatureINS_12MfccComputerEEE",
            "__ZZN3fst15GenericRegisterINSt3__112basic_stringIcNS1_11char_traitsIcEENS1_9allocatorIcEEEENS_16FstRegisterEntryINS_6ArcTplINS_17TropicalWeightTplIfEEEEEENS_11FstRegisterISC_EEE11GetRegisterEvE3reg",
            "__ZTVN5kaldi24OnlineGenericBaseFeatureINS_12MfccComputerEEE",
            "__ZGVZN3fst6ArcTplINS_12LogWeightTplIfEEE4TypeEvE4type",
            "__ZGVZN3fst15GenericRegisterINSt3__14pairINS1_12basic_stringIcNS1_11char_traitsIcEENS1_9allocatorIcEEEES8_EEPFvPNS_6script13FarCreateArgsEENSA_24GenericOperationRegisterISE_EEE11GetRegisterEvE3reg",
            "__ZZN3fst10ReverseArcINS_6ArcTplINS_12LogWeightTplIdEEEEE4TypeEvE4type",
            "__ZN3fst18CompactHashBiTableIiNS_17ReplaceStateTupleIilEENS_11ReplaceHashIilEENSt3__18equal_toIS2_EELNS_6HSTypeE1EE11kCurrentKeyE",
            "__ZGVZN3fst23WeightedStringCompactorINS_6ArcTplINS_17TropicalWeightTplIfEEEEE4TypeEvE4type",
            "__ZZN3fst14RandEquivalentINS_6ArcTplINS_16LatticeWeightTplIfEEEENS_18UniformArcSelectorIS4_EEEEbRKNS_3FstIT_EESB_ifRKNS_14RandGenOptionsIT0_EEPbE5icomp",
            "__ZN5boost6system6detail17system_cat_holderIvE8instanceE",
            "__ZN3fst11SymbolTable9kNoSymbolE",
            "__ZGVZN3fst19DefaultCompactStoreINSt3__14pairIiNS_17TropicalWeightTplIfEEEEjE4TypeEvE4type",
            "__ZGVZN3fst14RandEquivalentINS_6ArcTplINS_16LatticeWeightTplIfEEEENS_18UniformArcSelectorIS4_EEEEbRKNS_3FstIT_EESB_ifRKNS_14RandGenOptionsIT0_EEPbE5ocomp",
            "__ZZN3fst19DefaultCompactStoreINSt3__14pairIiiEEjE4TypeEvE4type",
            "_ABConnectionsChangedNotification",
            "__ZZN3fst8DfsVisitINS_3FstINS_6ArcTplINS_16LatticeWeightTplIfEEEEEENS_8internal14RandGenVisitorIS5_S5_EENS_12AnyArcFilterIS5_EEEEvRKT_PT0_T1_bE9kDfsWhite",
            "__ZZN3fst14RandEquivalentINS_6ArcTplINS_23CompactLatticeWeightTplINS_16LatticeWeightTplIfEEiEEEENS_18UniformArcSelectorIS6_EEEEbRKNS_3FstIT_EESD_ifRKNS_14RandGenOptionsIT0_EEPbE5icomp",
            "__ZGVZN3fst19UnweightedCompactorINS_6ArcTplINS_17TropicalWeightTplIfEEEEE4TypeEvE4type",
            "__ZZN3fst15GenericRegisterINSt3__14pairINS1_12basic_stringIcNS1_11char_traitsIcEENS1_9allocatorIcEEEES8_EEPFvPNS_6script21FarCompileStringsArgsEENSA_24GenericOperationRegisterISE_EEE11GetRegisterEvE3reg",
            "__ZGVZN3fst6ArcTplINS_23CompactLatticeWeightTplINS_16LatticeWeightTplIfEEiEEE4TypeEvE4type",
            "__ZGVZN3fst19DefaultCompactStoreINSt3__14pairINS2_IiiEEiEEjE4TypeEvE4type",
            "__ZGVZN3fst19DefaultCompactStoreINSt3__14pairINS2_IiNS_12LogWeightTplIfEEEEiEEjE4TypeEvE4type",
            "__ZZN3fst15GenericRegisterINSt3__14pairINS1_12basic_stringIcNS1_11char_traitsIcEENS1_9allocatorIcEEEES8_EEPFvPNS_6script4args7PackageIRKNS1_6vectorIS8_NS6_IS8_EEEEiRKS8_SJ_SJ_SJ_SJ_NSB_9none_typeESK_EEENSA_24GenericOperationRegisterISO_EEE11GetRegisterEvE3reg",
            "__ZZN3fst15GenericRegisterINSt3__14pairINS1_12basic_stringIcNS1_11char_traitsIcEENS1_9allocatorIcEEEES8_EEPFvPNS_6script4args15WithReturnValueIbNSB_7PackageIRKS8_SF_fSF_SF_NSB_9none_typeESG_SG_SG_EEEEENSA_24GenericOperationRegisterISL_EEE11GetRegisterEvE3reg",
            "__ZZN3fst8DfsVisitINS_3FstINS_10ReverseArcINS_6ArcTplINS_17TropicalWeightTplIfEEEEEEEENS_10SccVisitorIS7_EENS_12AnyArcFilterIS7_EEEEvRKT_PT0_T1_bE9kDfsWhite",
            "__ZZN3fst17TropicalWeightTplIfE4TypeEvE4type",
            "__ZGVZN3fst15GenericRegisterINSt3__14pairINS1_12basic_stringIcNS1_11char_traitsIcEENS1_9allocatorIcEEEES8_EEPFvPNS_6script4args7PackageIRKNS1_6vectorIS8_NS6_IS8_EEEERKS8_SJ_KbNSB_9none_typeESL_SL_SL_SL_EEENSA_24GenericOperationRegisterISP_EEE11GetRegisterEvE3reg",
            "__ZZN3fst12LogWeightTplIdE4ZeroEvE4zero",
            "__ZZN3fst17AcceptorCompactorINS_6ArcTplINS_12LogWeightTplIfEEEEE4TypeEvE4type",
            "__ZZN3fst8DfsVisitINS_3FstINS_10ReverseArcINS_6ArcTplINS_16LatticeWeightTplIfEEEEEEEENS_15TopOrderVisitorIS7_EENS_12AnyArcFilterIS7_EEEEvRKT_PT0_T1_bE9kDfsWhite",
            "__ZGVZN3fst15GenericRegisterINSt3__112basic_stringIcNS1_11char_traitsIcEENS1_9allocatorIcEEEENS_16FstRegisterEntryINS_6ArcTplINS_12LogWeightTplIfEEEEEENS_11FstRegisterISC_EEE11GetRegisterEvE3reg",
            "__ZZN3fst8DfsVisitINS_3FstINS_10ReverseArcINS_6ArcTplINS_12LogWeightTplIdEEEEEEEENS_15TopOrderVisitorIS7_EENS_12AnyArcFilterIS7_EEEEvRKT_PT0_T1_bE9kDfsWhite",
            "__ZZN3fst8DfsVisitINS_3FstINS_6ArcTplINS_23CompactLatticeWeightTplINS_16LatticeWeightTplIfEEiEEEEEENS_15TopOrderVisitorIS7_EENS_16EpsilonArcFilterIS7_EEEEvRKT_PT0_T1_bE9kDfsWhite",
            "__ZN3fst18CompactHashBiTableIiPNS_8internal21DeterminizeStateTupleINS_10ReverseArcINS_6ArcTplINS_16LatticeWeightTplIfEEEEEENS_18IntegerFilterStateIaEEEENS_28DefaultDeterminizeStateTableIS8_SA_E13StateTupleKeyENSE_15StateTupleEqualELNS_6HSTypeE0EE11kCurrentKeyE",
            "__ZZN3fst8DfsVisitINS_3FstINS_10ReverseArcINS_6ArcTplINS_16LatticeWeightTplIfEEEEEEEENS_10SccVisitorIS7_EENS_12AnyArcFilterIS7_EEEEvRKT_PT0_T1_bE9kDfsWhite",
            "__ZGVZN3fst6ArcTplINS_16LatticeWeightTplIfEEE4TypeEvE4type",
            "__ZZN3fst8DfsVisitINS_10MutableFstINS_6ArcTplINS_23CompactLatticeWeightTplINS_16LatticeWeightTplIfEEiEEEEEENS_10SccVisitorIS7_EENS_16EpsilonArcFilterIS7_EEEEvRKT_PT0_T1_bE9kDfsWhite",
            "__ZGVZN3fst15GenericRegisterINSt3__14pairINS1_12basic_stringIcNS1_11char_traitsIcEENS1_9allocatorIcEEEES8_EEPFvPNS_6script19FarPrintStringsArgsEENSA_24GenericOperationRegisterISE_EEE11GetRegisterEvE3reg",
            "__ZZN3fst6ArcTplINS_12LogWeightTplIfEEE4TypeEvE4type",
            "__ZGVZN3fst12LogWeightTplIfE4TypeEvE4type",
            "__ZZN3fst19DefaultCompactStoreIijE4TypeEvE4type",
            "__ZZN3fst6ArcTplINS_17TropicalWeightTplIfEEE4TypeEvE4type",
            "__ZZN3fst12LogWeightTplIfE4TypeEvE4type",
            "__ZZN3fst8DfsVisitINS_3FstINS_6ArcTplINS_23CompactLatticeWeightTplINS_16LatticeWeightTplIfEEiEEEEEENS_10SccVisitorIS7_EENS_12AnyArcFilterIS7_EEEEvRKT_PT0_T1_bE9kDfsWhite",
            "__ZZN3fst12LogWeightTplIfE8NoWeightEvE9no_weight",
            "__ZZN3fst8DfsVisitINS_3FstINS_10ReverseArcINS_6ArcTplINS_17TropicalWeightTplIfEEEEEEEENS_15TopOrderVisitorIS7_EENS_12AnyArcFilterIS7_EEEEvRKT_PT0_T1_bE9kDfsWhite",
            "__ZZN3fst8DfsVisitINS_3FstINS_6ArcTplINS_17TropicalWeightTplIfEEEEEENS_20IntervalReachVisitorIS5_iNS_11IntervalSetIiNS_19VectorIntervalStoreIiEEEEEENS_12AnyArcFilterIS5_EEEEvRKT_PT0_T1_bE9kDfsWhite",
            "__ZZN3fst8DfsVisitINS_3FstINS_6ArcTplINS_16LatticeWeightTplIfEEEEEENS_15TopOrderVisitorIS5_EENS_12AnyArcFilterIS5_EEEEvRKT_PT0_T1_bE9kDfsWhite",
            "__ZTSN5kaldi24OnlineGenericBaseFeatureINS_11PlpComputerEEE",
            "__ZGVZN3fst23WeightedStringCompactorINS_6ArcTplINS_12LogWeightTplIfEEEEE4TypeEvE4type",
            "__ZGVZN3fst19DefaultCompactStoreIijE4TypeEvE4type",
            "__ZGVZN3fst15GenericRegisterINSt3__14pairINS1_12basic_stringIcNS1_11char_traitsIcEENS1_9allocatorIcEEEES8_EEPFvPNS_6script4args7PackageIRKNS1_6vectorIS8_NS6_IS8_EEEEiRKS8_SJ_SJ_SJ_SJ_NSB_9none_typeESK_EEENSA_24GenericOperationRegisterISO_EEE11GetRegisterEvE3reg",
            "__ZGVZN3fst12LogWeightTplIfE8NoWeightEvE9no_weight",
            "__ZN3fst18CompactHashBiTableIiNS_24DefaultComposeStateTupleIiNS_18TrivialFilterStateEEENS_11ComposeHashIS3_EENSt3__18equal_toIS3_EELNS_6HSTypeE1EE11kCurrentKeyE",
            "__ZZN3fst8DfsVisitINS_10MutableFstINS_6ArcTplINS_23CompactLatticeWeightTplINS_16LatticeWeightTplIfEEiEEEEEENS_15TopOrderVisitorIS7_EENS_16EpsilonArcFilterIS7_EEEEvRKT_PT0_T1_bE9kDfsWhite",
            "__ZZN3fst12LogWeightTplIfE3OneEvE3one",
            "__ZN3Ort6GlobalIvE4api_E",
            "__ZTVN5kaldi24OnlineGenericBaseFeatureINS_11PlpComputerEEE"
          ]
        },
        "text": {
          "global": [
            "__ZN5boost10filesystem6detail11permissionsERKNS0_4pathENS0_5permsEPNS_6system10error_codeE",
            "__ZN5kaldi12ParseOptions4ReadEiPKPKc",
            "__ZNK15KaldiRecognizer15GetWordSymTableEv",
            "__ZN5kaldi16GetIlabelMappingERKNSt3__16vectorINS1_IiNS0_9allocatorIiEEEENS2_IS4_EEEERKNS_26ContextDependencyInterfaceERKNS_15TransitionModelEPS4_",
            "__ZN4onnx10ModelProto9MergeFromERKS0_",
            "__ZN5boost10filesystem6detail14create_symlinkERKNS0_4pathES4_PNS_6system10error_codeE",
            "__ZN4onnx15Version_IsValidEi",
            "__ZN4onnx14ValueInfoProto9MergeFromERKS0_",
            "__ZN5kaldi11PlpComputerC1ERKS0_",
            "__ZN5boost10filesystem6detail4copyERKNS0_4pathES4_NS0_12copy_optionsEPNS_6system10error_codeE",
            "__ZN7keenasr10Recognizer16GetApplicationIdEv",
            "__ZN5kaldi5nnet315NnetComputation13SubMatrixInfo4ReadERNSt3__113basic_istreamIcNS3_11char_traitsIcEEEEb",
            "__ZN4onnx13OptionalProto25clear_sparse_tensor_valueEv",
            "__ZN5kaldi14ArpaFileParserD1Ev",
            "__ZN3fst17InverseContextFstC2EiRKNSt3__16vectorIiNS1_9allocatorIiEEEES7_ii",
            "__ZN5kaldi5nnet36NnetIo4SwapEPS1_",
            "__ZN5kaldi5nnet38IndexSetC1ERKNS0_16ComputationGraphERKNSt3__16vectorINS0_23ComputationGraphBuilder10CindexInfoENS5_9allocatorIS8_EEEEib",
            "__ZNK5ngram11NGramOutput17ShowPhiPerplexityERKN3fst10ComposeFstINS1_6ArcTplINS1_17TropicalWeightTplIfEEEENS1_17DefaultCacheStoreIS6_EEEEbiiPdPiSD_SD_",
            "__ZN3cpr7Session9SetOptionERKNS_5RangeE",
            "__ZN5boost10filesystem6detail28directory_iterator_constructERNS0_18directory_iteratorERKNS0_4pathENS0_17directory_optionsEPNS1_25directory_iterator_paramsEPNS_6system10error_codeE",
            "__ZN5kaldi34CompartmentalizedBottomUpClusterer11SetDistanceEiii",
            "__ZN5kaldi5nnet325DecodableNnetSimpleLoopedC1ERKNS0_29DecodableNnetSimpleLoopedInfoERKNS_10MatrixBaseIfEEPKNS_10VectorBaseIfEEPS7_i",
            "__ZN5kaldi5nnet326ComputationLoopedOptimizer13FindTimeShiftERKNS0_15NnetComputationE",
            "__ZN3fst8internal14DenseSymbolMapD1Ev",
            "__ZN5kaldi5nnet312NnetComputerC2ERKNS0_18NnetComputeOptionsERKNS0_15NnetComputationERKNS0_4NnetEPS8_",
            "_curl_easy_perform",
            "_val_int_n",
            "__ZN5kaldi17VectorClusterableC1ERKNS_6VectorIfEEf",
            "__ZN4onnx22StringStringEntryProto5ClearEv",
            "__ZN5kaldi17ArbitraryResample10SetWeightsERKNS_6VectorIfEE",
            "__ZN5kaldi5nnet315LinearComponent14InitFromConfigEPNS_10ConfigLineE",
            "__ZN5kaldi13GeneralMatrixaSERKNS_12SparseMatrixIfEE",
            "__ZN5boost10filesystem16filesystem_errorC2ERKNSt3__112basic_stringIcNS2_11char_traitsIcEENS2_9allocatorIcEEEENS_6system10error_codeE",
            "__ZN5boost10filesystem16filesystem_erroraSERKS1_",
            "__ZN5kaldi5nnet313TdnnComponentC1Ev",
            "__ZN5kaldi16MinimumBayesRiskC2ERKN3fst9VectorFstINS1_6ArcTplINS1_23CompactLatticeWeightTplINS1_16LatticeWeightTplIfEEiEEEENS1_11VectorStateIS8_NSt3__19allocatorIS8_EEEEEERKNSA_6vectorIiNSB_IiEEEENS_23MinimumBayesRiskOptionsE",
            "__ZN5kaldi5nnet316DropoutComponent4InitEifb",
            "__ZNK5kaldi18OnlinePitchFeature14NumFramesReadyEv",
            "__ZN5boost10filesystem6detail19symlink_status_implERKNS0_4pathEPNS_6system10error_codeE",
            "_curl_msprintf",
            "__ZN7keenasr15CheckTrialTimerEv",
            "_val_utterance",
            "__ZN5kaldi16WordBoundaryInfoC1ERKNS_23WordBoundaryInfoNewOptsE",
            "__ZN3fst10MappedFileC2ERKNS_12MemoryRegionE",
            "__ZN5kaldi5nnet323time_height_convolution22ConvolveBackwardParamsERKNS1_22ConvolutionComputationERKNS_12CuMatrixBaseIfEES8_fPS6_",
            "__ZN3cpr8CertInfo9push_backERKNSt3__112basic_stringIcNS1_11char_traitsIcEENS1_9allocatorIcEEEE",
            "__ZNK3fst11SymbolTable9WriteTextERNSt3__113basic_ostreamIcNS1_11char_traitsIcEEEERKNS_22SymbolTableTextOptionsE",
            "__ZN3fst14FstReadOptionsC2ERKNSt3__112basic_stringIcNS1_11char_traitsIcEENS1_9allocatorIcEEEEPKNS_11SymbolTableESC_",
            "__ZN5kaldi5nnet315AffineComponent4ReadERNSt3__113basic_istreamIcNS2_11char_traitsIcEEEEb",
            "__ZN5kaldi12AddSelfLoopsERKNS_15TransitionModelERKNSt3__16vectorIiNS3_9allocatorIiEEEEfbbPN3fst9VectorFstINSA_6ArcTplINSA_17TropicalWeightTplIfEEEENSA_11VectorStateISF_NS5_ISF_EEEEEE",
            "__ZN5kaldi5nnet34Nnet12GetComponentEi",
            "__ZNK5kaldi5nnet36NnetIo5WriteERNSt3__113basic_ostreamIcNS2_11char_traitsIcEEEEb",
            "__ZN4onnx16TypeProto_OpaqueD2Ev",
            "__ZNK5kaldi5nnet34Nnet5WriteERNSt3__113basic_ostreamIcNS2_11char_traitsIcEEEEb",
            "__ZN5kaldi19KaldiAssertFailure_EPKcS1_iS1_",
            "__ZN3cpr7Session9SetOptionERKNSt3__16vectorINS_7ResolveENS1_9allocatorIS3_EEEE",
            "__ZNK5kaldi17ArbitraryResample8ResampleERKNS_10MatrixBaseIfEEPS2_",
            "__ZNK5kaldi5nnet324PerElementScaleComponent9VectorizeEPNS_10VectorBaseIfEE",
            "_diphone_db_val",
            "__ZN5kaldi5nnet321OnlineNaturalGradient8SetAlphaEf",
            "__ZN7LexiconC1EPN3fst11SymbolTableES2_PNSt3__16vectorINS3_13unordered_setINS3_12basic_stringIcNS3_11char_traitsIcEENS3_9allocatorIcEEEENS3_4hashISB_EENS3_8equal_toISB_EENS9_ISB_EEEENS9_ISH_EEEERKNS3_10shared_ptrI3G2PEERKSB_",
            "_curl_multi_remove_handle",
            "__ZN5kaldi16MinimumBayesRiskC1ERKN3fst9VectorFstINS1_6ArcTplINS1_23CompactLatticeWeightTplINS1_16LatticeWeightTplIfEEiEEEENS1_11VectorStateIS8_NSt3__19allocatorIS8_EEEEEERKNSA_6vectorIiNSB_IiEEEERKNSH_INSA_4pairIffEENSB_ISN_EEEENS_23MinimumBayesRiskOptionsE",
            "__ZN4onnx13FunctionProtoD2Ev",
            "__ZN7keenasr13DecodingGraph8GetWordsERKNSt3__112basic_stringIcNS1_11char_traitsIcEENS1_9allocatorIcEEEERNS1_6vectorIS7_NS5_IS7_EEEE",
            "__ZNK5kaldi5nnet34Nnet17GetComponentNamesEv",
            "__ZN3fst10MappedFile8AllocateEmi",
            "__ZN5kaldi5nnet319MaxpoolingComponent4ReadERNSt3__113basic_istreamIcNS2_11char_traitsIcEEEEb",
            "__ZN5kaldi5nnet330TimeHeightConvolutionComponent11UnVectorizeERKNS_10VectorBaseIfEE",
            "__ZN5kaldi30LatticeIncrementalDeterminizer22GetNonFinalRedetStatesEv",
            "__ZN5kaldi13InitIdftBasesEiiPNS_6MatrixIfEE",
            "__ZN5kaldi27ConstArpaLmDeterministicFstC2ERKNS_11ConstArpaLmE",
            "_item_set_float",
            "_AEFloatConverterFromFloat",
            "__ZNK5kaldi5nnet327BackpropTruncationComponent8BackpropERKNSt3__112basic_stringIcNS2_11char_traitsIcEENS2_9allocatorIcEEEEPKNS0_27ComponentPrecomputedIndexesERKNS_12CuMatrixBaseIfEESH_SH_PvPNS0_9ComponentEPSF_",
            "_WebRtcSpl_Resample32khzTo24khz",
            "__ZN4onnx16TypeProto_Opaque5ClearEv",
            "__ZN5kaldi5nnet318CompositeComponent9ZeroStatsEv",
            "__ZN5kaldi26FilterCompressedMatrixRowsERKNS_16CompressedMatrixERKNSt3__16vectorIbNS3_9allocatorIbEEEEPNS_6MatrixIfEE",
            "__ZNK5kaldi5nnet38IndexSetclERKNS0_5IndexE",
            "__ZN4onnx17TrainingInfoProtoD2Ev",
            "__ZN3cpr7Session9SetOptionERKNS_10SslOptionsE",
            "__ZN5kaldi9Semaphore7TryWaitEv",
            "_MlasConvSymDepthwiseS8KernelNeon",
            "__ZN5kaldi16ComputeLocalCostERKNS_10VectorBaseIfEES3_RKNS_22PitchExtractionOptionsEPS1_",
            "_curl_mime_headers",
            "__ZN5boost10filesystem6detail15last_write_timeERKNS0_4pathElPNS_6system10error_codeE",
            "__ZN5kaldi5nnet324ComputationStepsComputer16ConvertToIndexesERKNSt3__16vectorINS2_4pairIiNS0_5IndexEEENS2_9allocatorIS6_EEEEPNS3_IS5_NS7_IS5_EEEE",
            "__ZN5kaldi11ExpectTokenERNSt3__113basic_istreamIcNS0_11char_traitsIcEEEEbPKc",
            "__ZN5kaldi13ReadEventTypeERNSt3__113basic_istreamIcNS0_11char_traitsIcEEEEbPNS0_6vectorINS0_4pairIiiEENS0_9allocatorIS8_EEEE",
            "__ZN5kaldi5nnet320BlockAffineComponentC2ERKS1_",
            "__ZN3fst8internal14DenseSymbolMap9NewSymbolERKNSt3__112basic_stringIcNS2_11char_traitsIcEENS2_9allocatorIcEEEE",
            "__ZN5kaldi5nnet321DerivativeTimeLimiter22MapAddRowRangesCommandEPNS0_15NnetComputation7CommandE",
            "__ZN5kaldi5nnet39Component18NewComponentOfTypeERKNSt3__112basic_stringIcNS2_11char_traitsIcEENS2_9allocatorIcEEEE",
            "__ZN5kaldi5Input6StreamEv",
            "__ZN3cpr7Session12SetMultipartEONS_9MultipartE",
            "__ZNK5kaldi5nnet325LstmNonlinearityComponent9PropagateEPKNS0_27ComponentPrecomputedIndexesERKNS_12CuMatrixBaseIfEEPS6_",
            "__ZNK5kaldi5nnet330TimeHeightConvolutionComponent13NumParametersEv",
            "__ZNK5kaldi5nnet318ComputationRequest5PrintERNSt3__113basic_ostreamIcNS2_11char_traitsIcEEEE",
            "__ZN5kaldi26OnlineNnet2FeaturePipeline18SetAdaptationStateERKNS_37OnlineIvectorExtractorAdaptationStateE",
            "__ZNK5kaldi5nnet326StatisticsPoolingComponent15GetInputIndexesERKNS0_19MiscComputationInfoERKNS0_5IndexEPNSt3__16vectorIS5_NS8_9allocatorIS5_EEEE",
            "__ZN4onnx22StringStringEntryProto8CopyFromERKS0_",
            "__ZN5kaldi5nnet329DecodableNnetLoopedOnlineBaseC2ERKNS0_29DecodableNnetSimpleLoopedInfoEPNS_22OnlineFeatureInterfaceES6_",
            "__ZN5kaldi6Output5CloseEv",
            "__ZNK4onnx16TypeProto_Opaque18_InternalSerializeEPhPN6google8protobuf2io19EpsCopyOutputStreamE",
            "__ZN5kaldi5nnet316ComputationCache4FindERKNS0_18ComputationRequestE",
            "__ZN3cpr7Session9SetOptionERKNS_11HttpVersionE",
            "_cst_sprintf",
            "__ZN5kaldi5nnet312NnetComputer17DebugAfterExecuteEiRKNS1_16CommandDebugInfoEd",
            "__ZNK4onnx9TypeProto11GetTypeNameEv",
            "__ZN7keenasr12NGramBuilder32GetAugmentationCountsFstFilenameERKNSt3__112basic_stringIcNS1_11char_traitsIcEENS1_9allocatorIcEEEE",
            "__ZN4onnx18TypeProto_SequenceC1EPN6google8protobuf5ArenaEb",
            "_WebRtcVad_set_mode_core",
            "__ZN4onnx26TensorShapeProto_DimensionC1ERKS0_",
            "__ZNK5kaldi16IvectorExtractor12GetPriorAuxfERKNS_10VectorBaseIdEEPKNS_8SpMatrixIdEE",
            "_cst_rateconv_out",
            "__ZN5kaldi5nnet339NaturalGradientPerElementScaleComponent4ReadERNSt3__113basic_istreamIcNS2_11char_traitsIcEEEEb",
            "_join_units_modified_lpc",
            "__ZNK5kaldi5nnet326SimpleForwardingDescriptor10MapToInputERKNS0_5IndexE",
            "_breakfunc_val",
            "__ZN4onnx9TypeProto25set_allocated_opaque_typeEPNS_16TypeProto_OpaqueE",
            "__ZN5kaldi5nnet316ComputationCacheD2Ev",
            "__ZN3cpr7Session9SetOptionERKNS_13WriteCallbackE",
            "_AERecorderStopRecording",
            "__ZN7keenasr10Recognizer11EstimateRTFEv",
            "__ZNK5kaldi5nnet318CompositeComponent10DotProductERKNS0_18UpdatableComponentE",
            "_phone_id",
            "__ZNK4onnx18OperatorSetIdProto12ByteSizeLongEv",
            "__ZNK5boost10filesystem4path5beginEv",
            "__Z22CreateGFstFromNGramFstPN3fst9VectorFstINS_6ArcTplINS_17TropicalWeightTplIfEEEENS_11VectorStateIS4_NSt3__19allocatorIS4_EEEEEERSA_RNS_11SymbolTableE",
            "__ZNK5kaldi23SlidingWindowCmnOptions5CheckEv",
            "__ZN3cpr7Session13DownloadAsyncERKNS_13WriteCallbackE",
            "__ZN5kaldi5nnet318CompositeComponent3AddEfRKNS0_9ComponentE",
            "__ZN3fst21CompositeWeightReader9ReadBeginEv",
            "__ZN5kaldi12ParseOptions8RegisterERKNSt3__112basic_stringIcNS1_11char_traitsIcEENS1_9allocatorIcEEEEPfS9_",
            "__ZNK5kaldi13GeneralMatrix9CopyToMatEPNS_12CuMatrixBaseIfEENS_19MatrixTransposeTypeE",
            "__ZN5kaldi5nnet316PermuteComponent4ReadERNSt3__113basic_istreamIcNS2_11char_traitsIcEEEEb",
            "__ZN7keenasr8Uploader6ResumeEv",
            "__ZN5kaldi5nnet329DecodableNnetSimpleLoopedInfo4InitERKNS0_34NnetSimpleLoopedComputationOptionsEPNS0_4NnetE",
            "__ZN5kaldi12AccCmvnStatsERKNS_10VectorBaseIfEEfPNS_10MatrixBaseIdEE",
            "__ZNK5kaldi5nnet320ComputationVariables24AppendVariablesForMatrixEiPNSt3__16vectorIiNS2_9allocatorIiEEEE",
            "__ZN5kaldi13FbankComputerC2ERKNS_12FbankOptionsE",
            "_asis_to_pm",
            "_curl_global_trace",
            "__ZNK4onnx11TensorProto11GetTypeNameEv",
            "__ZNK4onnx11TensorProto13IsInitializedEv",
            "__ZN5kaldi5nnet323time_height_convolution14PadModelHeightERKNS1_16ConvolutionModelEPS2_",
            "__ZN3fst22FactorWeightPropertiesEy",
            "__ZN5kaldi5nnet321ObjectiveFunctionInfo11UpdateStatsERKNSt3__112basic_stringIcNS2_11char_traitsIcEENS2_9allocatorIcEEEEiifff",
            "__ZN4onnx13SequenceProto19clear_tensor_valuesEv",
            "__ZN3cpr7Session17SetAcceptEncodingERKNS_14AcceptEncodingE",
            "__ZN5kaldi5nnet329DecodableNnetSimpleLoopedInfoC1ERKNS0_34NnetSimpleLoopedComputationOptionsEPNS0_12AmNnetSimpleE",
            "__ZN20KaldiNNet3RecognizerC1ERKNSt3__112basic_stringIcNS0_11char_traitsIcEENS0_9allocatorIcEEEES8_S8_S8_",
            "__ZN3cpr7Session9SetOptionERKNS_4BodyE",
            "__ZN5kaldi10WriteTokenERNSt3__113basic_ostreamIcNS0_11char_traitsIcEEEEbPKc",
            "__ZN4onnx9TypeProto8CopyFromERKS0_",
            "__ZNK5kaldi5nnet319MaxpoolingComponent23InderivPatchesToInderivERKNS_8CuMatrixIfEEPNS_12CuMatrixBaseIfEE",
            "__ZNK5kaldi5nnet323ComputationGraphBuilder17GetComputableInfoEPNSt3__16vectorINS3_IbNS2_9allocatorIbEEEENS4_IS6_EEEE",
            "_item_feats",
            "_curl_multi_socket_all",
            "_en_exp_number",
            "__ZN3fst10MappedFile6BorrowEPv",
            "__ZN3cpr7Cookies3endEv",
            "__ZN3cpr7Session9SetOptionEONS_9MultipartE",
            "__ZN5kaldi5nnet324RemoveUnnecessaryZeroingERKNS0_4NnetEPNS0_15NnetComputationE",
            "__ZNK5kaldi5nnet321NnetIoStructureHasherclERKNS0_6NnetIoE",
            "__ZNK5kaldi20OnlineIvectorFeature16ObjfImprPerFrameEv",
            "__ZNK5kaldi5nnet330OutputGruNonlinearityComponent8InputDimEv",
            "__ZN5kaldi30OnlineNnet2FeaturePipelineInfo20GetSamplingFrequencyEv",
            "_MlasConvSymU8KernelDot",
            "__ZNK5kaldi5nnet34Nnet12GetNodeIndexERKNSt3__112basic_stringIcNS2_11char_traitsIcEENS2_9allocatorIcEEEE",
            "__ZN5kaldi5nnet320ConvolutionComponentC2ERKS1_",
            "__ZN3cpr7Session12SetUserAgentERKNS_9UserAgentE",
            "__ZN5kaldi5nnet329StatisticsExtractionComponentC2ERKS1_",
            "__ZNK5kaldi5nnet318UpdatableComponent20WriteUpdatableCommonERNSt3__113basic_ostreamIcNS2_11char_traitsIcEEEEb",
            "__ZN5kaldi5nnet325ConstantFunctionComponent11UnVectorizeERKNS_10VectorBaseIfEE",
            "__ZN4onnx16TensorShapeProtoC2ERKS0_",
            "__Z20CreateCircularBufferi",
            "_cg_duration",
            "__ZN4onnx13SequenceProtoC1ERKS0_",
            "__ZN5kaldi5nnet321ApplyL2RegularizationERKNS0_4NnetEfPS1_",
            "_WebRtcSpl_ResetResample48khzTo16khz",
            "__ZN7keenasr11ASRResponseD2Ev",
            "__ZNK5kaldi5nnet319SimpleSumDescriptor12IsComputableERKNS0_5IndexERKNS0_9CindexSetEPNSt3__16vectorINS8_4pairIiS2_EENS8_9allocatorISB_EEEE",
            "__ZN7keenasr11ASRResponseC1ERS0_",
            "__ZN6google8protobuf5Arena18CreateMaybeMessageIN4onnx13TypeProto_MapEJEEEPT_PS1_DpOT0_",
            "__ZN7keenasr22PronunciationEvaluator25UpdateResultWithGopScoresERNS_9ASRResultEPKNSt3__16vectorIiNS3_9allocatorIiEEEE",
            "_val_itemfunc",
            "__ZN3fst21DeterminizePropertiesEybb",
            "__ZN3cpr5FilesC1ERKSt16initializer_listINSt3__112basic_stringIcNS2_11char_traitsIcEENS2_9allocatorIcEEEEE",
            "__ZN5kaldi5nnet320ComputationVariables23ComputeVariableToMatrixEv",
            "__ZNK3fst14FstReadOptions11DebugStringEv",
            "__ZNK5kaldi17ContextDependency14EnumeratePairsERKNSt3__16vectorIiNS1_9allocatorIiEEEEiiS7_PNS1_13unordered_setINS1_4pairIiiEENS_10PairHasherIiiEENS1_8equal_toISA_EENS3_ISA_EEEE",
            "__ZNK4onnx9TypeProto13IsInitializedEv",
            "_val_float",
            "_val_int",
            "__ZNK4onnx18OperatorSetIdProto18_InternalSerializeEPhPN6google8protobuf2io19EpsCopyOutputStreamE",
            "__ZN5kaldi5nnet313TdnnComponent18PrecomputedIndexes4ReadERNSt3__113basic_istreamIcNS3_11char_traitsIcEEEEb",
            "__ZN5boost10filesystem6detail11dir_itr_impnwEmm",
            "__ZNK5kaldi5nnet318CompositeComponent12GetComponentEi",
            "__ZNK4onnx9TypeProto12ByteSizeLongEv",
            "__ZNK5kaldi20OnlineIvectorFeature11IsLastFrameEi",
            "__ZN5kaldi34CompartmentalizedBottomUpClusterer19SetInitialDistancesEv",
            "__ZN4onnx10GraphProto8CopyFromERKS0_",
            "__ZN5kaldi5nnet325ConstantFunctionComponent3AddEfRKNS0_9ComponentE",
            "__ZN4onnx18TypeProto_Sequence21CheckTypeAndMergeFromERKN6google8protobuf11MessageLiteE",
            "__ZN5kaldi5nnet330NaturalGradientAffineComponent5ScaleEf",
            "__ZN7keenasr9WebRTCVADC2Ev",
            "__ZN5kaldi5InputC2ERKNSt3__112basic_stringIcNS1_11char_traitsIcEENS1_9allocatorIcEEEEPb",
            "__ZN5kaldi12ParseOptions5ToIntERKNSt3__112basic_stringIcNS1_11char_traitsIcEENS1_9allocatorIcEEEE",
            "__ZN7keenasr9WebRTCVADD1Ev",
            "__ZN3fst11SymbolTable8AddTableERKS0_",
            "__ZN4onnx13OptionalProtoC2ERKS0_",
            "__ZN5kaldi14SetProgramNameEPKc",
            "__ZNK7keenasr11ASRResponse13GetSdkVersionEv",
            "__ZN5kaldi16WordBoundaryInfoC1ERKNS_23WordBoundaryInfoNewOptsENSt3__112basic_stringIcNS4_11char_traitsIcEENS4_9allocatorIcEEEE",
            "__ZNK5kaldi5nnet316SigmoidComponent15RepairGradientsERKNS_12CuMatrixBaseIfEEPS3_PS1_",
            "__ZN5kaldi12ParseOptions7ToFloatERKNSt3__112basic_stringIcNS1_11char_traitsIcEENS1_9allocatorIcEEEE",
            "__ZN5kaldi5nnet313TdnnComponent14InitFromConfigEPNS_10ConfigLineE",
            "_AECBGetAvailableSpace",
            "__ZNK5kaldi5nnet329SwitchingForwardingDescriptor10MapToInputERKNS0_5IndexE",
            "__ZN5kaldi16ApplyCmvnReverseERKNS_10MatrixBaseIdEEbPNS0_IfEE",
            "__ZN5kaldi5nnet318CompositeComponent13PerturbParamsEf",
            "__ZN5kaldi5nnet325CachingOptimizingCompiler7CompileERKNS0_18ComputationRequestE",
            "__ZN5kaldi5nnet38Compiler18ComputeDerivNeededERKNSt3__16vectorINS3_IiNS2_9allocatorIiEEEENS4_IS6_EEEERKS6_PNS3_IbNS4_IbEEEE",
            "__ZN5kaldi5nnet317GeneralDescriptor10ParseScaleERKNSt3__16vectorINS2_12basic_stringIcNS2_11char_traitsIcEENS2_9allocatorIcEEEENS7_IS9_EEEEPPKS9_",
            "__ZN5kaldi5nnet318CompositeComponent25SetUnderlyingLearningRateEf",
            "__ZNK5kaldi5nnet317ConstantComponent4InfoEv",
            "__ZNK5kaldi20OnlineIvectorFeature19FrameShiftInSecondsEv",
            "__ZNK5kaldi5nnet324GruNonlinearityComponent4InfoEv",
            "__ZN5kaldi5nnet323GeneralDropoutComponent4ReadERNSt3__113basic_istreamIcNS2_11char_traitsIcEEEEb",
            "__ZN5kaldi25CompactLatticeToWordPronsERKNS_15TransitionModelERKN3fst9VectorFstINS3_6ArcTplINS3_23CompactLatticeWeightTplINS3_16LatticeWeightTplIfEEiEEEENS3_11VectorStateISA_NSt3__19allocatorISA_EEEEEEPNSC_6vectorIiNSD_IiEEEESM_SM_PNSJ_ISL_NSD_ISL_EEEESP_",
            "__ZN7keenasr10Recognizer28SaveSpeakerAdaptationProfileEv",
            "__ZNK5kaldi5nnet330OutputGruNonlinearityComponent9PropagateEPKNS0_27ComponentPrecomputedIndexesERKNS_12CuMatrixBaseIfEEPS6_",
            "__ZN4onnx16TensorShapeProto8CopyFromERKS0_",
            "__ZN5kaldi5nnet337DistributeComponentPrecomputedIndexes4ReadERNSt3__113basic_istreamIcNS2_11char_traitsIcEEEEb",
            "_default_tokentowords",
            "__ZNK5kaldi15TransitionModel5CheckEv",
            "__ZN5kaldi13TableEventMap4ReadERNSt3__113basic_istreamIcNS1_11char_traitsIcEEEEb",
            "_usenglish_init",
            "__ZN5boost10filesystem6detail12canonical_v4ERKNS0_4pathES4_PNS_6system10error_codeE",
            "__ZN3fst10MappedFileC1ERKNS_12MemoryRegionE",
            "__ZN5kaldi15TransitionModel19ComputeTuplesNotHmmERKNS_26ContextDependencyInterfaceE",
            "__ZNK5boost10filesystem15directory_entry12refresh_implEPNS_6system10error_codeE",
            "__ZN20KaldiNNet3Recognizer13StopListeningEb",
            "_val_delete_lpcres",
            "__ZNK3cpr13CurlContainerINS_4PairEE10GetContentERKNS_10CurlHolderE",
            "__ZN5kaldi5nnet324VariableMergingOptimizer14MergeVariablesEv",
            "__ZN5kaldi17ScalarClusterable3SubERKNS_11ClusterableE",
            "__ZNK5kaldi16IvectorExtractor10IvectorDimEv",
            "__ZN5kaldi13TableEventMapC2EiRKNSt3__13mapIiPNS_8EventMapENS1_4lessIiEENS1_9allocatorINS1_4pairIKiS4_EEEEEE",
            "_flite_feat_set",
            "__ZN5kaldi5nnet317UtteranceSplitterD2Ev",
            "_en_exp_roman",
            "__ZN5kaldi5nnet330TimeHeightConvolutionComponent5ScaleEf",
            "__ZN5kaldi17ScalarClusterable3AddERKNS_11ClusterableE",
            "__ZNK5kaldi5nnet330TimeHeightConvolutionComponent9PropagateEPKNS0_27ComponentPrecomputedIndexesERKNS_12CuMatrixBaseIfEEPS6_",
            "__ZNK5kaldi5nnet323ScaleAndOffsetComponent17PropagateInternalERKNS_12CuMatrixBaseIfEEPS3_",
            "__ZNK4onnx22StringStringEntryProto13IsInitializedEv",
            "__ZN5kaldi10OnlineCmvn8GetStateEiPNS_15OnlineCmvnStateE",
            "__ZN5kaldi12ParseOptions16RegisterSpecificERKNSt3__112basic_stringIcNS1_11char_traitsIcEENS1_9allocatorIcEEEES9_PdS9_b",
            "_curl_share_strerror",
            "_val_member_string",
            "__ZN5kaldi5nnet326ComputationLoopedOptimizer18GetPairToMatrixMapERNSt3__16vectorINS2_4pairIiiEENS2_9allocatorIS5_EEEEPNS2_13unordered_mapIS5_iNS_10PairHasherIiiEENS2_8equal_toIS5_EENS6_INS4_IKS5_iEEEEEE",
            "__ZNK5kaldi11ConstArpaLm15GetNgramLogprobEiRKNSt3__16vectorIiNS1_9allocatorIiEEEE",
            "__ZN4onnx18OperatorSetIdProtoC1ERKS0_",
            "_flat_prosody",
            "_val_voice",
            "__ZN5kaldi5nnet318BatchNormComponent5ScaleEf",
            "__ZN5kaldi5nnet321ComputationRenumberer22ComputeSubmatrixIsUsedEv",
            "__ZNK5kaldi5nnet316DropoutComponent9PropagateEPKNS0_27ComponentPrecomputedIndexesERKNS_12CuMatrixBaseIfEEPS6_",
            "__ZN5kaldi12ConvertStatsEiiiiPNSt3__16vectorINS0_4pairINS1_INS2_IiiEENS0_9allocatorIS3_EEEEPNS_11ClusterableEEENS4_IS9_EEEE",
            "__ZN4onnx16TypeProto_TensorD0Ev",
            "__ZN4onnx13SequenceProto26clear_sparse_tensor_valuesEv",
            "__ZN5kaldi5nnet317GeneralDescriptor5PrintERKNSt3__16vectorINS2_12basic_stringIcNS2_11char_traitsIcEENS2_9allocatorIcEEEENS7_IS9_EEEERNS2_13basic_ostreamIcS6_EE",
            "__ZN3cpr10ThreadPool5StartEm",
            "_curl_multi_wakeup",
            "__ZN7keenasr11ASRResponseC2EOS0_",
            "__ZNK5kaldi5nnet316SoftmaxComponent9PropagateEPKNS0_27ComponentPrecomputedIndexesERKNS_12CuMatrixBaseIfEEPS6_",
            "__Z9ShowUsageb",
            "__ZN5kaldi5nnet344StatisticsPoolingComponentPrecomputedIndexes4ReadERNSt3__113basic_istreamIcNS2_11char_traitsIcEEEEb",
            "__ZNK7keenasr8ASRPhone6ToJsonEv",
            "__ZNK7keenasr11ASRResponse16GetAudioFilenameEv",
            "__ZN5kaldi5nnet328RestrictedAttentionComponent4ReadERNSt3__113basic_istreamIcNS2_11char_traitsIcEEEEb",
            "_curl_url",
            "__ZN7keenasr9ASRResultaSERKS0_",
            "__ZNK5kaldi5nnet321OptionalSumDescriptor15GetScaleForNodeEi",
            "__ZN5kaldi5nnet312FixGotoLabelEPNS0_15NnetComputationE",
            "__ZN5kaldi5nnet315AffineComponent5ScaleEf",
            "__ZN5kaldi22OnlinePitchFeatureImpl8GetFrameEiPNS_10VectorBaseIfEE",
            "__ZNK3cpr6Cookie7GetNameEv",
            "__ZN3cpr7Cookies12emplace_backERKNS_6CookieE",
            "_val_delete_ffunc",
            "__ZNK4onnx11TensorProto18_InternalSerializeEPhPN6google8protobuf2io19EpsCopyOutputStreamE",
            "_cst_rateconv_leadout",
            "__ZN5kaldi18ReadBuildTreeStatsERNSt3__113basic_istreamIcNS0_11char_traitsIcEEEEbRKNS_11ClusterableEPNS0_6vectorINS0_4pairINS9_INSA_IiiEENS0_9allocatorISB_EEEEPS6_EENSC_ISG_EEEE",
            "__ZN5kaldi5nnet315NnetComputeProbC1ERKNS0_22NnetComputeProbOptionsEPNS0_4NnetE",
            "__ZNK4onnx16TypeProto_Tensor11GetTypeNameEv",
            "__ZNK5kaldi7DiagGmm17GaussianSelectionERKNS_10MatrixBaseIfEEiPNSt3__16vectorINS6_IiNS5_9allocatorIiEEEENS7_IS9_EEEE",
            "__ZN5kaldi5nnet315SetLearningRateEfPNS0_4NnetE",
            "__ZN5kaldi5nnet321ComputationRenumberer19RenumberSubmatricesEv",
            "__ZN4onnx10ModelProtoD2Ev",
            "__ZN3fst13SplitToVectorEPcPKcPNSt3__16vectorIS0_NS3_9allocatorIS0_EEEEb",
            "__ZN3cpr7Session10SetProxiesEONS_7ProxiesE",
            "__ZN5kaldi5nnet321OnlineNaturalGradient11InitDefaultEi",
            "__ZN5kaldi5nnet313TdnnComponentC1ERKS1_",
            "__ZNK5kaldi5nnet328RoundingForwardingDescriptor10MapToInputERKNS0_5IndexE",
            "__ZN5kaldi5nnet313TdnnComponent13PerturbParamsEf",
            "__ZN5boost10filesystem6detail15path_algorithms9append_v3ERNS0_4pathEPKcS6_",
            "__ZN3cpr7Session12PreparePatchEv",
            "__ZN5kaldi5nnet330TimeHeightConvolutionComponent14InitFromConfigEPNS_10ConfigLineE",
            "__ZNK5kaldi5nnet330OutputGruNonlinearityComponent13NumParametersEv",
            "__ZN5kaldi26OnlineNnet2FeaturePipeline12SetCmvnStateERKNS_15OnlineCmvnStateE",
            "__ZN7keenasr10RecognizerC1ERKNSt3__112basic_stringIcNS1_11char_traitsIcEENS1_9allocatorIcEEEE",
            "__ZNK5kaldi5nnet326StatisticsPoolingComponent17PrecomputeIndexesERKNS0_19MiscComputationInfoERKNSt3__16vectorINS0_5IndexENS5_9allocatorIS7_EEEESC_b",
            "__ZNK7keenasr9ASRResult10UpdateTextEv",
            "__ZN5kaldi16MinimumBayesRiskC1ERKN3fst9VectorFstINS1_6ArcTplINS1_23CompactLatticeWeightTplINS1_16LatticeWeightTplIfEEiEEEENS1_11VectorStateIS8_NSt3__19allocatorIS8_EEEEEENS_23MinimumBayesRiskOptionsE",
            "_ff_unregister",
            "__ZNK4onnx9NodeProto11GetTypeNameEv",
            "__ZN5kaldi21IvectorExtractorStatsC2ERKNS_16IvectorExtractorERKNS_28IvectorExtractorStatsOptionsE",
            "__ZN5kaldi15TransitionModel15InitializeProbsEv",
            "__ZN5kaldi5nnet330OutputGruNonlinearityComponent5ScaleEf",
            "__ZN5kaldi26OnlineNnet2FeaturePipelineC2ERKNS_30OnlineNnet2FeaturePipelineInfoE",
            "_default_textanalysis",
            "__ZN4onnx14AttributeProto9_Internal13sparse_tensorEPKS0_",
            "__ZN4onnx19TensorProto_Segment9MergeFromERKS0_",
            "__ZNK5kaldi5nnet325ConstantFunctionComponent5WriteERNSt3__113basic_ostreamIcNS2_11char_traitsIcEEEEb",
            "__ZN5kaldi10OnlineCmvn6FreezeEi",
            "__ZN5kaldi5nnet321FreezeNaturalGradientEbPNS0_4NnetE",
            "_curl_easy_getinfo",
            "__ZN5kaldi18OnlinePitchFeatureD2Ev",
            "_cg_state_place",
            "__ZN7keenasr22PronunciationEvaluator28CreatePronunciationEvaluatorEPN5kaldi15TransitionModelERKNSt3__112basic_stringIcNS4_11char_traitsIcEENS4_9allocatorIcEEEE",
            "__ZNK4onnx13SequenceProto18_InternalSerializeEPhPN6google8protobuf2io19EpsCopyOutputStreamE",
            "__ZN5kaldi18OnlinePitchFeatureD0Ev",
            "_WebRtcVad_CalcVad48khz",
            "__ZN5boost10filesystem6detail15path_algorithms7stem_v4ERKNS0_4pathE",
            "__ZN5kaldi5nnet330OutputGruNonlinearityComponent11UnVectorizeERKNS_10VectorBaseIfEE",
            "__ZN3cpr5FilesaSERKS0_",
            "__ZN5kaldi17LatticeStateTimesERKN3fst9VectorFstINS0_6ArcTplINS0_16LatticeWeightTplIfEEEENS0_11VectorStateIS5_NSt3__19allocatorIS5_EEEEEEPNS7_6vectorIiNS8_IiEEEE",
            "__ZNK5kaldi5nnet312AmNnetSimple7NumPdfsEv",
            "__ZN4onnx16TensorAnnotationC2ERKS0_",
            "__ZN7keenasr6Device8FromJsonERKNSt3__112basic_stringIcNS1_11char_traitsIcEENS1_9allocatorIcEEEE",
            "_item_set_string",
            "__ZN3cpr10CurlHolderD1Ev",
            "__ZN5kaldi5nnet316ComputationCache6InsertERKNS0_18ComputationRequestEPKNS0_15NnetComputationE",
            "__ZN5kaldi15SplitStatsByMapERKNSt3__16vectorINS0_4pairINS1_INS2_IiiEENS0_9allocatorIS3_EEEEPNS_11ClusterableEEENS4_IS9_EEEERKNS_8EventMapEPNS1_ISB_NS4_ISB_EEEE",
            "__ZN5boost10filesystem6detail15path_algorithms26append_separator_if_neededERNS0_4pathE",
            "__Z20InsertUnkFstIfNeededRKNSt3__112basic_stringIcNS_11char_traitsIcEENS_9allocatorIcEEEEPN3fst11SymbolTableERNS8_9VectorFstINS8_6ArcTplINS8_17TropicalWeightTplIfEEEENS8_11VectorStateISF_NS3_ISF_EEEEEE",
            "__ZNK5kaldi5nnet323GeneralDropoutComponent4InfoEv",
            "__ZNK4onnx11TensorProto13SetCachedSizeEi",
            "__ZN3cpr7ProxiesC2ERKSt16initializer_listINSt3__14pairIKNS2_12basic_stringIcNS2_11char_traitsIcEENS2_9allocatorIcEEEES9_EEE",
            "__ZN5kaldi5nnet324EnsureContiguousPropertyERKNSt3__16vectorIiNS1_9allocatorIiEEEEPNS2_IS5_NS3_IS5_EEEE",
            "__ZN5kaldi5nnet330TimeHeightConvolutionComponentC2ERKS1_",
            "__ZN3cpr7Session9SetOptionERKNS_9VerifySslE",
            "__ZN5kaldi5nnet327ComponentPrecomputedIndexes36NewComponentPrecomputedIndexesOfTypeERKNSt3__112basic_stringIcNS2_11char_traitsIcEENS2_9allocatorIcEEEE",
            "__ZN7keenasr11SymbolTable12SafeReadTextERKNSt3__112basic_stringIcNS1_11char_traitsIcEENS1_9allocatorIcEEEE",
            "__ZN5boost10filesystem6detail15system_completeERKNS0_4pathEPNS_6system10error_codeE",
            "__ZN3cpr7Session15PrepareDownloadERKNS_13WriteCallbackE",
            "__ZN5kaldi5nnet323ScaleAndOffsetComponent5ScaleEf",
            "__ZNK5kaldi5nnet321OptionalSumDescriptor19GetNodeDependenciesEPNSt3__16vectorIiNS2_9allocatorIiEEEE",
            "__ZN5kaldi5nnet321ComputeMatrixAccessesERKNS0_4NnetERKNS0_15NnetComputationERKNS0_20ComputationVariablesERKNSt3__16vectorINS0_17CommandAttributesENSA_9allocatorISC_EEEEPNSB_INS0_14MatrixAccessesENSD_ISI_EEEE",
            "__ZN5kaldi18ClassifyRspecifierERKNSt3__112basic_stringIcNS0_11char_traitsIcEENS0_9allocatorIcEEEEPS6_PNS_17RspecifierOptionsE",
            "__ZN3cpr10ThreadPoolD1Ev",
            "__ZN5kaldi17BottomUpClusterer8RenumberEv",
            "__ZN5kaldi15PosteriorHolder4ReadERNSt3__113basic_istreamIcNS1_11char_traitsIcEEEE",
            "__ZN3cpr7Session9SetOptionERKNS_16ProgressCallbackE",
            "__ZN16G2PPhonetisaurusC2ERKNSt3__112basic_stringIcNS0_11char_traitsIcEENS0_9allocatorIcEEEES8_",
            "__ZN5kaldi16MinimumBayesRisk9RemoveEpsEPNSt3__16vectorIiNS1_9allocatorIiEEEE",
            "__ZN5kaldi5nnet321OnlineNaturalGradientaSERKS1_",
            "_val_dur_stats",
            "__ZN5kaldi5nnet315LinearComponent5ScaleEf",
            "_add_residual",
            "_relation_prepend",
            "__ZN5kaldi30OnlineNnet2FeaturePipelineInfoC2ERKNS_32OnlineNnet2FeaturePipelineConfigE",
            "__ZNK5kaldi30LatticeIncrementalDeterminizer24IdentifyTokenFinalStatesERKN3fst9VectorFstINS1_6ArcTplINS1_23CompactLatticeWeightTplINS1_16LatticeWeightTplIfEEiEEEENS1_11VectorStateIS8_NSt3__19allocatorIS8_EEEEEEPNSA_13unordered_mapIiiNSA_4hashIiEENSA_8equal_toIiEENSB_INSA_4pairIKiiEEEEEE",
            "__ZN5kaldi5nnet316ComputationGraph11GetCindexIdERKNSt3__14pairIiNS0_5IndexEEEbPb",
            "_zf_log_set_mem_width",
            "__ZN5kaldi15ReadKaldiObjectINS_6MatrixIdEEEEvRKNSt3__112basic_stringIcNS3_11char_traitsIcEENS3_9allocatorIcEEEEPT_",
            "__ZNK5kaldi5nnet329SwitchingForwardingDescriptor19GetNodeDependenciesEPNSt3__16vectorIiNS2_9allocatorIiEEEE",
            "__ZN5kaldi15TransitionModel5PrintERNSt3__113basic_ostreamIcNS1_11char_traitsIcEEEERKNS1_6vectorINS1_12basic_stringIcS4_NS1_9allocatorIcEEEENS9_ISB_EEEEPKNS_6VectorIdEE",
            "__ZN5kaldi12Lpc2CepstrumEiPKfPf",
            "__ZN5kaldi5nnet316RoundUpNumFramesEiPiS1_",
            "__ZN3G2P9CreateG2PERKNSt3__112basic_stringIcNS0_11char_traitsIcEENS0_9allocatorIcEEEES8_",
            "__ZN5kaldi5nnet314AppendCindexesEiRKNSt3__16vectorINS0_5IndexENS1_9allocatorIS3_EEEEPNS2_INS1_4pairIiS3_EENS4_ISA_EEEE",
            "__ZNK5kaldi5nnet337DistributeComponentPrecomputedIndexes5WriteERNSt3__113basic_ostreamIcNS2_11char_traitsIcEEEEb",
            "__ZN4onnx13FunctionProto9MergeFromERKS0_",
            "__ZN3cpr7Session14PrepareOptionsEv",
            "__ZN5kaldi5nnet328SpecAugmentTimeMaskComponentC2ERKS1_",
            "__ZNK5kaldi5nnet319ExampleMergingStats19PrintAggregateStatsEv",
            "_cst_wave_load_riff_fd",
            "__ZN5kaldi5nnet324GruNonlinearityComponent21FreezeNaturalGradientEb",
            "__ZN5kaldi7SumObjfERKNSt3__16vectorINS0_4pairINS1_INS2_IiiEENS0_9allocatorIS3_EEEEPNS_11ClusterableEEENS4_IS9_EEEE",
            "_us_tokentowords",
            "__ZNK5kaldi5nnet320DropoutMaskComponent4InfoEv",
            "__ZN3fst8internal15SymbolTableImpl12RemoveSymbolEx",
            "__ZN5kaldi5nnet324PerElementScaleComponent12UpdateSimpleERKNS_12CuMatrixBaseIfEES5_",
            "__ZN3cpr10ThreadPoolC2EmmNSt3__16chrono8durationIxNS1_5ratioILl1ELl1000EEEEE",
            "__ZNK5kaldi13GeneralMatrix5WriteERNSt3__113basic_ostreamIcNS1_11char_traitsIcEEEEb",
            "__ZN5kaldi23AccumulateTreeStatsInfoC1ERKNS_26AccumulateTreeStatsOptionsE",
            "__ZN5kaldi5nnet313ExampleMerger6FinishEv",
            "__ZNK7keenasr11ASRResponse12SaveJsonFileERKNSt3__112basic_stringIcNS1_11char_traitsIcEENS1_9allocatorIcEEEE",
            "__ZN3cpr8CertInfoixERKm",
            "__ZN5kaldi5nnet323ComputationGraphBuilder9AddInputsEv",
            "__ZNK5kaldi5nnet34Nnet15GetAsConfigLineEib",
            "__ZNK5kaldi5nnet326OffsetForwardingDescriptor19GetNodeDependenciesEPNSt3__16vectorIiNS2_9allocatorIiEEEE",
            "__ZNK5kaldi5nnet320ComputationVariables27AppendVariablesForSubmatrixEiPNSt3__16vectorIiNS2_9allocatorIiEEEE",
            "__ZN5kaldi5nnet312AmNnetSimple9SetPriorsERKNS_10VectorBaseIfEE",
            "__ZN5kaldi5nnet314RowOpsSplitter12SplitCommandEi",
            "__ZN3cpr7Session9SetBearerERKNS_6BearerE",
            "__ZNK5kaldi5nnet310Descriptor7ModulusEv",
            "__ZN5kaldi5nnet315NnetComputeProb14ProcessOutputsERKNS0_11NnetExampleEPNS0_12NnetComputerE",
            "__ZNK5kaldi5nnet324ComputationStepsComputer18ConvertToLocationsERKNSt3__16vectorIiNS2_9allocatorIiEEEEPNS3_INS2_4pairIiiEENS4_ISA_EEEE",
            "__ZNK5kaldi5nnet317ConstantComponent5WriteERNSt3__113basic_ostreamIcNS2_11char_traitsIcEEEEb",
            "__ZN4onnx22TypeProto_SparseTensorD0Ev",
            "__ZN5kaldi5nnet317ConstantComponent5ScaleEf",
            "_cst_atof",
            "__ZNK5kaldi20OnlineIvectorFeature3DimEv",
            "__ZN4onnx11TensorProtoC2EPN6google8protobuf5ArenaEb",
            "__ZN4onnx9TypeProto9_Internal13sequence_typeEPKS0_",
            "__ZNK5kaldi27OnlineIvectorExtractionInfo5CheckEv",
            "_WebRtcSpl_Resample48khzTo32khz",
            "__ZN5boost10filesystem6detail15path_algorithms19find_root_directoryERKNS0_4pathE",
            "_curl_slist_free_all",
            "__ZNK5kaldi5nnet326OffsetForwardingDescriptor4CopyEv",
            "__ZN5kaldi5nnet313TdnnComponent21FreezeNaturalGradientEb",
            "__ZN5kaldi6OutputC2ERKNSt3__112basic_stringIcNS1_11char_traitsIcEENS1_9allocatorIcEEEEbb",
            "__ZN4onnx22StringStringEntryProtoD1Ev",
            "__ZN5kaldi5nnet321OnlineNaturalGradient30PreconditionDirectionsInternalEffbRKNS_6VectorIfEEPNS_12CuMatrixBaseIfEES8_",
            "__ZN7keenasr13DecodingGraph46GetHCLFilepathForContextualDecodingGraphAtPathERKNSt3__112basic_stringIcNS1_11char_traitsIcEENS1_9allocatorIcEEEE",
            "__ZNK5kaldi5nnet319BinarySumDescriptor7ModulusEv",
            "__ZN5kaldi18EventMapVectorHashclERKNSt3__16vectorINS1_4pairIiiEENS1_9allocatorIS4_EEEE",
            "__ZN5kaldi5nnet325CachingOptimizingCompiler17CompileNoShortcutERKNS0_18ComputationRequestE",
            "_set_charclasses",
            "__ZN3cpr7Session9SetOptionERKNS_12ReadCallbackE",
            "__ZN5kaldi25ParseMatrixRangeSpecifierERKNSt3__112basic_stringIcNS0_11char_traitsIcEENS0_9allocatorIcEEEEiiPNS0_6vectorIiNS4_IiEEEESC_",
            "__ZNK5kaldi5nnet329DecodableNnetLoopedOnlineBase14NumFramesReadyEv",
            "__ZN5kaldi5nnet312NnetComputerC2ERKS1_",
            "__ZN7keenasr13DecodingGraph25IsCompatibleWithASRBundleERKNSt3__112basic_stringIcNS1_11char_traitsIcEENS1_9allocatorIcEEEES9_",
            "__ZN3cpr7Session11DeleteAsyncEv",
            "__ZN4onnx16TensorAnnotationC1EPN6google8protobuf5ArenaEb",
            "__ZNK20KaldiNNet3Recognizer19FrameShiftInSecondsEv",
            "__ZNK3cpr6Cookie8GetValueEv",
            "__ZNK5kaldi7DiagGmm14LogLikelihoodsERKNS_10VectorBaseIfEEPNS_6VectorIfEE",
            "_val_cdr",
            "__ZN5ngram18NGramWriteContextsERKNSt3__112basic_stringIcNS0_11char_traitsIcEENS0_9allocatorIcEEEERKNS0_6vectorIS6_NS4_IS6_EEEE",
            "__ZN4onnx14ValueInfoProtoD0Ev",
            "__ZN5kaldi14ArpaFileParserC2ERKNS_16ArpaParseOptionsEPN3fst11SymbolTableE",
            "__ZNK5kaldi5nnet325DecodableNnetSimpleLooped13GetIvectorDimEv",
            "__ZNK5kaldi30OnlineNnet2FeaturePipelineInfo19FrameShiftInSecondsEv",
            "__ZN7keenasr10Recognizer6RunnerEv",
            "_cg_state_rindex",
            "_curl_global_init_mem",
            "_WebRtcSpl_Resample44khzTo32khz",
            "__ZN7keenasr10RecognizerC2ERKNSt3__112basic_stringIcNS1_11char_traitsIcEENS1_9allocatorIcEEEE",
            "__ZN3cpr7Session13DownloadAsyncERNSt3__114basic_ofstreamIcNS1_11char_traitsIcEEEE",
            "__ZNK5kaldi5nnet313TdnnComponent5CheckEv",
            "__ZN5kaldi21IvectorExtractorStats25IvectorVarianceDiagnosticERKNS_16IvectorExtractorE",
            "_en_exp_digits",
            "__ZN3cpr7Session4PostEv",
            "__ZN4onnx17SparseTensorProto8CopyFromERKS0_",
            "__ZN5kaldi18OnlineCacheFeature8GetFrameEiPNS_10VectorBaseIfEE",
            "__ZN3cpr7Session9HeadAsyncEv",
            "__ZN5kaldi22OnlineSilenceWeighting19GetNonsilenceFramesEiiPNSt3__16vectorIiNS1_9allocatorIiEEEE",
            "__ZN3fst10MappedFile3MapEPNSt3__113basic_istreamIcNS1_11char_traitsIcEEEEbRKNS1_12basic_stringIcS4_NS1_9allocatorIcEEEEm",
            "__ZN5kaldi18LatticeWordAligner16ComputationState19OutputNormalWordArcERKNS_16WordBoundaryInfoERKNS_15TransitionModelEPN3fst6ArcTplINS8_23CompactLatticeWeightTplINS8_16LatticeWeightTplIfEEiEEEEPb",
            "__ZNK5kaldi16CompressedMatrix5WriteERNSt3__113basic_ostreamIcNS1_11char_traitsIcEEEEb",
            "__ZN3cpr21EncodedAuthenticationD1Ev",
            "__ZN4onnx18TypeProto_OptionalD2Ev",
            "__ZNK5boost10filesystem4path3endEv",
            "__ZNK5kaldi5nnet319FixedScaleComponent9PropagateEPKNS0_27ComponentPrecomputedIndexesERKNS_12CuMatrixBaseIfEEPS6_",
            "__ZNK3cpr10CurlHolder9urlEncodeERKNSt3__112basic_stringIcNS1_11char_traitsIcEENS1_9allocatorIcEEEE",
            "__ZNK5kaldi5nnet325LstmNonlinearityComponent5WriteERNSt3__113basic_ostreamIcNS2_11char_traitsIcEEEEb",
            "__ZN3fst21CompositeWeightWriter10WriteBeginEv",
            "__ZNK5kaldi13GeneralMatrix8AddToMatEfPNS_10MatrixBaseIfEENS_19MatrixTransposeTypeE",
            "__ZN5kaldi5nnet311NnetTrainer23TrainInternalBackstitchERKNS0_11NnetExampleERKNS0_15NnetComputationEb",
            "__ZN4onnx16TypeProto_Opaque14_InternalParseEPKcPN6google8protobuf8internal12ParseContextE",
            "__ZNK5kaldi5nnet316DropoutComponent5WriteERNSt3__113basic_ostreamIcNS2_11char_traitsIcEEEEb",
            "__ZN4onnx13OptionalProto12InternalSwapEPS0_",
            "_utt_relation_present",
            "__ZN7keenasr24KeenASRLogLevelToZFLevelENS_8LogLevelE",
            "__ZN7Lexicon11ParsePhonesERKNSt3__112basic_stringIcNS0_11char_traitsIcEENS0_9allocatorIcEEEEcRNS0_6vectorIS6_NS4_IS6_EEEE",
            "__ZN5kaldi5nnet328SpecAugmentTimeMaskComponentC2Ev",
            "__ZN5kaldi28OnlineIvectorEstimationStats4ReadERNSt3__113basic_istreamIcNS1_11char_traitsIcEEEEb",
            "__ZNK5kaldi5nnet320FixedAffineComponent5WriteERNSt3__113basic_ostreamIcNS2_11char_traitsIcEEEEb",
            "__ZN5kaldi9TraceSpSpERKNS_8SpMatrixIfEES3_",
            "__ZN5kaldi5nnet319MaxpoolingComponentC1ERKS1_",
            "__ZN3cpr7Session9SetOptionERKNS_7TimeoutE",
            "__ZN5kaldi5nnet311NnetExample4ReadERNSt3__113basic_istreamIcNS2_11char_traitsIcEEEEb",
            "__ZNK5kaldi5nnet38Compiler34CompileBackwardFromSubmatLocationsEifRKNSt3__16vectorINS2_4pairIiiEENS2_9allocatorIS5_EEEEPNS0_15NnetComputationE",
            "__ZN5kaldi21IvectorExtractorStatsC1ERKNS_16IvectorExtractorERKNS_28IvectorExtractorStatsOptionsE",
            "__ZNK5kaldi5nnet323time_height_convolution16ConvolutionModel4InfoEv",
            "_cst_track_resize",
            "__ZNK5kaldi20OnlineIvectorFeature18UbmLogLikePerFrameEv",
            "__ZN5kaldi5nnet311RemoveNoOpsEPNS0_15NnetComputationE",
            "__ZN4onnx22TypeProto_SparseTensorC2EPN6google8protobuf5ArenaEb",
            "__ZN5kaldi5nnet310Descriptor5ParseERKNSt3__16vectorINS2_12basic_stringIcNS2_11char_traitsIcEENS2_9allocatorIcEEEENS7_IS9_EEEEPPKS9_",
            "__ZNK5kaldi5nnet320ConvolutionComponent10DotProductERKNS0_18UpdatableComponentE",
            "__ZN3cpr7Session10SetProxiesERKNS_7ProxiesE",
            "__ZNK4onnx18OperatorSetIdProto11GetTypeNameEv",
            "_delete_voice",
            "__ZN5kaldi5nnet325CachingOptimizingCompilerD1Ev",
            "__ZN5kaldi5nnet323ComputationGraphBuilderC1ERKNS0_4NnetEPNS0_16ComputationGraphE",
            "__ZN5kaldi5nnet324ComputationStepsComputer7AddStepERKNSt3__16vectorINS2_4pairIiNS0_5IndexEEENS2_9allocatorIS6_EEEEb",
            "__ZN5kaldi5nnet318SetDropoutTestModeEbPNS0_4NnetE",
            "__ZN5kaldi5nnet318PrintGraphToStringERKNSt3__16vectorINS2_IiNS1_9allocatorIiEEEENS3_IS5_EEEE",
            "__ZN5kaldi5nnet35Index4ReadERNSt3__113basic_istreamIcNS2_11char_traitsIcEEEEb",
            "__ZN5kaldi5nnet320ConvolutionComponent9SetParamsERKNS_10VectorBaseIfEERKNS_10MatrixBaseIfEE",
            "_AEAudioBufferListSilence",
            "__ZN7keenasr10Recognizer13StopListeningEv",
            "_AEMessageQueueSendMessageToMainThread",
            "__ZN5kaldi5nnet312NnetComputer3RunEv",
            "__ZN5kaldi26StringsApproxEqualInternalEPKcS1_ii",
            "__ZN5kaldi9SemaphoreC1Ei",
            "__ZNK5kaldi5nnet324GruNonlinearityComponent10DotProductERKNS0_18UpdatableComponentE",
            "__ZN5kaldi10WriteTokenERNSt3__113basic_ostreamIcNS0_11char_traitsIcEEEEbRKNS0_12basic_stringIcS3_NS0_9allocatorIcEEEE",
            "__ZNK5kaldi5nnet332ReplaceIndexForwardingDescriptor11WriteConfigERNSt3__113basic_ostreamIcNS2_11char_traitsIcEEEERKNS2_6vectorINS2_12basic_stringIcS5_NS2_9allocatorIcEEEENSA_ISC_EEEE",
            "__ZN5kaldi5nnet327BackpropTruncationComponent5ScaleEf",
            "__ZN5kaldi5nnet313TdnnComponent3AddEfRKNS0_9ComponentE",
            "_flite_synth_phones",
            "__ZN5kaldi5nnet324VariableMergingOptimizerC2ERKNS0_19NnetOptimizeOptionsERKNS0_4NnetEPNS0_15NnetComputationE",
            "__ZN7keenasr12NGramBuilder27CreateCorpusFileFromPhrasesERKNSt3__16vectorINS1_12basic_stringIcNS1_11char_traitsIcEENS1_9allocatorIcEEEENS6_IS8_EEEEiRKS8_",
            "__ZNK5ngram11NGramOutput9InContextEi",
            "__ZN3cpr10CurlHolderC2Ev",
            "__ZN3cpr7Session10SetCookiesERKNS_7CookiesE",
            "__ZN5kaldi5nnet34Nnet29ProcessDimRangeNodeConfigLineEiPNS_10ConfigLineE",
            "__ZN5kaldi16MinimumBayesRisk8AccStatsEv",
            "_OrtSessionOptionsAppendExecutionProvider_CPU",
            "_sts_list_val",
            "__ZNK5kaldi5nnet328RestrictedAttentionComponent17PrecomputeIndexesERKNS0_19MiscComputationInfoERKNSt3__16vectorINS0_5IndexENS5_9allocatorIS7_EEEESC_b",
            "__ZNK5kaldi7FullGmm19ComponentPosteriorsERKNS_10VectorBaseIfEEPS2_",
            "__ZN3fst22ShortestPathPropertiesEyb",
            "__ZN5kaldi5nnet322ReduceRankOfComponentsENSt3__112basic_stringIcNS1_11char_traitsIcEENS1_9allocatorIcEEEEiPNS0_4NnetE",
            "__ZNK5kaldi10ConfigLine15HasUnusedValuesEv",
            "__ZNK5kaldi5nnet323time_height_convolution16ConvolutionModeleqERKS2_",
            "__ZN5kaldi5nnet327ElementwiseProductComponent4ReadERNSt3__113basic_istreamIcNS2_11char_traitsIcEEEEb",
            "__ZN4onnx16TypeProto_Tensor8CopyFromERKS0_",
            "__ZNK5kaldi5nnet38Compiler37CompileForwardFromSubmatLocationsListEifRKNSt3__16vectorINS3_INS2_4pairIiiEENS2_9allocatorIS5_EEEENS6_IS8_EEEEPNS0_15NnetComputationE",
            "__ZNK5kaldi5nnet329SwitchingForwardingDescriptor11WriteConfigERNSt3__113basic_ostreamIcNS2_11char_traitsIcEEEERKNS2_6vectorINS2_12basic_stringIcS5_NS2_9allocatorIcEEEENSA_ISC_EEEE",
            "__ZN3cpr7Session19makeDownloadRequestEv",
            "__ZN5kaldi5nnet38Compiler23ComputeStepDependenciesERKNSt3__16vectorIiNS2_9allocatorIiEEEEiPNS2_13unordered_setIiNS2_4hashIiEENS2_8equal_toIiEES5_EE",
            "__ZN16G2PPhonetisaurusC1ERKNSt3__112basic_stringIcNS0_11char_traitsIcEENS0_9allocatorIcEEEES8_",
            "__ZN5kaldi5nnet34Nnet11SetNodeNameEiRKNSt3__112basic_stringIcNS2_11char_traitsIcEENS2_9allocatorIcEEEE",
            "_relation_append",
            "_flite_voice_add_lex_addenda",
            "__ZN3cpr7Session9SetOptionERKNS_8LowSpeedE",
            "_cst_wave_save_riff_fd",
            "__ZN4onnx14ValueInfoProto9_Internal4typeEPKS0_",
            "__ZN5kaldi18ConstArpaLmBuilder15HeaderAvailableEv",
            "__ZN5kaldi5nnet34Nnet4ReadERNSt3__113basic_istreamIcNS2_11char_traitsIcEEEEb",
            "__ZN5boost10filesystem6detail18utf8_codecvt_facetD1Ev",
            "__ZN5kaldi20OnlineIvectorFeature20UpdateStatsForFramesERKNSt3__16vectorINS1_4pairIifEENS1_9allocatorIS4_EEEE",
            "__ZN5kaldi16CompressedMatrixaSERKS0_",
            "__ZNK5kaldi21IvectorExtractorStats6UpdateERKNS_33IvectorExtractorEstimationOptionsEPNS_16IvectorExtractorE",
            "__ZN5kaldi5nnet312NnetComputer16CheckNoPendingIoEv",
            "__ZN5kaldi5nnet321OnlineNaturalGradient20SetNumSamplesHistoryEf",
            "__ZN20KaldiNNet3Recognizer6DecodeEfPfi",
            "_in_lex",
            "__ZNK5kaldi5nnet315NnetComputation17GetCommandStringsERKNS0_4NnetEPNSt3__112basic_stringIcNS5_11char_traitsIcEENS5_9allocatorIcEEEEPNS5_6vectorISB_NS9_ISB_EEEE",
            "_MlasGemmU8X8KernelUdot",
            "__ZN7keenasr13DecodingGraph29PrepareDecodingGraphDirectoryERKNSt3__112basic_stringIcNS1_11char_traitsIcEENS1_9allocatorIcEEEE",
            "_delete_val_list",
            "_item_unref_contents",
            "__ZNK5kaldi5nnet325ConstantFunctionComponent9VectorizeEPNS_10VectorBaseIfEE",
            "__ZN5kaldi10OnlineCmvnD1Ev",
            "__ZN5kaldi5nnet317ConstantComponentC2ERKS1_",
            "_ts_get_quoted_token",
            "__ZN3fst10Int64ToStrExPNSt3__112basic_stringIcNS0_11char_traitsIcEENS0_9allocatorIcEEEE",
            "_delete_relation",
            "__ZNK15KaldiRecognizer32GetPartialKaldiResultFromLatticeERKN3fst9VectorFstINS0_6ArcTplINS0_16LatticeWeightTplIfEEEENS0_11VectorStateIS5_NSt3__19allocatorIS5_EEEEEE",
            "__ZN4onnx22TypeProto_SparseTensorD1Ev",
            "__ZNK5kaldi5nnet320BlockAffineComponent4CopyEv",
            "_WebRtcVad_Free",
            "_flite_feat_remove",
            "__ZNK5kaldi5nnet34Nnet12GetComponentEi",
            "__ZN4onnx9TypeProto9_Internal13optional_typeEPKS0_",
            "__ZNK5kaldi5nnet326StatisticsPoolingComponent12IsComputableERKNS0_19MiscComputationInfoERKNS0_5IndexERKNS0_8IndexSetEPNSt3__16vectorIS5_NSB_9allocatorIS5_EEEE",
            "__ZN5kaldi5nnet323time_height_convolution15ConvolveForwardERKNS1_22ConvolutionComputationERKNS_12CuMatrixBaseIfEES8_PS6_",
            "__ZN7keenasr20GetCurrentTimeStringEv",
            "_zf_log_out_stderr_callback",
            "__ZN5kaldi11HmmTopology4ReadERNSt3__113basic_istreamIcNS1_11char_traitsIcEEEEb",
            "__ZN5kaldi5nnet320ConvolutionComponent6UpdateERKNSt3__112basic_stringIcNS2_11char_traitsIcEENS2_9allocatorIcEEEERKNS_12CuMatrixBaseIfEESE_RKNS2_6vectorIPNS_11CuSubMatrixIfEENS6_ISI_EEEE",
            "__ZNK5kaldi11ConstArpaLm15DecodeChildInfoEiPiPS1_Pf",
            "__ZN3rtc18webrtc_checks_impl22UnreachableCodeReachedEPKci",
            "__ZN7keenasr10Recognizer21StopListeningInternalEb",
            "_WebRtcVad_FindMinimum",
            "__ZNK5kaldi5nnet39Component12IsComputableERKNS0_19MiscComputationInfoERKNS0_5IndexERKNS0_8IndexSetEPNSt3__16vectorIS5_NSB_9allocatorIS5_EEEE",
            "__ZN4onnx17TrainingInfoProtoD0Ev",
            "__ZN5kaldi5nnet317ConstantComponentC1ERKS1_",
            "__ZN5boost10filesystem6detail8dot_pathEv",
            "__ZN7Lexicon16AddPronunciationERKN7keenasr24AlternativePronunciationE",
            "__ZN3fst14FstReadOptionsC1ERKNSt3__112basic_stringIcNS1_11char_traitsIcEENS1_9allocatorIcEEEEPKNS_11SymbolTableESC_",
            "__Z20CreateFstFromLexiconRKN3fst11SymbolTableERKNSt3__14listI12LexiconEntryNS3_9allocatorIS5_EEEERNS_9VectorFstINS_6ArcTplINS_17TropicalWeightTplIfEEEENS_11VectorStateISF_NS6_ISF_EEEEEERS0_RfRNS3_12basic_stringIcNS3_11char_traitsIcEENS6_IcEEEESS_",
            "__ZN6google8protobuf5Arena18CreateMaybeMessageIN4onnx13OptionalProtoEJEEEPT_PS1_DpOT0_",
            "__ZNK5kaldi5nnet312AmNnetSimple5WriteERNSt3__113basic_ostreamIcNS2_11char_traitsIcEEEEb",
            "__ZNK5kaldi5nnet317SumGroupComponent5WriteERNSt3__113basic_ostreamIcNS2_11char_traitsIcEEEEb",
            "__Z26WriteCircularBufferSamplesP14CircularBufferPKsi",
            "_AEAudioStreamBasicDescriptionMake",
            "_flite_get_param_string",
            "__ZN5kaldi6OutputD2Ev",
            "__ZN3cpr14AcceptEncodingC1ERKSt16initializer_listINSt3__112basic_stringIcNS2_11char_traitsIcEENS2_9allocatorIcEEEEE",
            "__ZN4onnx19TensorProto_SegmentD1Ev",
            "__ZN7keenasr8Uploader24GetRemoveDataAfterUploadEv",
            "__ZNK5kaldi5nnet345BackpropTruncationComponentPrecomputedIndexes5WriteERNSt3__113basic_ostreamIcNS2_11char_traitsIcEEEEb",
            "__ZN7keenasr9ASRResult7AddWordERKNS_7ASRWordE",
            "__ZN5kaldi5nnet315IoSpecificationC1ERKNSt3__112basic_stringIcNS2_11char_traitsIcEENS2_9allocatorIcEEEEii",
            "__ZN5kaldi5nnet321DerivativeTimeLimiter17MapIndexesCommandEPNS0_15NnetComputation7CommandE",
            "__ZN5kaldi5nnet317GeneralDescriptor9NormalizeEPS1_",
            "__ZN4onnx10ModelProtoD1Ev",
            "__ZNK5kaldi16IvectorExtractor19GetIvectorDistPriorERKNS_30IvectorExtractorUtteranceStatsEPNS_10VectorBaseIdEEPNS_8SpMatrixIdEE",
            "__ZNK5kaldi5nnet320BlockAffineComponent5WriteERNSt3__113basic_ostreamIcNS2_11char_traitsIcEEEEb",
            "__ZN4onnx16TypeProto_OpaqueD1Ev",
            "__ZNK4onnx18OperatorSetIdProto13SetCachedSizeEi",
            "__ZNK5kaldi5nnet318NonlinearComponent4InfoEv",
            "__ZN7G2PEnUsD0Ev",
            "__ZN5kaldi14LinearResampleC1Eiifi",
            "__ZN5kaldi5nnet315NnetComputationaSERKS1_",
            "_cst_free",
            "__ZN3fst7KeySizeEPKc",
            "__ZN5kaldi5nnet317SumBlockComponentC1ERKS1_",
            "__ZN3fst20AddSubsequentialLoopEiPNS_10MutableFstINS_6ArcTplINS_17TropicalWeightTplIfEEEEEE",
            "__ZN5kaldi37OnlineIvectorExtractorAdaptationState11LimitFramesEff",
            "__ZN5kaldi5nnet325LstmNonlinearityComponent17ConsolidateMemoryEv",
            "_val_void",
            "_AEAudioBufferListGetLength",
            "__ZN5kaldi20OnlineIvectorFeatureC1ERKNS_27OnlineIvectorExtractionInfoEPNS_22OnlineFeatureInterfaceE",
            "__ZN3fst13CompatSymbolsEPKNS_11SymbolTableES2_b",
            "__ZNK4onnx22TypeProto_SparseTensor13SetCachedSizeEi",
            "__ZN5kaldi5nnet323RepeatedAffineComponent5ScaleEf",
            "__ZN4onnx16TypeProto_Tensor12InternalSwapEPS0_",
            "__ZN5boost10filesystem6detail16create_directoryERKNS0_4pathEPS3_PNS_6system10error_codeE",
            "__ZN5kaldi5nnet323ExampleGenerationConfig14ComputeDerivedEv",
            "__ZN5kaldi22OnlineSilenceWeighting15GetDeltaWeightsEiiPNSt3__16vectorINS1_4pairIifEENS1_9allocatorIS4_EEEE",
            "_get_frame_size",
            "__ZN5kaldi4RandEPNS_11RandomStateE",
            "__ZN5kaldi14PitchFrameInfo14ComputeLatencyEi",
            "__ZNK5kaldi5nnet325PerElementOffsetComponent4InfoEv",
            "__ZN5kaldi5nnet313GetNumNvaluesERKNSt3__16vectorINS0_6NnetIoENS1_9allocatorIS3_EEEEb",
            "__ZN4onnx22TypeProto_SparseTensorC2ERKS0_",
            "__ZN5kaldi16CompressedMatrixC1ERKS0_",
            "__ZNK5kaldi5nnet325LstmNonlinearityComponent9OutputDimEv",
            "_new_track",
            "__ZN5kaldi14ArpaLmCompilerD0Ev",
            "__ZNK4onnx19TensorProto_Segment13SetCachedSizeEi",
            "__ZN5kaldi5nnet34NnetC2ERKS1_",
            "__ZN5kaldi5nnet310SnipRowOpsEPNS0_15NnetComputationE",
            "__ZNK5kaldi5nnet321ClipGradientComponent9PropagateEPKNS0_27ComponentPrecomputedIndexesERKNS_12CuMatrixBaseIfEEPS6_",
            "__ZN5kaldi5nnet323ComputationGraphBuilder20IncrementUsableCountEi",
            "__ZN3cpr8ResponseC1ENSt3__110shared_ptrINS_10CurlHolderEEEONS1_12basic_stringIcNS1_11char_traitsIcEENS1_9allocatorIcEEEESB_ONS_7CookiesEONS_5ErrorE",
            "_curl_easy_duphandle",
            "_flite_text_to_speech",
            "__ZNK7keenasr10Recognizer24SamplesAvailableInBufferEv",
            "_val_delete_vit_cand",
            "_curl_url_cleanup",
            "__ZNK5kaldi5nnet317UtteranceSplitter10InitSplitsEPNSt3__16vectorINS3_IiNS2_9allocatorIiEEEENS4_IS6_EEEE",
            "__ZN4onnx11TensorProtoD1Ev",
            "__ZN3fst8internal14DenseSymbolMapD2Ev",
            "__ZNK5kaldi5nnet329StatisticsExtractionComponent17PrecomputeIndexesERKNS0_19MiscComputationInfoERKNSt3__16vectorINS0_5IndexENS5_9allocatorIS7_EEEESC_b",
            "__ZN5kaldi5nnet323ModelUpdateConsolidator24AddCommandsToComputationEv",
            "__ZNK5kaldi5nnet313TdnnComponent5WriteERNSt3__113basic_ostreamIcNS2_11char_traitsIcEEEEb",
            "__ZN5boost10filesystem6detail15path_algorithms15generic_path_v3ERKNS0_4pathE",
            "__ZN5kaldi13GeneralMatrixaSERKS0_",
            "__ZNK4onnx16TypeProto_Tensor18_InternalSerializeEPhPN6google8protobuf2io19EpsCopyOutputStreamE",
            "__ZNK5kaldi7DiagGmm23LogLikelihoodsPreselectERKNS_10VectorBaseIfEERKNSt3__16vectorIiNS5_9allocatorIiEEEEPNS_6VectorIfEE",
            "__ZN7keenasr10Recognizer20SpeakerProfileExistsEv",
            "__ZN5kaldi14LinearResample12SetRemainderERKNS_10VectorBaseIfEE",
            "__ZN5kaldi8EventMap6LookupERKNSt3__16vectorINS1_4pairIiiEENS1_9allocatorIS4_EEEEiPi",
            "__ZN5kaldi15OnlineTransform8GetFrameEiPNS_10VectorBaseIfEE",
            "__ZN5kaldi5nnet312MakeSccGraphERKNSt3__16vectorINS2_IiNS1_9allocatorIiEEEENS3_IS5_EEEES9_PS7_",
            "__ZN5kaldi12ParseOptions12SplitLongArgERKNSt3__112basic_stringIcNS1_11char_traitsIcEENS1_9allocatorIcEEEEPS7_SA_Pb",
            "__ZNK4onnx22TypeProto_SparseTensor13IsInitializedEv",
            "__ZN3fst8internal14DenseSymbolMapC2Ev",
            "__ZN5kaldi5nnet314MatrixExtenderC1EPNS0_15NnetComputationE",
            "__ZNK5kaldi5nnet321OptionalSumDescriptor15GetDependenciesERKNS0_5IndexEPNSt3__16vectorINS5_4pairIiS2_EENS5_9allocatorIS8_EEEE",
            "__ZNK5kaldi5nnet325PerElementOffsetComponent4CopyEv",
            "__ZN5kaldi15MultiThreadableD1Ev",
            "__ZN5boost10filesystem6detail15path_algorithms7stem_v3ERKNS0_4pathE",
            "__ZNK5kaldi5nnet319DistributeComponent9PropagateEPKNS0_27ComponentPrecomputedIndexesERKNS_12CuMatrixBaseIfEEPS6_",
            "__ZN5kaldi5nnet325LstmNonlinearityComponent11UnVectorizeERKNS_10VectorBaseIfEE",
            "_val_delete_clunit_db",
            "__ZN4onnx18TypeProto_Sequence9_Internal9elem_typeEPKS0_",
            "_item_last_daughter",
            "__ZN3fst6script9FarCreateERKNSt3__16vectorINS1_12basic_stringIcNS1_11char_traitsIcEENS1_9allocatorIcEEEENS6_IS8_EEEERKS8_SE_iRKNS_7FarTypeESE_SE_",
            "__ZN5kaldi5nnet320ConvolutionComponent11UnVectorizeERKNS_10VectorBaseIfEE",
            "__ZNK5kaldi5nnet328RestrictedAttentionComponent9PropagateEPKNS0_27ComponentPrecomputedIndexesERKNS_12CuMatrixBaseIfEEPS6_",
            "__ZN5kaldi15TransitionModel15MapUpdateSharedERKNS_6VectorIdEERKNS_25MapTransitionUpdateConfigEPfS8_",
            "__ZN5kaldi11ConstArpaLm21ReadInternalOldFormatERNSt3__113basic_istreamIcNS1_11char_traitsIcEEEEb",
            "__ZNK5kaldi18OnlineProcessPitch14NumFramesReadyEv",
            "__ZNK4onnx9NodeProto13SetCachedSizeEi",
            "_ts_open_string",
            "__ZN5kaldi16GaussClusterable5ScaleEf",
            "__ZNK5kaldi5nnet322NnetIoStructureCompareclERKNS0_6NnetIoES4_",
            "__ZNK7keenasr11ASRResponse16GetAsrBundleNameEv",
            "__ZN5kaldi5nnet324ComputationStepsComputerC1ERKNS0_4NnetEPNS0_16ComputationGraphEPNSt3__16vectorINS8_IiNS7_9allocatorIiEEEENS9_ISB_EEEEPNS8_INS7_4pairIiiEENS9_ISG_EEEE",
            "__ZNK5kaldi5nnet319BinarySumDescriptor11WriteConfigERNSt3__113basic_ostreamIcNS2_11char_traitsIcEEEERKNS2_6vectorINS2_12basic_stringIcS5_NS2_9allocatorIcEEEENSA_ISC_EEEE",
            "__ZNK5kaldi5nnet38Compiler20AddBackwardStepInputEiPNS0_15NnetComputationE",
            "__ZN5kaldi15WriteScriptFileERKNSt3__112basic_stringIcNS0_11char_traitsIcEENS0_9allocatorIcEEEERKNS0_6vectorINS0_4pairIS6_S6_EENS4_ISB_EEEE",
            "__ZN3cpr7Session3GetEv",
            "__ZN5kaldi22TrimTrailingWhitespaceEPNSt3__112basic_stringIcNS0_11char_traitsIcEENS0_9allocatorIcEEEE",
            "__ZN5kaldi5nnet318MoveSizingCommandsERKNS0_4NnetEPNS0_15NnetComputationE",
            "__ZN5kaldi15RecyclingVectorC2Ei",
            "__ZN5kaldi15QuestionsForKey4ReadERNSt3__113basic_istreamIcNS1_11char_traitsIcEEEEb",
            "__ZN5kaldi16IvectorExtractor4ReadERNSt3__113basic_istreamIcNS1_11char_traitsIcEEEEb",
            "_AEFloatConverterToFloatBufferList",
            "__ZNK5kaldi5nnet321ObjectiveFunctionInfo15PrintTotalStatsERKNSt3__112basic_stringIcNS2_11char_traitsIcEENS2_9allocatorIcEEEE",
            "__ZN5kaldi18SumClusterableObjfERKNSt3__16vectorIPNS_11ClusterableENS0_9allocatorIS3_EEEE",
            "__ZNK5kaldi5nnet319SimpleSumDescriptor4CopyEv",
            "_new_cst_regex",
            "__ZNK4onnx17TrainingInfoProto12ByteSizeLongEv",
            "_lpc_resynth_windows",
            "__ZN4onnx26TensorShapeProto_DimensionD0Ev",
            "__ZN5ngram20NGramExtendedContext21ParseContextIntervalsERKNSt3__112basic_stringIcNS1_11char_traitsIcEENS1_9allocatorIcEEEEiPNS1_6vectorINS_12NGramContextENS5_ISB_EEEE",
            "__ZN5kaldi5nnet316SigmoidComponent10StoreStatsERKNS_12CuMatrixBaseIfEES5_Pv",
            "__ZNK5kaldi5nnet315NnetComputation7Command5WriteERNSt3__113basic_ostreamIcNS3_11char_traitsIcEEEEb",
            "__ZNK5kaldi5nnet316DropoutComponent4CopyEv",
            "__ZN4onnx19TensorProto_SegmentD2Ev",
            "__ZN4onnx10ModelProto9_Internal5graphEPKS0_",
            "__ZN5kaldi18OnlinePitchFeature13InputFinishedEv",
            "__AECBInit",
            "_concat_wave",
            "__ZN5kaldi5nnet313TdnnComponentC2ERKS1_",
            "_val_stringp",
            "__ZN3cpr7Session17SetHeaderInternalEv",
            "__ZN4onnx22StringStringEntryProtoC1ERKS0_",
            "__ZNK5kaldi5nnet320ConvolutionComponent19InputToInputPatchesERKNS_12CuMatrixBaseIfEEPNS_8CuMatrixIfEE",
            "__ZN5kaldi5nnet327VariableMergingOptimizationERKNS0_19NnetOptimizeOptionsERKNS0_4NnetEPNS0_15NnetComputationE",
            "__ZN5kaldi26OnlineNnet2FeaturePipeline8GetFrameEiPNS_10VectorBaseIfEE",
            "__ZNK5kaldi5nnet317UtteranceSplitter18MaxUtteranceLengthEv",
            "_default_tokenization",
            "__ZN5kaldi13FbankComputer11GetMelBanksEf",
            "__ZN5boost10filesystem6detail38recursive_directory_iterator_constructERNS0_28recursive_directory_iteratorERKNS0_4pathENS0_17directory_optionsEPNS_6system10error_codeE",
            "__ZN4onnx11TensorProto21CheckTypeAndMergeFromERKN6google8protobuf11MessageLiteE",
            "__ZN5kaldi15ClusterBottomUpERKNSt3__16vectorIPNS_11ClusterableENS0_9allocatorIS3_EEEEfiPS6_PNS1_IiNS4_IiEEEE",
            "__ZN3cpr10CurlHolderC1Ev",
            "__ZN5kaldi5nnet317SetNnetAsGradientEPNS0_4NnetE",
            "__ZN7keenasr12NGramBuilder11CountNGramsERKNSt3__112basic_stringIcNS1_11char_traitsIcEENS1_9allocatorIcEEEEi",
            "__ZNK5kaldi5nnet34Nnet14IsDimRangeNodeEi",
            "__ZNK3fst18GrammarFstPreparer14IsSpecialStateEi",
            "__ZN5kaldi22VectorToPosteriorEntryERKNS_10VectorBaseIfEEifPNSt3__16vectorINS4_4pairIifEENS4_9allocatorIS7_EEEE",
            "__ZN4onnx13FunctionProto14_InternalParseEPKcPN6google8protobuf8internal12ParseContextE",
            "__ZN5kaldi5nnet36NnetIoC1ERKNSt3__112basic_stringIcNS2_11char_traitsIcEENS2_9allocatorIcEEEEiRKNS_13GeneralMatrixEi",
            "__ZN4onnx18TypeProto_OptionalC2EPN6google8protobuf5ArenaEb",
            "__ZN3cpr7Session9PostAsyncEv",
            "__ZNK5kaldi5nnet317SumBlockComponent9PropagateEPKNS0_27ComponentPrecomputedIndexesERKNS_12CuMatrixBaseIfEEPS6_",
            "__ZNK5kaldi5nnet310Descriptor3DimERKNS0_4NnetE",
            "__ZN5boost10filesystem16filesystem_errorC1EPKcRKNS0_4pathENS_6system10error_codeE",
            "_new_item_relation",
            "__ZN4onnx11TensorProtoC2ERKS0_",
            "__ZN3cpr7Session19SetProgressCallbackERKNS_16ProgressCallbackE",
            "_cst_fread",
            "__ZN4onnx17SparseTensorProto9_Internal7indicesEPKS0_",
            "__ZN5kaldi18OnlineCacheFeature9GetFramesERKNSt3__16vectorIiNS1_9allocatorIiEEEEPNS_10MatrixBaseIfEE",
            "__ZNK5kaldi5nnet315AffineComponent9VectorizeEPNS_10VectorBaseIfEE",
            "__ZN5kaldi5InputC1ERKNSt3__112basic_stringIcNS1_11char_traitsIcEENS1_9allocatorIcEEEEPb",
            "__ZN4onnx10ModelProto8CopyFromERKS0_",
            "__ZN5kaldi5nnet318NonlinearComponentC2ERKS1_",
            "__ZN5kaldi30LatticeIncrementalDeterminizer13SetFinalCostsEPKNSt3__113unordered_mapIifNS1_4hashIiEENS1_8equal_toIiEENS1_9allocatorINS1_4pairIKifEEEEEE",
            "__ZN5kaldi5nnet323ScaleAndOffsetComponent17ConsolidateMemoryEv",
            "__ZN4onnx19TensorProto_SegmentC2EPN6google8protobuf5ArenaEb",
            "__ZN5kaldi5nnet312NnetComputerD2Ev",
            "__ZN5kaldi5nnet36NnetIoC1ERKNSt3__112basic_stringIcNS2_11char_traitsIcEENS2_9allocatorIcEEEEiiRKNS2_6vectorINSB_INS2_4pairIifEENS6_ISD_EEEENS6_ISF_EEEEi",
            "__ZN5kaldi5nnet313PrintCindexesERNSt3__113basic_ostreamIcNS1_11char_traitsIcEEEERKNS1_6vectorINS1_4pairIiNS0_5IndexEEENS1_9allocatorISA_EEEERKNS7_INS1_12basic_stringIcS4_NSB_IcEEEENSB_ISI_EEEE",
            "__ZN5kaldi11SumStatsVecERKNSt3__16vectorINS1_INS0_4pairINS1_INS2_IiiEENS0_9allocatorIS3_EEEEPNS_11ClusterableEEENS4_IS9_EEEENS4_ISB_EEEEPNS1_IS8_NS4_IS8_EEEE",
            "__ZN5kaldi5nnet325ConstantFunctionComponent14InitFromConfigEPNS_10ConfigLineE",
            "__ZNK5kaldi5nnet318NonlinearComponent5WriteERNSt3__113basic_ostreamIcNS2_11char_traitsIcEEEEb",
            "__ZN20KaldiNNet3Recognizer13StopListeningEbNSt3__16vectorIiNS0_9allocatorIiEEEE",
            "__ZN3fst18GrammarFstPreparer20FixArcsToFinalStatesEi",
            "__ZNK5kaldi5nnet324RectifiedLinearComponent15RepairGradientsEPNS_12CuMatrixBaseIfEEPS1_",
            "__ZN3cpr7Session9SetOptionERKNS_10ParametersE",
            "__ZN3cpr7Session6DeleteEv",
            "__ZN5kaldi22OnlinePitchFeatureImpl19RecomputeBacktracesEv",
            "__ZNK5kaldi5nnet328RestrictedAttentionComponent12IsComputableERKNS0_19MiscComputationInfoERKNS0_5IndexERKNS0_8IndexSetEPNSt3__16vectorIS5_NSB_9allocatorIS5_EEEE",
            "__ZN4onnx16TypeProto_TensorD2Ev",
            "__ZNK3cpr21EncodedAuthentication13GetAuthStringEv",
            "_WebRtcVad_InitCore",
            "__ZN5kaldi20ExpectOneOrTwoTokensERNSt3__113basic_istreamIcNS0_11char_traitsIcEEEEbRKNS0_12basic_stringIcS3_NS0_9allocatorIcEEEESB_",
            "__ZNK5kaldi5nnet325LstmNonlinearityComponent9VectorizeEPNS_10VectorBaseIfEE",
            "__ZN5kaldi5nnet320BlockAffineComponent11UnVectorizeERKNS_10VectorBaseIfEE",
            "__ZN5kaldi23FilterGeneralMatrixRowsERKNS_13GeneralMatrixERKNSt3__16vectorIbNS3_9allocatorIbEEEEPS0_",
            "__ZNK5kaldi5nnet318CompositeComponent9VectorizeEPNS_10VectorBaseIfEE",
            "__ZNK5kaldi5nnet317ConstantComponent9VectorizeEPNS_10VectorBaseIfEE",
            "__ZN3cpr7ProxiesixERKNSt3__112basic_stringIcNS1_11char_traitsIcEENS1_9allocatorIcEEEE",
            "__ZN5kaldi5nnet312NnetComputer12MatrixStddevERKNS_12CuMatrixBaseIfEE",
            "__ZN5kaldi14PitchFrameInfo7CleanupEPS0_",
            "__ZN5kaldi5nnet328SpecAugmentTimeMaskComponentC1Ev",
            "__ZN3cpr10ThreadPool9AddThreadEPNSt3__16threadE",
            "__ZN4onnx13TypeProto_MapC1EPN6google8protobuf5ArenaEb",
            "__ZN5kaldi13TableEventMapC2EiRKNSt3__13mapIiiNS1_4lessIiEENS1_9allocatorINS1_4pairIKiiEEEEEE",
            "__ZN5kaldi27CompactLatticeDepthPerFrameERKN3fst9VectorFstINS0_6ArcTplINS0_23CompactLatticeWeightTplINS0_16LatticeWeightTplIfEEiEEEENS0_11VectorStateIS7_NSt3__19allocatorIS7_EEEEEEPNS9_6vectorIiNSA_IiEEEE",
            "__ZN5kaldi12ParseOptions16RegisterSpecificERKNSt3__112basic_stringIcNS1_11char_traitsIcEENS1_9allocatorIcEEEES9_PiS9_b",
            "__ZN7keenasr9TouchFileERKNSt3__112basic_stringIcNS0_11char_traitsIcEENS0_9allocatorIcEEEE",
            "__ZN4onnx13TypeProto_MapC1ERKS0_",
            "__ZNK5kaldi7DiagGmm19ComponentPosteriorsERKNS_10VectorBaseIfEEPNS_6VectorIfEE",
            "__ZN3cpr8CertInfo5beginEv",
            "__ZN5kaldi9SemaphoreD2Ev",
            "_join_units_simple",
            "__ZN5kaldi14ArpaLmCompiler21RemoveRedundantStatesEv",
            "__ZN4onnx10ModelProtoD0Ev",
            "__ZN5kaldi24GenRandContextDependencyERKNSt3__16vectorIiNS0_9allocatorIiEEEEbPS4_",
            "__ZN5kaldi11IsValidNameERKNSt3__112basic_stringIcNS0_11char_traitsIcEENS0_9allocatorIcEEEE",
            "__ZNK4onnx19TensorProto_Segment13IsInitializedEv",
            "_curl_multi_socket",
            "__ZNK5kaldi5nnet324PerElementScaleComponent5WriteERNSt3__113basic_ostreamIcNS2_11char_traitsIcEEEEb",
            "__ZNK5kaldi11Clusterable9ObjfMinusERKS0_",
            "__ZNK5kaldi11ConstArpaLm18HistoryStateExistsERKNSt3__16vectorIiNS1_9allocatorIiEEEE",
            "__ZN7Lexicon38RemoveInvalidAlternativePronunciationsERNSt3__16vectorIN7keenasr24AlternativePronunciationENS0_9allocatorIS3_EEEE",
            "__ZN4onnx8MapProto14_InternalParseEPKcPN6google8protobuf8internal12ParseContextE",
            "__ZN3fst8internal14DenseSymbolMapC2ERKS1_",
            "__ZN5kaldi5nnet330NaturalGradientAffineComponent21FreezeNaturalGradientEb",
            "__ZN4onnx13FunctionProto8CopyFromERKS0_",
            "__ZN4onnx16TypeProto_Opaque12InternalSwapEPS0_",
            "__ZNK5kaldi5nnet313TdnnComponent12IsComputableERKNS0_19MiscComputationInfoERKNS0_5IndexERKNS0_8IndexSetEPNSt3__16vectorIS5_NSB_9allocatorIS5_EEEE",
            "__ZN4onnx16TypeProto_Tensor5ClearEv",
            "__ZN4onnx22TypeProto_SparseTensor5ClearEv",
            "__ZN5kaldi5nnet330TimeHeightConvolutionComponent8InitUnitEv",
            "__ZN7keenasr13DecodingGraph14MarkAsCompleteERKNSt3__112basic_stringIcNS1_11char_traitsIcEENS1_9allocatorIcEEEE",
            "__ZNK4onnx10GraphProto13SetCachedSizeEi",
            "__ZNK5kaldi5nnet321ClipGradientComponent15RepairGradientsERKNSt3__112basic_stringIcNS2_11char_traitsIcEENS2_9allocatorIcEEEERKNS_12CuMatrixBaseIfEEPSC_PS1_",
            "__ZN5kaldi5nnet318BatchNormComponent3AddEfRKNS0_9ComponentE",
            "__ZN4onnx17SparseTensorProto5ClearEv",
            "__ZN5boost10filesystem16filesystem_errorC1ERKNSt3__112basic_stringIcNS2_11char_traitsIcEENS2_9allocatorIcEEEERKNS0_4pathESD_NS_6system10error_codeE",
            "__ZN5kaldi24GetPerFrameAcousticCostsERKN3fst9VectorFstINS0_6ArcTplINS0_16LatticeWeightTplIfEEEENS0_11VectorStateIS5_NSt3__19allocatorIS5_EEEEEEPNS_6VectorIfEE",
            "__ZN5kaldi12ParseOptions8RegisterERKNSt3__112basic_stringIcNS1_11char_traitsIcEENS1_9allocatorIcEEEEPjS9_",
            "__ZN4onnx9TypeProto9_Internal8map_typeEPKS0_",
            "__ZNK4onnx18TypeProto_Optional12ByteSizeLongEv",
            "__ZNK5kaldi5nnet320ConvolutionComponent8BackpropERKNSt3__112basic_stringIcNS2_11char_traitsIcEENS2_9allocatorIcEEEEPKNS0_27ComponentPrecomputedIndexesERKNS_12CuMatrixBaseIfEESH_SH_PvPNS0_9ComponentEPSF_",
            "__ZN5kaldi27ConstArpaLmDeterministicFst5FinalEi",
            "__ZNK5ngram11NGramOutput13ShowARPAModelEv",
            "__ZN5kaldi5nnet320DropoutMaskComponent4ReadERNSt3__113basic_istreamIcNS2_11char_traitsIcEEEEb",
            "__ZN5kaldi5nnet316ComputationCacheC1Ei",
            "__ZN4onnx16TensorShapeProtoC1ERKS0_",
            "__ZN4onnx9TypeProtoC1EPN6google8protobuf5ArenaEb",
            "__ZN5kaldi18ClassifyWspecifierERKNSt3__112basic_stringIcNS0_11char_traitsIcEENS0_9allocatorIcEEEEPS6_S9_PNS_17WspecifierOptionsE",
            "__ZN5kaldi5nnet315NnetComputationC1ERKS1_",
            "__ZN7keenasr9WebRTCVADC1Ev",
            "_feat_set_float",
            "_cg_find_phrase_number",
            "__ZNK5kaldi5nnet318UpdatableComponent4InfoEv",
            "__ZNK5kaldi5nnet324GruNonlinearityComponent8BackpropERKNSt3__112basic_stringIcNS2_11char_traitsIcEENS2_9allocatorIcEEEEPKNS0_27ComponentPrecomputedIndexesERKNS_12CuMatrixBaseIfEESH_SH_PvPNS0_9ComponentEPSF_",
            "__ZN5kaldi27OnlineIvectorExtractionInfoC2Ev",
            "__ZN3cpr7Session17SetLocalPortRangeERKNS_14LocalPortRangeE",
            "__ZN5kaldi18OnlinePitchFeatureC1ERKNS_22PitchExtractionOptionsE",
            "__ZNK5kaldi5nnet325LstmNonlinearityComponent13NumParametersEv",
            "_cst_fclose",
            "__ZNK20KaldiNNet3Recognizer17SamplingFrequencyEv",
            "_AECBClear",
            "__ZN5kaldi5nnet326StatisticsPoolingComponent4ReadERNSt3__113basic_istreamIcNS2_11char_traitsIcEEEEb",
            "__ZN5kaldi13GeneralMatrix8CompressEv",
            "_WebRtcSpl_ResetResample16khzTo48khz",
            "_cst_wave_append_riff",
            "_cst_wave_load_raw_fd",
            "__ZNK5kaldi21IvectorExtractorStats16PriorDiagnosticsEd",
            "__ZN5kaldi16FilterStatsByKeyERKNSt3__16vectorINS0_4pairINS1_INS2_IiiEENS0_9allocatorIS3_EEEEPNS_11ClusterableEEENS4_IS9_EEEEiRNS1_IiNS4_IiEEEEbPSB_",
            "_curl_mprintf",
            "__ZN5kaldi5nnet326MemoryCompressionOptimizer13ProcessMatrixEi",
            "__ZN5kaldi12ParseOptions14ReadConfigFileERKNSt3__112basic_stringIcNS1_11char_traitsIcEENS1_9allocatorIcEEEE",
            "__ZN5kaldi5nnet315NnetComputation7Command4ReadERNSt3__113basic_istreamIcNS3_11char_traitsIcEEEEb",
            "_track_val",
            "_curl_slist_append",
            "__ZN5kaldi5nnet320ConvolutionComponentC1Ev",
            "__ZN5boost10filesystem6detail15path_algorithms25erase_redundant_separatorERNS0_4pathEm",
            "__ZN3cpr7Session9SetOptionERKNS_6BearerE",
            "__ZN5kaldi27OnlineIvectorExtractionInfoC1ERKNS_29OnlineIvectorExtractionConfigE",
            "__ZN7G2PEnUsD1Ev",
            "__ZNK5kaldi5nnet317ConstantComponent13NumParametersEv",
            "_AEMixerBufferMarkSourceIdle",
            "_utt_synth",
            "__ZNK5kaldi15TransitionModel21GetNonSelfLoopLogProbEi",
            "__ZN3fst12ReadFstKaldiENSt3__112basic_stringIcNS0_11char_traitsIcEENS0_9allocatorIcEEEE",
            "__ZNK5kaldi16GaussClusterable4ObjfEv",
            "_uttfunc_val",
            "__ZN5kaldi5nnet318NonlinearComponent18StoreStatsInternalERKNS_12CuMatrixBaseIfEEPS4_",
            "__ZN4onnx16TensorAnnotation9MergeFromERKS0_",
            "__ZN5kaldi5nnet313NumInputNodesERKNS0_4NnetE",
            "__ZN7keenasr11RoundFloatsERN8nlohmann16json_abi_v3_11_310basic_jsonINSt3__13mapENS3_6vectorENS3_12basic_stringIcNS3_11char_traitsIcEENS3_9allocatorIcEEEEbxydS9_NS1_14adl_serializerENS5_IhNS9_IhEEEEvEE",
            "__ZN5kaldi5nnet330TimeHeightConvolutionComponent12UpdateSimpleERKNS1_18PrecomputedIndexesERKNS_12CuMatrixBaseIfEES8_",
            "__ZN5kaldi14TotalPosteriorERKNSt3__16vectorINS1_INS0_4pairIifEENS0_9allocatorIS3_EEEENS4_IS6_EEEE",
            "__ZNK5kaldi5nnet330TimeHeightConvolutionComponent15GetInputIndexesERKNS0_19MiscComputationInfoERKNS0_5IndexEPNSt3__16vectorIS5_NS8_9allocatorIS5_EEEE",
            "__ZN5kaldi5nnet319FixedScaleComponent4ReadERNSt3__113basic_istreamIcNS2_11char_traitsIcEEEEb",
            "__ZN5kaldi5nnet324IdentifyIndexesMultiArgsEPNSt3__16vectorINS0_15NnetComputation7CommandENS1_9allocatorIS4_EEEEPNS2_IPiNS5_IS9_EEEE",
            "__ZN3cpr7Session11PreparePostEv",
            "_AEMixerBufferDequeueSingleSource",
            "__ZN5kaldi5nnet311NnetTrainer14ProcessOutputsEbRKNS0_11NnetExampleEPNS0_12NnetComputerE",
            "__ZNK5kaldi5nnet323ScaleAndOffsetComponent10DotProductERKNS0_18UpdatableComponentE",
            "__ZNK5kaldi5nnet318NormalizeComponent8BackpropERKNSt3__112basic_stringIcNS2_11char_traitsIcEENS2_9allocatorIcEEEEPKNS0_27ComponentPrecomputedIndexesERKNS_12CuMatrixBaseIfEESH_SH_PvPNS0_9ComponentEPSF_",
            "__ZN4onnx26TensorShapeProto_Dimension14_InternalParseEPKcPN6google8protobuf8internal12ParseContextE",
            "__ZN5boost10filesystem6detail15hard_link_countERKNS0_4pathEPNS_6system10error_codeE",
            "__ZN5kaldi14WriteBasicTypeIbEEvRNSt3__113basic_ostreamIcNS1_11char_traitsIcEEEEbT_",
            "__ZN5kaldi12ParseOptions8ToDoubleERKNSt3__112basic_stringIcNS1_11char_traitsIcEENS1_9allocatorIcEEEE",
            "_flite_ffeature_int",
            "__ZN4onnx9NodeProtoD0Ev",
            "_cst_fseek",
            "__ZN5kaldi5nnet323ScaleAndOffsetComponentC1ERKS1_",
            "__ZN5kaldi5nnet310DotProductERKNS0_4NnetES3_",
            "__ZN4onnx22OperatorStatus_IsValidEi",
            "__ZNK4onnx8MapProto13SetCachedSizeEi",
            "_WebRtcSpl_DivW32W16ResW16",
            "__ZN3cpr7Session9SetOptionERKNS_9LimitRateE",
            "__ZNK5kaldi5nnet318ComputationRequest5WriteERNSt3__113basic_ostreamIcNS2_11char_traitsIcEEEEb",
            "__ZNK5kaldi17ContextDependency10GetPdfInfoERKNSt3__16vectorIiNS1_9allocatorIiEEEERKNS2_INS2_INS1_4pairIiiEENS3_IS9_EEEENS3_ISB_EEEEPNS2_ISD_NS3_ISD_EEEE",
            "__ZN5kaldi5nnet317UtteranceSplitterC1ERKNS0_23ExampleGenerationConfigE",
            "__ZN3fst16InvertPropertiesEy",
            "__ZNK5kaldi5nnet315LinearComponent9PropagateEPKNS0_27ComponentPrecomputedIndexesERKNS_12CuMatrixBaseIfEEPS6_",
            "__ZN3cpr8ResponseC2ENSt3__110shared_ptrINS_10CurlHolderEEEONS1_12basic_stringIcNS1_11char_traitsIcEENS1_9allocatorIcEEEESB_ONS_7CookiesEONS_5ErrorE",
            "_swap_bytes_short",
            "__ZN5ngram11NGramOutput19RenormUnigramForOOVEiidd",
            "__ZN4onnx18TypeProto_SequenceC2ERKS0_",
            "__ZN5kaldi34ComposeCompactLatticeDeterministicERKN3fst9VectorFstINS0_6ArcTplINS0_23CompactLatticeWeightTplINS0_16LatticeWeightTplIfEEiEEEENS0_11VectorStateIS7_NSt3__19allocatorIS7_EEEEEEPNS0_24DeterministicOnDemandFstINS2_INS0_17TropicalWeightTplIfEEEEEEPSD_",
            "__ZN7keenasr21AudioQualityEstimator15AddAudioSamplesEPKsm",
            "__ZNK5kaldi17ScalarClusterable4CopyEv",
            "__ZNK5kaldi5nnet316ComputationCache5WriteERNSt3__113basic_ostreamIcNS2_11char_traitsIcEEEEb",
            "__ZN3fst21CompositeWeightReader7ReadEndEv",
            "__ZNK3cpr8CertInfo6cbeginEv",
            "__ZN4onnx10GraphProtoC1EPN6google8protobuf5ArenaEb",
            "__ZN5kaldi5nnet324PerElementScaleComponentC1ERKS1_",
            "__ZN5kaldi20ShiftedDeltaFeaturesC1ERKNS_27ShiftedDeltaFeaturesOptionsE",
            "_track_frame_shift",
            "__ZNK4onnx17SparseTensorProto13SetCachedSizeEi",
            "__ZN3cpr4util12parseCookiesEP10curl_slist",
            "__ZN4onnx10GraphProto14_InternalParseEPKcPN6google8protobuf8internal12ParseContextE",
            "__ZN5kaldi5nnet315GetSubmatCountsERKNSt3__16vectorINS2_INS1_4pairIiiEENS1_9allocatorIS4_EEEENS5_IS7_EEEEPNS1_13unordered_mapIiiNS1_4hashIiEENS1_8equal_toIiEENS5_INS3_IKiiEEEEEEPNS2_IiNS5_IiEEEE",
            "__ZNK5kaldi5nnet315NnetComputeProb17GetTotalObjectiveEPd",
            "__ZN5kaldi26OnlineNnet2FeaturePipelineD2Ev",
            "__ZN5kaldi5nnet327DecodableAmNnetSimpleLoopedC1ERKNS0_29DecodableNnetSimpleLoopedInfoERKNS_15TransitionModelERKNS_10MatrixBaseIfEEPKNS_10VectorBaseIfEEPSA_i",
            "__ZN4onnx16TensorAnnotationD1Ev",
            "__ZN5kaldi14PitchFrameInfo10SetNccfPovERKNS_10VectorBaseIfEE",
            "_feat_set",
            "__ZN5kaldi5nnet320BlockAffineComponentC1ERKNS0_23RepeatedAffineComponentE",
            "__Z10RemoveFileNSt3__112basic_stringIcNS_11char_traitsIcEENS_9allocatorIcEEEE",
            "__ZN5kaldi20AlignmentToPosteriorERKNSt3__16vectorIiNS0_9allocatorIiEEEEPNS1_INS1_INS0_4pairIifEENS2_IS8_EEEENS2_ISA_EEEE",
            "__ZNK5kaldi5nnet313TdnnComponent14ReorderIndexesEPNSt3__16vectorINS0_5IndexENS2_9allocatorIS4_EEEES8_",
            "__ZNK5kaldi5nnet324PerElementScaleComponent13NumParametersEv",
            "_curl_multi_strerror",
            "__ZN5kaldi26RoundUpToNearestPowerOfTwoEi",
            "__ZN5kaldi5nnet330OutputGruNonlinearityComponent22TanhStatsAndSelfRepairERKNS_12CuMatrixBaseIfEEPS3_",
            "__ZN5kaldi12ParseOptions6EscapeERKNSt3__112basic_stringIcNS1_11char_traitsIcEENS1_9allocatorIcEEEE",
            "__ZN5ngram11NGramOutput20RelabelAndSetSymbolsEPN3fst10MutableFstINS1_6ArcTplINS1_17TropicalWeightTplIfEEEEEERKNS1_3FstIS6_EE",
            "__ZNK4onnx16TensorShapeProto11GetTypeNameEv",
            "__ZNK5kaldi28OnlineIvectorEstimationStats5WriteERNSt3__113basic_ostreamIcNS1_11char_traitsIcEEEEb",
            "__ZN5kaldi21SolveQuadraticProblemIdEET_RKNS_8SpMatrixIS1_EERKNS_10VectorBaseIS1_EERKNS_13SolverOptionsEPS7_",
            "__ZN7keenasr21AudioQualityEstimatorC1Eiiii",
            "__ZN5kaldi18ConstArpaLmBuilder12ReadCompleteEv",
            "__ZN5kaldi5nnet323UpdateNnetWithMaxChangeERKNS0_4NnetEfffPS1_PNS0_14MaxChangeStatsE",
            "__ZNK4onnx9NodeProto18_InternalSerializeEPhPN6google8protobuf2io19EpsCopyOutputStreamE",
            "__ZN7keenasr9ASRResult13SetConfidenceEf",
            "_curl_easy_init",
            "__ZN4onnx9NodeProtoC2ERKS0_",
            "__ZN5kaldi5nnet324ComputationStepsComputer24ProcessInputOrOutputStepERKNS0_18ComputationRequestEbRKNSt3__16vectorINS5_4pairIiNS0_5IndexEEENS5_9allocatorIS9_EEEE",
            "__ZN5kaldi7DiagGmmC1ERKNS_16GaussClusterableEf",
            "_delete_lpcres",
            "__ZN5kaldi15TransitionModel14ComputeDerivedEv",
            "__ZN5kaldi5nnet321DerivativeTimeLimiter15LimitDerivTimesEv",
            "__ZN5kaldi5nnet312NnetComputer12GetSubMatrixEi",
            "__ZN3cpr10CurlHolderD2Ev",
            "__ZN3fst8internal14DenseSymbolMapC1ERKS1_",
            "__ZN5kaldi9PeekTokenERNSt3__113basic_istreamIcNS0_11char_traitsIcEEEEb",
            "__ZN3fst13WriteFstKaldiERKNS_9VectorFstINS_6ArcTplINS_17TropicalWeightTplIfEEEENS_11VectorStateIS4_NSt3__19allocatorIS4_EEEEEENS6_12basic_stringIcNS6_11char_traitsIcEENS7_IcEEEE",
            "__ZNK4onnx16TypeProto_Tensor12ByteSizeLongEv",
            "__ZN5kaldilsERNSt3__113basic_ostreamIcNS0_11char_traitsIcEEEERKNS_7DiagGmmE",
            "__ZNK5kaldi5nnet323ScaleAndOffsetComponent9VectorizeEPNS_10VectorBaseIfEE",
            "__ZN4onnx10ModelProto12InternalSwapEPS0_",
            "__ZN4onnx10ModelProtoC2EPN6google8protobuf5ArenaEb",
            "__ZN5kaldi12ParseOptions13DisableOptionERKNSt3__112basic_stringIcNS1_11char_traitsIcEENS1_9allocatorIcEEEE",
            "__ZN5kaldi5nnet313TdnnComponent12UpdateSimpleERKNS1_18PrecomputedIndexesERKNS_12CuMatrixBaseIfEES8_",
            "_AEHostTicksFromSeconds",
            "__ZN5boost10filesystem6detail14symlink_statusERKNS0_4pathEPNS_6system10error_codeE",
            "_get_diphone_units",
            "__ZN5kaldi5nnet327BackpropTruncationComponent4InitEifffii",
            "__ZNK7Lexicon20IsPronunciationValidERKNSt3__16vectorINS0_12basic_stringIcNS0_11char_traitsIcEENS0_9allocatorIcEEEENS5_IS7_EEEE",
            "__ZN5kaldi5nnet329DecodableNnetLoopedOnlineBase14SetFrameOffsetEi",
            "_AECBClean",
            "__ZN5kaldi5nnet324GruNonlinearityComponentC2ERKS1_",
            "_ph_cvox",
            "__ZN4onnx16TensorShapeProtoC1EPN6google8protobuf5ArenaEb",
            "__ZN5kaldi28RescoreCompactLatticeSpeedupERKNS_15TransitionModelEfPNS_18DecodableInterfaceEPN3fst9VectorFstINS5_6ArcTplINS5_23CompactLatticeWeightTplINS5_16LatticeWeightTplIfEEiEEEENS5_11VectorStateISC_NSt3__19allocatorISC_EEEEEE",
            "_cg_position_in_phrasep",
            "__Z8SetFlagsPKcPiPPPcbS0_",
            "__ZNK5kaldi5nnet319ComputationExpander24GetNewSubmatLocationInfoEiiPiS2_",
            "__ZN5kaldi5nnet315AffineComponent6ResizeEii",
            "__ZN3cpr10ThreadPool4StopEv",
            "__ZN4onnx26TensorShapeProto_DimensionC2ERKS0_",
            "_curl_url_get",
            "__ZN5kaldi12LatticeBoostERKNS_15TransitionModelERKNSt3__16vectorIiNS3_9allocatorIiEEEES9_ffPN3fst9VectorFstINSA_6ArcTplINSA_16LatticeWeightTplIfEEEENSA_11VectorStateISF_NS5_ISF_EEEEEE",
            "__ZN5kaldi21ExtractRangeSpecifierERKNSt3__112basic_stringIcNS0_11char_traitsIcEENS0_9allocatorIcEEEEPS6_S9_",
            "__ZNK5kaldi5nnet317UtteranceSplitter11GetGapSizesEibRKNSt3__16vectorIiNS2_9allocatorIiEEEEPS6_",
            "__ZN5kaldi22OnlinePitchFeatureImpl13InputFinishedEv",
            "_new_phoneset",
            "__ZN4onnx16TensorShapeProto21CheckTypeAndMergeFromERKN6google8protobuf11MessageLiteE",
            "__ZN5kaldi15ClusterEventMapERKNS_8EventMapERKNSt3__16vectorINS3_4pairINS4_INS5_IiiEENS3_9allocatorIS6_EEEEPNS_11ClusterableEEENS7_ISC_EEEEfPi",
            "__ZN5kaldi16CompressedMatrixC2ERKS0_",
            "_AEAudioControllerInputAudioDescription",
            "__ZN7keenasr10Recognizer16SetConfigurationERKNSt3__13mapINS1_12basic_stringIcNS1_11char_traitsIcEENS1_9allocatorIcEEEEfNS1_4lessIS8_EENS6_INS1_4pairIKS8_fEEEEEE",
            "__ZNK4onnx16TensorAnnotation13IsInitializedEv",
            "__ZN5kaldi5nnet38Compiler15CompileBackwardEiPNS0_15NnetComputationE",
            "__ZNK3cpr7Cookies3endEv",
            "__ZN5kaldi5nnet324PerElementScaleComponentC2ERKS1_",
            "_get_param_val",
            "__ZN4onnx18TypeProto_Sequence5ClearEv",
            "__ZN5kaldi5nnet313ExampleMergerC2ERKNS0_20ExampleMergingConfigEPNS_11TableWriterINS_17KaldiObjectHolderINS0_11NnetExampleEEEEE",
            "__ZN5kaldi5nnet311NnetTrainerC2ERKNS0_18NnetTrainerOptionsEPNS0_4NnetE",
            "_val_track",
            "__ZN5kaldi5nnet333AddTimeOffsetToComputationRequestEiPNS0_18ComputationRequestE",
            "__ZNK5kaldi5nnet318CompositeComponent4InfoEv",
            "_WebRtcVad_ValidRateAndFrameLength",
            "__ZN3cpr5Files8pop_backEv",
            "__ZN5boost10filesystem6detail18is_empty_directoryEONS_5scope15unique_resourceIiNS2_10fd_deleterENS2_18fd_resource_traitsEEERKNS0_4pathEPNS_6system10error_codeE",
            "__ZN5kaldi17ArbitraryResampleC2EiffRKNS_6VectorIfEEi",
            "__ZN5kaldi5nnet320ConvolutionComponentC1ERKNS_12CuMatrixBaseIfEERKNS_12CuVectorBaseIfEEiiiiiiiNS1_23TensorVectorizationTypeEf",
            "__ZN5kaldi5nnet324GruNonlinearityComponent14InitFromConfigEPNS_10ConfigLineE",
            "__ZN5kaldi5nnet330NaturalGradientAffineComponent4ReadERNSt3__113basic_istreamIcNS2_11char_traitsIcEEEEb",
            "_curl_share_cleanup",
            "__ZNK5kaldi5nnet315LinearComponent10DotProductERKNS0_18UpdatableComponentE",
            "__ZN4onnx18OperatorSetIdProtoC1EPN6google8protobuf5ArenaEb",
            "_lpcres_resize_frames",
            "__ZN5kaldi16WordAlignLatticeERKN3fst9VectorFstINS0_6ArcTplINS0_23CompactLatticeWeightTplINS0_16LatticeWeightTplIfEEiEEEENS0_11VectorStateIS7_NSt3__19allocatorIS7_EEEEEERKNS_15TransitionModelERKNS_16WordBoundaryInfoEiPSD_",
            "_feat_present",
            "__ZN3cpr14AcceptEncodingC1ERKSt16initializer_listINS_21AcceptEncodingMethodsEE",
            "__ZN5kaldi5nnet325OptimizeMemoryCompressionERKNS0_4NnetEiPNS0_15NnetComputationE",
            "__ZN7keenasr10Recognizer31RemoveSpeakerAdaptationProfilesERKNSt3__112basic_stringIcNS1_11char_traitsIcEENS1_9allocatorIcEEEE",
            "__ZNK5kaldi18OnlineDeltaFeature14NumFramesReadyEv",
            "__ZN4onnx16TensorShapeProto14_InternalParseEPKcPN6google8protobuf8internal12ParseContextE",
            "__ZN4onnx16TensorAnnotationC1ERKS0_",
            "__ZN3cpr8CertInfo12emplace_backERKNSt3__112basic_stringIcNS1_11char_traitsIcEENS1_9allocatorIcEEEE",
            "__ZN5kaldi5nnet320DropoutMaskComponentC2Ev",
            "_AEMessageQueueProcessMessagesOnRealtimeThread",
            "__ZN4onnx9TypeProtoD2Ev",
            "__ZNK3cpr8CertInfo5beginEv",
            "_ts_eof",
            "_basic_ff_register",
            "_AECBNextBLAfter",
            "__ZN5kaldi5nnet320FindOrphanComponentsERKNS0_4NnetEPNSt3__16vectorIiNS4_9allocatorIiEEEE",
            "__ZN5kaldi30IvectorExtractorUtteranceStats8AccStatsERKNS_10MatrixBaseIfEERKNSt3__16vectorINS6_INS5_4pairIifEENS5_9allocatorIS8_EEEENS9_ISB_EEEE",
            "__ZN5kaldi5nnet321ComputeGraphTransposeERKNSt3__16vectorINS2_IiNS1_9allocatorIiEEEENS3_IS5_EEEEPS7_",
            "__ZN5kaldi5nnet321DerivativeTimeLimiter13PruneMatricesEv",
            "__ZNK4onnx26TensorShapeProto_Dimension11GetTypeNameEv",
            "__ZN5kaldi21IvectorExtractorStats10FlushCacheEv",
            "__ZNK5kaldi5nnet325LstmNonlinearityComponent8BackpropERKNSt3__112basic_stringIcNS2_11char_traitsIcEENS2_9allocatorIcEEEEPKNS0_27ComponentPrecomputedIndexesERKNS_12CuMatrixBaseIfEESH_SH_PvPNS0_9ComponentEPSF_",
            "__ZN5kaldi5nnet321OnlineNaturalGradient7SetRankEi",
            "__ZN7keenasr13DecodingGraph25DecodingGraphAtPathExistsERKNSt3__112basic_stringIcNS1_11char_traitsIcEENS1_9allocatorIcEEEE",
            "__ZNK4onnx9TypeProto13SetCachedSizeEi",
            "__ZNK4onnx16TensorAnnotation13SetCachedSizeEi",
            "__ZNK5kaldi17ScalarClusterable5WriteERNSt3__113basic_ostreamIcNS1_11char_traitsIcEEEEb",
            "__ZN3cpr7Session10PreparePutEv",
            "__ZN5kaldi5nnet324GruNonlinearityComponent9ZeroStatsEv",
            "__ZN5kaldi5nnet314ExtendMatricesEPNS0_15NnetComputationE",
            "__ZN5kaldi11CuArrayBaseIiE3AddERKi",
            "__ZN5kaldi13InitCmvnStatsEiPNS_6MatrixIdEE",
            "__ZNK5kaldi5nnet321OptionalSumDescriptor4CopyEv",
            "__ZNK5kaldi5nnet319DistributeComponent8BackpropERKNSt3__112basic_stringIcNS2_11char_traitsIcEENS2_9allocatorIcEEEEPKNS0_27ComponentPrecomputedIndexesERKNS_12CuMatrixBaseIfEESH_SH_PvPNS0_9ComponentEPSF_",
            "__ZN3cpr7Session12SetVerifySslERKNS_9VerifySslE",
            "__ZNK20KaldiNNet3Recognizer17RecognitionResultEb",
            "__ZN5kaldi30LatticeIncrementalDeterminizer23GetRawLatticeFinalCostsERKN3fst9VectorFstINS1_6ArcTplINS1_16LatticeWeightTplIfEEEENS1_11VectorStateIS6_NSt3__19allocatorIS6_EEEEEEPNS8_13unordered_mapIifNS8_4hashIiEENS8_8equal_toIiEENS9_INS8_4pairIKifEEEEEE",
            "__ZN5kaldi9ReadTokenERNSt3__113basic_istreamIcNS0_11char_traitsIcEEEEbPNS0_12basic_stringIcS3_NS0_9allocatorIcEEEE",
            "__ZN5kaldi5nnet323time_height_convolution24GetIndexesForComputationERKNS1_24ConvolutionComputationIoERKNSt3__16vectorINS0_5IndexENS5_9allocatorIS7_EEEESC_PSA_SD_",
            "__ZN5kaldi14PitchFrameInfoC1EPS0_",
            "__ZNK5kaldi5nnet326SimpleForwardingDescriptor15GetScaleForNodeEi",
            "__ZNK5kaldi5nnet328RestrictedAttentionComponent5CheckEv",
            "_ts_set_stream_pos",
            "_lts_apply",
            "__ZN5kaldi28OnlineIvectorEstimationStats8AccStatsERKNS_16IvectorExtractorERKNS_10VectorBaseIfEERKNSt3__16vectorINS8_4pairIifEENS8_9allocatorISB_EEEE",
            "_val_delete_wave",
            "__ZN5kaldi20OnlineIvectorFeatureC2ERKNS_27OnlineIvectorExtractionInfoEPNS_22OnlineFeatureInterfaceE",
            "__ZNK5kaldi7DiagGmm24merged_components_logdetEffRKNS_10VectorBaseIfEES4_S4_S4_",
            "__ZN3cpr19ProxyAuthenticationixERKNSt3__112basic_stringIcNS1_11char_traitsIcEENS1_9allocatorIcEEEE",
            "__ZN5kaldi5nnet312GetChunkSizeERKNS0_4NnetEii",
            "__ZNK5ngram11NGramOutput14ApplyFinalCostEiNSt3__112basic_stringIcNS1_11char_traitsIcEENS1_9allocatorIcEEEEiiidPdPiS9_S9_bRKNS1_6vectorIiNS5_IiEEEE",
            "_swapdouble",
            "__ZN3cpr5FilesaSEOS0_",
            "__ZNK5kaldi15TransitionModel22TupleToTransitionStateEiiii",
            "_audio_stream_chunk",
            "__ZN5kaldi7DiagGmm16RemoveComponentsERKNSt3__16vectorIiNS1_9allocatorIiEEEEb",
            "__ZN5kaldi17ArbitraryResample10SetIndexesERKNS_6VectorIfEE",
            "_feat_float",
            "__ZN4onnx14AttributeProto9_Internal1gEPKS0_",
            "_AEAudioControllerSendAsynchronousMessageToMainThread",
            "__ZN5kaldi16RenumberEventMapERKNS_8EventMapEPi",
            "_lpcres_val",
            "__ZN5kaldi5nnet316ReadVectorAsCharERNSt3__113basic_istreamIcNS1_11char_traitsIcEEEEbPNS_6VectorIfEE",
            "__ZN7keenasr11ASRResponseC2ERKNSt3__112basic_stringIcNS1_11char_traitsIcEENS1_9allocatorIcEEEES9_S9_S9_fb",
            "_AEAudioComponentDescriptionMake",
            "__ZN5boost10filesystem6detail15path_algorithms19lexically_normal_v4ERKNS0_4pathE",
            "__ZN5ngram17NGramReadContextsERKNSt3__112basic_stringIcNS0_11char_traitsIcEENS0_9allocatorIcEEEEPNS0_6vectorIS6_NS4_IS6_EEEE",
            "__ZN5kaldi17VectorClusterableC2ERKNS_6VectorIfEEf",
            "_curl_global_cleanup",
            "__ZN5kaldi5nnet318NonlinearComponent9ZeroStatsEv",
            "__ZN5kaldi5nnet327DecodableAmNnetLoopedOnline13LogLikelihoodEii",
            "__ZN5kaldi5nnet323ScaleAndOffsetComponent11UnVectorizeERKNS_10VectorBaseIfEE",
            "__ZN5kaldi17ContextDependency4ReadERNSt3__113basic_istreamIcNS1_11char_traitsIcEEEEb",
            "__ZNK5kaldi21RefineClustersOptions5WriteERNSt3__113basic_ostreamIcNS1_11char_traitsIcEEEEb",
            "__ZNK5kaldi16IvectorExtractor7GetAuxfERKNS_30IvectorExtractorUtteranceStatsERKNS_10VectorBaseIdEEPKNS_8SpMatrixIdEE",
            "__ZN3cpr7Session9SetOptionEONS_7PayloadE",
            "__ZN5kaldi5nnet315LinearComponent11UnVectorizeERKNS_10VectorBaseIfEE",
            "__ZNK7Lexicon37CreateLexiconEntriesForIncompleteWordERKNSt3__112basic_stringIcNS0_11char_traitsIcEENS0_9allocatorIcEEEE",
            "__ZNK7keenasr11ASRResponse13GetResponseIdEv",
            "__ZN5boost10filesystem16filesystem_errorD2Ev",
            "__ZN3fst18GrammarFstPreparer24MaybeAddFinalProbToStateEi",
            "__ZN5kaldi10MatrixBaseIdE9AddVecVecIdEEvdRKNS_10VectorBaseIT_EES7_",
            "__ZN3fst19ReadFstKaldiGenericENSt3__112basic_stringIcNS0_11char_traitsIcEENS0_9allocatorIcEEEEb",
            "__ZN5kaldi14WriteEventTypeERNSt3__113basic_ostreamIcNS0_11char_traitsIcEEEEbRKNS0_6vectorINS0_4pairIiiEENS0_9allocatorIS8_EEEE",
            "__ZN3cpr7Session7proceedEv",
            "__ZNK5kaldi5nnet34Nnet12IsOutputNodeEi",
            "__ZN5kaldi12MfccComputer11GetMelBanksEf",
            "_feat_string",
            "__ZN5kaldi26OnlineNnet2FeaturePipeline14AcceptWaveformEfRKNS_10VectorBaseIfEE",
            "__ZN5kaldi5nnet313TdnnComponent4ReadERNSt3__113basic_istreamIcNS2_11char_traitsIcEEEEb",
            "__ZNK7Lexicon14SanitizeStringERKNSt3__112basic_stringIcNS0_11char_traitsIcEENS0_9allocatorIcEEEE",
            "__ZNK5kaldi13DeltaFeatures7ProcessERKNS_10MatrixBaseIfEEiPNS_10VectorBaseIfEE",
            "__ZN7keenasr13DecodingGraph40GetCreatedFilepathForDecodingGraphAtPathERKNSt3__112basic_stringIcNS1_11char_traitsIcEENS1_9allocatorIcEEEE",
            "_curl_url_set",
            "__ZN3cpr7Session12SetInterfaceERKNS_9InterfaceE",
            "__ZNK5kaldi5nnet319MaxpoolingComponent4InfoEv",
            "__ZN3cpr7Session4HeadEv",
            "__ZNK5kaldi5nnet319BinarySumDescriptor4CopyEv",
            "__ZN5kaldi5nnet34Nnet26ProcessComponentConfigLineEiPNS_10ConfigLineE",
            "__ZN4onnx13TypeProto_Map8CopyFromERKS0_",
            "_string_val",
            "__ZNK5kaldi13GeneralMatrix13GetFullMatrixEv",
            "__ZNK5kaldi5nnet34Nnet16GetSomeNodeNamesEPNSt3__16vectorINS2_12basic_stringIcNS2_11char_traitsIcEENS2_9allocatorIcEEEENS7_IS9_EEEE",
            "__ZN5kaldi11GetHmmAsFsaENSt3__16vectorIiNS0_9allocatorIiEEEERKNS_26ContextDependencyInterfaceERKNS_15TransitionModelERKNS_17HTransducerConfigEPNS0_13unordered_mapINS0_4pairIiS4_EEPN3fst9VectorFstINSH_6ArcTplINSH_17TropicalWeightTplIfEEEENSH_11VectorStateISM_NS2_ISM_EEEEEENS_12HmmCacheHashENS0_8equal_toISG_EENS2_INSF_IKSG_SR_EEEEEE",
            "_hs_regexec",
            "_curl_mvprintf",
            "__ZNK5kaldi11HmmTopology5WriteERNSt3__113basic_ostreamIcNS1_11char_traitsIcEEEEb",
            "__ZNK5kaldi5nnet310Descriptor4PartEi",
            "__ZNK5kaldi7FullGmm17GaussianSelectionERKNS_10VectorBaseIfEEiPNSt3__16vectorIiNS5_9allocatorIiEEEE",
            "__ZN5boost10filesystem6detail6renameERKNS0_4pathES4_PNS_6system10error_codeE",
            "__ZN5kaldi15MultiThreadableD0Ev",
            "__ZN5boost10filesystem16filesystem_errorC1ERKNSt3__112basic_stringIcNS2_11char_traitsIcEENS2_9allocatorIcEEEENS_6system10error_codeE",
            "__ZN7Lexicon10IsTagValidERKNSt3__112basic_stringIcNS0_11char_traitsIcEENS0_9allocatorIcEEEE",
            "__ZN5kaldi5nnet318ComputationCheckerC2ERKNS0_23CheckComputationOptionsERKNS0_4NnetERKNS0_15NnetComputationE",
            "__ZN5kaldi15MultiThreadableD2Ev",
            "__ZN4onnx18TypeProto_OptionalC1EPN6google8protobuf5ArenaEb",
            "_val_delete_userdata",
            "_new_lexicon",
            "__ZN7keenasr12NGramBuilder24GetInitialCountsFilenameERKNSt3__112basic_stringIcNS1_11char_traitsIcEENS1_9allocatorIcEEEE",
            "__ZN5kaldi23AppendGeneralMatrixRowsERKNSt3__16vectorIPKNS_13GeneralMatrixENS0_9allocatorIS4_EEEEPS2_",
            "__ZNK5kaldi5nnet38Compiler28CompileBackwardSumDescriptorEiiPNS0_15NnetComputationE",
            "__ZN5kaldi10ConfigLine8GetValueERKNSt3__112basic_stringIcNS1_11char_traitsIcEENS1_9allocatorIcEEEEPNS1_6vectorIiNS5_IiEEEE",
            "__ZN3cpr7Session9SetOptionERKNS_11ReserveSizeE",
            "__ZN5kaldi22OnlinePitchFeatureImplD1Ev",
            "__ZN5G2PEs11PhoneticizeERKNSt3__112basic_stringIcNS0_11char_traitsIcEENS0_9allocatorIcEEEE",
            "__ZN5kaldi13TableEventMapC1EiRKNSt3__13mapIiiNS1_4lessIiEENS1_9allocatorINS1_4pairIKiiEEEEEE",
            "_val_cart",
            "__ZN5kaldi5nnet324ComputeMatrixToSubmatrixERKNS0_15NnetComputationEPNSt3__16vectorINS5_IiNS4_9allocatorIiEEEENS6_IS8_EEEE",
            "__ZNK5kaldi5nnet324ComputationStepsComputer5CheckEv",
            "__ZN5kaldi5nnet323ModelUpdateConsolidatorC1ERKNS0_4NnetEPNS0_15NnetComputationE",
            "__ZN7LexiconC2EPN3fst11SymbolTableES2_PNSt3__16vectorINS3_13unordered_setINS3_12basic_stringIcNS3_11char_traitsIcEENS3_9allocatorIcEEEENS3_4hashISB_EENS3_8equal_toISB_EENS9_ISB_EEEENS9_ISH_EEEERKNS3_10shared_ptrI3G2PEERKSB_",
            "_curl_mime_init",
            "__ZN4onnx14AttributeProtoC1ERKS0_",
            "__ZN7keenasr10RemoveFileERKNSt3__112basic_stringIcNS0_11char_traitsIcEENS0_9allocatorIcEEEE",
            "__ZNK5kaldi13MessageLogger10LogMessageEv",
            "__ZNK4onnx14ValueInfoProto18_InternalSerializeEPhPN6google8protobuf2io19EpsCopyOutputStreamE",
            "__ZN3cpreOERNS_17PostRedirectFlagsES0_",
            "__ZN5kaldi15TransitionModel18ComputeTuplesIsHmmERKNS_26ContextDependencyInterfaceE",
            "__ZN5kaldi5nnet319ComputationExpander20ComputeSubmatrixInfoEv",
            "__ZNK5kaldi5nnet323ScaleAndOffsetComponent5WriteERNSt3__113basic_ostreamIcNS2_11char_traitsIcEEEEb",
            "__ZN4onnx18TypeProto_Sequence9MergeFromERKS0_",
            "__ZN5kaldi5nnet323ConsolidateIoOperationsERKNS0_4NnetEPNS0_15NnetComputationE",
            "__ZN3cpr7Session9SetOptionERKNS_9UserAgentE",
            "__ZN4onnx22StringStringEntryProto14_InternalParseEPKcPN6google8protobuf8internal12ParseContextE",
            "__ZN5kaldi14ArpaFileParserD2Ev",
            "__ZNK5kaldi5nnet317GeneralDescriptor29ConvertToForwardingDescriptorEv",
            "__ZN5kaldi19KMeansClusterPhonesERNSt3__16vectorINS0_4pairINS1_INS2_IiiEENS0_9allocatorIS3_EEEEPNS_11ClusterableEEENS4_IS9_EEEERKNS1_INS1_IiNS4_IiEEEENS4_ISE_EEEERKSE_iiPSG_",
            "__ZN3cpr7Session9SetOptionEONS_4BodyE",
            "__ZN5kaldi29TopSortCompactLatticeIfNeededEPN3fst9VectorFstINS0_6ArcTplINS0_23CompactLatticeWeightTplINS0_16LatticeWeightTplIfEEiEEEENS0_11VectorStateIS7_NSt3__19allocatorIS7_EEEEEE",
            "__ZN5kaldi5nnet325ConstantFunctionComponentC1Ev",
            "__ZN7keenasr18AudioQualityResultC1ENSt3__16vectorIdNS1_9allocatorIdEEEEmddddb",
            "__ZN5boost10filesystem16filesystem_errorC1ERKS1_",
            "__ZN5kaldilsERNSt3__113basic_ostreamIcNS0_11char_traitsIcEEEERKNS_7FullGmmE",
            "__ZNK5kaldi5nnet323ComputationGraphBuilder23ExplainWhyNotComputableEi",
            "_curl_mime_free",
            "_utt_relation_create",
            "_AECBPrepareEmptyBLWithAF",
            "__ZN5kaldi5nnet324PerElementScaleComponent3AddEfRKNS0_9ComponentE",
            "__ZN4onnx10GraphProtoD2Ev",
            "__ZN5kaldi5nnet317ConstantComponent14InitFromConfigEPNS_10ConfigLineE",
            "__ZN4onnx18OperatorSetIdProto12InternalSwapEPS0_",
            "__ZN5kaldi5nnet38Analyzer4InitERKNS0_4NnetERKNS0_15NnetComputationE",
            "__ZN5kaldi21LongestSentenceLengthERKN3fst9VectorFstINS0_6ArcTplINS0_16LatticeWeightTplIfEEEENS0_11VectorStateIS5_NSt3__19allocatorIS5_EEEEEE",
            "__ZN5kaldi5nnet321DerivativeTimeLimiterC1ERKNS0_4NnetEiiPNS0_15NnetComputationE",
            "__ZN15KaldiRecognizer22LoadRescoringResourcesERKNSt3__112basic_stringIcNS0_11char_traitsIcEENS0_9allocatorIcEEEES8_",
            "__ZN5kaldi16MinimumBayesRiskC1ERKN3fst9VectorFstINS1_6ArcTplINS1_23CompactLatticeWeightTplINS1_16LatticeWeightTplIfEEiEEEENS1_11VectorStateIS8_NSt3__19allocatorIS8_EEEEEERKNSA_6vectorIiNSB_IiEEEENS_23MinimumBayesRiskOptionsE",
            "__ZN5boost10filesystem6detail12current_pathEPNS_6system10error_codeE",
            "__ZN7keenasr13TempDirectoryC1ERKNSt3__112basic_stringIcNS1_11char_traitsIcEENS1_9allocatorIcEEEE",
            "__ZN5kaldi21RefineClustersOptions4ReadERNSt3__113basic_istreamIcNS1_11char_traitsIcEEEEb",
            "__ZNK4onnx16TensorAnnotation18_InternalSerializeEPhPN6google8protobuf2io19EpsCopyOutputStreamE",
            "__ZN5kaldi5nnet39attention23GetAttentionDotProductsEfRKNS_12CuMatrixBaseIfEES5_PS3_",
            "_curl_mime_subparts",
            "__ZN4onnx8MapProtoC2EPN6google8protobuf5ArenaEb",
            "__ZN5boost10filesystem6detail6removeERKNS0_4pathEPNS_6system10error_codeE",
            "__ZN7keenasr8Uploader18CreateDataUploaderERKNSt3__112basic_stringIcNS1_11char_traitsIcEENS1_9allocatorIcEEEES9_",
            "_en_exp_letters",
            "__ZN5kaldi17BottomUpClusterer13MergeClustersEii",
            "__ZNK5kaldi5nnet315NnetComputation5PrintERNSt3__113basic_ostreamIcNS2_11char_traitsIcEEEERKNS0_4NnetE",
            "__ZNK5kaldi5nnet319ComputationAnalysis11FirstAccessEi",
            "__ZN7keenasr13DecodingGraph43GetOriginalLMFilepathForDecodingGraphAtPathERKNSt3__112basic_stringIcNS1_11char_traitsIcEENS1_9allocatorIcEEEE",
            "__ZN5kaldi13FbankComputerC2ERKS0_",
            "__ZN5kaldi13FbankComputerC1ERKS0_",
            "__ZNK5kaldi15TransitionModel20GetTransitionLogProbEi",
            "__ZN7keenasr22PronunciationEvaluator11InitDecoderEv",
            "__ZNK5kaldi5nnet319MaxpoolingComponent9PropagateEPKNS0_27ComponentPrecomputedIndexesERKNS_12CuMatrixBaseIfEEPS6_",
            "__ZNK7keenasr11ASRResponse20GetDecodingGraphNameEv",
            "__ZN5kaldi5nnet322PrintCommandAttributesERNSt3__113basic_ostreamIcNS1_11char_traitsIcEEEERKNS1_6vectorINS0_17CommandAttributesENS1_9allocatorIS8_EEEE",
            "__ZN3cpr7Session9SetHeaderERKNSt3__13mapINS1_12basic_stringIcNS1_11char_traitsIcEENS1_9allocatorIcEEEES8_NS_22CaseInsensitiveCompareENS6_INS1_4pairIKS8_S8_EEEEEE",
            "__ZN5boost10filesystem16filesystem_errorC2EPKcRKNS0_4pathENS_6system10error_codeE",
            "__ZN5kaldi19SortPosteriorByPdfsERKNS_15TransitionModelEPNSt3__16vectorINS4_INS3_4pairIifEENS3_9allocatorIS6_EEEENS7_IS9_EEEE",
            "__ZNK5kaldi13SolverOptions5CheckEv",
            "_lpc_resynth_sfp",
            "__ZN4onnx16TypeProto_Tensor21CheckTypeAndMergeFromERKN6google8protobuf11MessageLiteE",
            "__ZNK5kaldi5nnet318FixedBiasComponent9PropagateEPKNS0_27ComponentPrecomputedIndexesERKNS_12CuMatrixBaseIfEEPS6_",
            "__ZNK5kaldi20OnlineIvectorFeature16PrintDiagnosticsEv",
            "__zf_log_write_d",
            "__Z26core_TriggerPhraseCallbackv",
            "__ZN5kaldi5nnet346SpecAugmentTimeMaskComponentPrecomputedIndexes4ReadERNSt3__113basic_istreamIcNS2_11char_traitsIcEEEEb",
            "__ZN5kaldi14LinearResample20SetIndexesAndWeightsEv",
            "__ZNK5kaldi5nnet313NoOpComponent5WriteERNSt3__113basic_ostreamIcNS2_11char_traitsIcEEEEb",
            "_utterance_val",
            "__ZN5boost10filesystem6detail15path_algorithms20replace_extension_v4ERNS0_4pathERKS3_",
            "__ZN5kaldi5nnet315ComputeAccuracyERKNS_13GeneralMatrixERKNS_12CuMatrixBaseIfEEPfS8_PNS_10VectorBaseIfEESB_",
            "__ZN5kaldi22TopSortLatticeIfNeededEPN3fst9VectorFstINS0_6ArcTplINS0_16LatticeWeightTplIfEEEENS0_11VectorStateIS5_NSt3__19allocatorIS5_EEEEEE",
            "__ZN7keenasr10Recognizer12CheckLicenseEv",
            "__ZNK4onnx16TypeProto_Opaque13SetCachedSizeEi",
            "__ZNK5kaldi5nnet330TimeHeightConvolutionComponent9VectorizeEPNS_10VectorBaseIfEE",
            "__ZN5kaldi34CompartmentalizedBottomUpClusterer16ReconstructQueueEv",
            "__ZN4onnx26TensorShapeProto_DimensionC1EPN6google8protobuf5ArenaEb",
            "__ZNK5kaldi5nnet330TimeHeightConvolutionComponent8BackpropERKNSt3__112basic_stringIcNS2_11char_traitsIcEENS2_9allocatorIcEEEEPKNS0_27ComponentPrecomputedIndexesERKNS_12CuMatrixBaseIfEESH_SH_PvPNS0_9ComponentEPSF_",
            "__ZN5kaldi5nnet325CachingOptimizingCompiler9ReadCacheERNSt3__113basic_istreamIcNS2_11char_traitsIcEEEEb",
            "__ZNK5kaldi5nnet319DistributeComponent12IsComputableERKNS0_19MiscComputationInfoERKNS0_5IndexERKNS0_8IndexSetEPNSt3__16vectorIS5_NSB_9allocatorIS5_EEEE",
            "__ZN5kaldi29RescoreCompactLatticeInternalEPKNS_15TransitionModelEfPNS_18DecodableInterfaceEPN3fst9VectorFstINS5_6ArcTplINS5_23CompactLatticeWeightTplINS5_16LatticeWeightTplIfEEiEEEENS5_11VectorStateISC_NSt3__19allocatorISC_EEEEEE",
            "__ZNK5kaldi5nnet320ConvolutionComponent8InputDimEv",
            "__ZN3cpr7ProxiesC1ERKNSt3__13mapINS1_12basic_stringIcNS1_11char_traitsIcEENS1_9allocatorIcEEEES8_NS1_4lessIS8_EENS6_INS1_4pairIKS8_S8_EEEEEE",
            "__ZN7keenasr10Recognizer22ResetSpeakerAdaptationEv",
            "__ZN3cpr10ThreadPoolC1EmmNSt3__16chrono8durationIxNS1_5ratioILl1ELl1000EEEEE",
            "__ZN5kaldi5nnet320BlockAffineComponent4InitEiiifff",
            "__ZN5kaldi8MelBanksC1ERKNS_15MelBanksOptionsERKNS_22FrameExtractionOptionsEf",
            "_cg_is_pau",
            "__ZN5kaldi5nnet322SplitLocationsBackwardERKNSt3__16vectorINS2_INS1_4pairIiiEENS1_9allocatorIS4_EEEENS5_IS7_EEEEPS9_",
            "__ZN5kaldi5nnet328ComputeNnetComputationEpochsERKNS0_4NnetEPNSt3__16vectorIiNS4_9allocatorIiEEEE",
            "__ZN5kaldi5nnet330NaturalGradientAffineComponentC2ERKS1_",
            "__ZN5kaldi12CuVectorBaseIdE11CopyFromVecIfEEvRKNS0_IT_EE",
            "__ZN5kaldi17VectorClusterable3SubERKNS_11ClusterableE",
            "__ZNK5kaldi5nnet323ScaleAndOffsetComponent8BackpropERKNSt3__112basic_stringIcNS2_11char_traitsIcEENS2_9allocatorIcEEEEPKNS0_27ComponentPrecomputedIndexesERKNS_12CuMatrixBaseIfEESH_SH_PvPNS0_9ComponentEPSF_",
            "__ZN5kaldi5nnet320ConvolutionComponent13PerturbParamsEf",
            "__ZN7keenasr9ASRResultC2ERKS0_",
            "__ZN5kaldi5nnet321ComputationRenumberer13RenumberMemosEv",
            "__ZN7keenasr8Uploader4StopEv",
            "__ZNK5kaldi5nnet321DerivativeTimeLimiter9RowIsKeptEii",
            "__ZNK5kaldi5nnet327BackpropTruncationComponent4CopyEv",
            "__ZN4onnx9NodeProto12InternalSwapEPS0_",
            "_val_equal",
            "__ZN7G2PEnUs11PhoneticizeERKNSt3__112basic_stringIcNS0_11char_traitsIcEENS0_9allocatorIcEEEE",
            "__ZN4onnx16TensorShapeProtoD0Ev",
            "__ZN7keenasr9ASRResultC2EOS0_",
            "__ZNK5kaldi7FullGmm22ComponentLogLikelihoodERKNS_10VectorBaseIfEEi",
            "__ZN4onnx19TensorProto_Segment5ClearEv",
            "__ZN4onnx17TrainingInfoProto12InternalSwapEPS0_",
            "__ZN5kaldi5nnet318CompositeComponent12SetComponentEiPNS0_9ComponentE",
            "__ZNK5kaldi5nnet316PermuteComponent9PropagateEPKNS0_27ComponentPrecomputedIndexesERKNS_12CuMatrixBaseIfEEPS6_",
            "__ZNK5kaldi5nnet34Nnet15IsComponentNodeEi",
            "_val_delete_audio_streaming_info",
            "__ZN5kaldi20OnlineIvectorFeatureD2Ev",
            "__ZN7keenasr13DecodingGraph20GetTriggerPhrasePathERKNSt3__112basic_stringIcNS1_11char_traitsIcEENS1_9allocatorIcEEEERKNS_10RecognizerE",
            "__ZNK5kaldi5nnet323RepeatedAffineComponent9VectorizeEPNS_10VectorBaseIfEE",
            "__ZNK5kaldi5nnet329SwitchingForwardingDescriptor15GetScaleForNodeEi",
            "__ZN3cpr7Session10SetPayloadEONS_7PayloadE",
            "__ZNK5kaldi5nnet320FixedAffineComponent9PropagateEPKNS0_27ComponentPrecomputedIndexesERKNS_12CuMatrixBaseIfEEPS6_",
            "__ZN3cpr4util5splitERKNSt3__112basic_stringIcNS1_11char_traitsIcEENS1_9allocatorIcEEEEc",
            "_MlasGemvFloatKernel",
            "__ZN5kaldi5nnet323time_height_convolution22ConvolutionComputation4ReadERNSt3__113basic_istreamIcNS3_11char_traitsIcEEEEb",
            "__ZN5kaldi5nnet314PnormComponent4ReadERNSt3__113basic_istreamIcNS2_11char_traitsIcEEEEb",
            "_val_less",
            "__ZN5kaldi12MfccComputerD2Ev",
            "__ZN3cpr7ProxiesC2ERKNSt3__13mapINS1_12basic_stringIcNS1_11char_traitsIcEENS1_9allocatorIcEEEES8_NS1_4lessIS8_EENS6_INS1_4pairIKS8_S8_EEEEEE",
            "__ZN5kaldi5nnet315LinearComponentC2ERKS1_",
            "__ZN5kaldi25LatticeForwardBackwardMmiERKNS_15TransitionModelERKN3fst9VectorFstINS3_6ArcTplINS3_16LatticeWeightTplIfEEEENS3_11VectorStateIS8_NSt3__19allocatorIS8_EEEEEERKNSA_6vectorIiNSB_IiEEEEbbbPNSH_INSH_INSA_4pairIifEENSB_ISN_EEEENSB_ISP_EEEE",
            "__Z28CircularBufferSamplesWrittenP14CircularBuffer",
            "__ZNK4onnx22TypeProto_SparseTensor12ByteSizeLongEv",
            "__ZN4onnx10ModelProto21CheckTypeAndMergeFromERKN6google8protobuf11MessageLiteE",
            "__ZNK5kaldi5nnet34Nnet16IsDescriptorNodeEi",
            "__ZNK20KaldiNNet3Recognizer22FrameSubsamplingFactorEv",
            "_flite_get_param_float",
            "_flite_get_param_int",
            "__ZNK5kaldi5nnet318ComputationChecker25CheckComputationDebugInfoEv",
            "__ZNK7keenasr21AudioQualityEstimator29GetMeanAndPeakRMSFromSegmentsERKNSt3__16vectorINS1_5tupleIJffEEENS1_9allocatorIS4_EEEERdSA_",
            "__ZNK5kaldi5nnet330OutputGruNonlinearityComponent9VectorizeEPNS_10VectorBaseIfEE",
            "__ZN5kaldi5nnet315AffineComponent4InitEiiff",
            "__ZN5kaldi11PlpComputerD2Ev",
            "__ZN5kaldi5nnet320ConvolutionComponentC2ERKNS_12CuMatrixBaseIfEERKNS_12CuVectorBaseIfEEiiiiiiiNS1_23TensorVectorizationTypeEf",
            "__ZNK5kaldi5nnet319DistributeComponent5WriteERNSt3__113basic_ostreamIcNS2_11char_traitsIcEEEEb",
            "__ZN5kaldi5nnet313ExampleMerger13AcceptExampleEPNS0_11NnetExampleE",
            "__ZN5kaldi5nnet318ComputationRequest4ReadERNSt3__113basic_istreamIcNS2_11char_traitsIcEEEEb",
            "__ZNK5kaldi5nnet317ConstantComponent4CopyEv",
            "__ZNK5kaldi5nnet315IoSpecificationeqERKS1_",
            "__ZNK5kaldi5nnet323time_height_convolution22ConvolutionComputation5WriteERNSt3__113basic_ostreamIcNS3_11char_traitsIcEEEEb",
            "_AEAudioBufferListOffset",
            "__ZN5boost10filesystem10emit_errorEiRKNS0_4pathEPNS_6system10error_codeEPKc",
            "__ZNK5kaldi5nnet34Nnet8InputDimERKNSt3__112basic_stringIcNS2_11char_traitsIcEENS2_9allocatorIcEEEE",
            "__ZN5kaldi5nnet311NnetTrainerD2Ev",
            "__ZN5kaldirsERNSt3__113basic_istreamIcNS0_11char_traitsIcEEEERNS_7FullGmmE",
            "_lex_lookup",
            "_new_lts_rules",
            "_curl_global_init",
            "__ZN3cpr7Session9SetOptionEONS_19ProxyAuthenticationE",
            "__ZN7keenasr11ASRResponseC2ERS0_",
            "__ZN5kaldi5nnet325DecodableNnetSimpleLooped12AdvanceChunkEv",
            "__ZN5kaldi17SplitDecisionTreeERKNS_8EventMapERKNSt3__16vectorINS3_4pairINS4_INS5_IiiEENS3_9allocatorIS6_EEEEPNS_11ClusterableEEENS7_ISC_EEEERNS_9QuestionsEfiPiPfSK_",
            "__ZNK5kaldi16IvectorExtractor18GetIvectorDistMeanERKNS_30IvectorExtractorUtteranceStatsEPNS_10VectorBaseIdEEPNS_8SpMatrixIdEE",
            "__ZN5kaldi5nnet318NormalizeComponentC2ERKS1_",
            "__ZNK5kaldi5nnet317GeneralDescriptor13GetAppendTermEi",
            "__ZN5kaldi5nnet311NnetTrainerD1Ev",
            "__ZNK5kaldi5nnet324GruNonlinearityComponent9PropagateEPKNS0_27ComponentPrecomputedIndexesERKNS_12CuMatrixBaseIfEEPS6_",
            "__ZN7keenasr10Recognizer23InitWithASRBundleAtPathERKNSt3__112basic_stringIcNS1_11char_traitsIcEENS1_9allocatorIcEEEEb",
            "__ZNK4onnx13OptionalProto18_InternalSerializeEPhPN6google8protobuf2io19EpsCopyOutputStreamE",
            "__ZN5kaldi34CompartmentalizedBottomUpClusterer7ClusterEPNSt3__16vectorINS2_IPNS_11ClusterableENS1_9allocatorIS4_EEEENS5_IS7_EEEEPNS2_INS2_IiNS5_IiEEEENS5_ISC_EEEE",
            "__ZNK5kaldi5nnet319ComputationAnalysis10LastAccessEi",
            "__ZNK5kaldi5nnet318ComputationChecker30CheckComputationMatrixAccessesEv",
            "__ZN5kaldi5nnet312PrintIndexesERNSt3__113basic_ostreamIcNS1_11char_traitsIcEEEERKNS1_6vectorINS0_5IndexENS1_9allocatorIS8_EEEE",
            "__ZN4onnx10ModelProtoC2ERKS0_",
            "_curl_mvfprintf",
            "__ZNK5kaldi5nnet313TdnnComponent13NumParametersEv",
            "__ZN5boost10filesystem6detail18utf8_codecvt_facetC2Em",
            "__ZNK5kaldi5nnet38Compiler26CompileBackwardFromIndexesEiifRKNSt3__16vectorIiNS2_9allocatorIiEEEEPNS0_15NnetComputationE",
            "__ZN5kaldi5nnet320FixedAffineComponent4InitERKNS_12CuMatrixBaseIfEE",
            "__ZN5kaldi7DiagGmm15RemoveComponentEib",
            "__ZN4onnx9NodeProtoD1Ev",
            "__ZN5kaldi5nnet330NaturalGradientAffineComponentC1ERKNS_12CuMatrixBaseIfEERKNS_12CuVectorBaseIfEE",
            "__ZNK4onnx16TensorAnnotation11GetTypeNameEv",
            "__ZN5kaldi5nnet322MaxOutputTimeInRequestERKNS0_18ComputationRequestE",
            "__ZNK5kaldi5nnet310Descriptor15GetDependenciesERKNS0_5IndexEPNSt3__16vectorINS5_4pairIiS2_EENS5_9allocatorIS8_EEEE",
            "_val_delete_voice",
            "__ZN3fst19SymbolTableToStringEPKNS_11SymbolTableEPNSt3__112basic_stringIcNS3_11char_traitsIcEENS3_9allocatorIcEEEE",
            "_cst_regex_match",
            "__ZN4onnx13FunctionProto12InternalSwapEPS0_",
            "__ZN5kaldi15TransitionModel21ComputeDerivedOfProbsEv",
            "__ZN5kaldi5nnet330TimeHeightConvolutionComponentC2Ev",
            "__ZN5boost10filesystem6detail16create_hard_linkERKNS0_4pathES4_PNS_6system10error_codeE",
            "__ZN5kaldi18OnlineProcessPitchC2ERKNS_19ProcessPitchOptionsEPNS_22OnlineFeatureInterfaceE",
            "__ZN3cpr7Session9SetOptionERKNS_3UrlE",
            "__ZN5kaldi18OnlineDeltaFeatureC2ERKNS_20DeltaFeaturesOptionsEPNS_22OnlineFeatureInterfaceE",
            "__ZN5kaldi34CompartmentalizedBottomUpClusterer8RenumberEi",
            "__ZN5boost10filesystem16filesystem_errorD0Ev",
            "__ZNK5kaldi21IvectorExtractorStats9CheckDimsERKNS_16IvectorExtractorE",
            "__ZN5kaldi5nnet313NoOpComponent4ReadERNSt3__113basic_istreamIcNS2_11char_traitsIcEEEEb",
            "__ZNK5kaldi5nnet328RoundingForwardingDescriptor15GetScaleForNodeEi",
            "_curl_mime_type",
            "__ZN4onnx14AttributeProto14_InternalParseEPKcPN6google8protobuf8internal12ParseContextE",
            "__ZN5kaldi5nnet314ReadEditConfigERNSt3__113basic_istreamIcNS1_11char_traitsIcEEEEPNS0_4NnetE",
            "__ZNK7Lexicon21CreateLexiconForWordsERKN3fst11SymbolTableE",
            "__ZN5kaldi5nnet318BatchNormComponent11SetTestModeEb",
            "__ZNK5kaldi11HmmTopology13NumPdfClassesEi",
            "__ZN3rtc18webrtc_checks_impl13WriteFatalLogENSt3__117basic_string_viewIcNS1_11char_traitsIcEEEE",
            "__ZN5kaldi14PossibleValuesEiRKNSt3__16vectorINS0_4pairINS1_INS2_IiiEENS0_9allocatorIS3_EEEEPNS_11ClusterableEEENS4_IS9_EEEEPNS1_IiNS4_IiEEEE",
            "__ZN5kaldi5nnet317ConstantComponent4ReadERNSt3__113basic_istreamIcNS2_11char_traitsIcEEEEb",
            "__ZN5kaldi5nnet323ScaleAndOffsetComponent3AddEfRKNS0_9ComponentE",
            "__ZN3cpr7Session16CompleteDownloadE8CURLcode",
            "__ZN5boost10filesystem6detail15path_algorithms12decrement_v3ERNS0_11path_detail13path_iteratorE",
            "__ZN5kaldi30LatticeIncrementalDeterminizer21AcceptRawLatticeChunkEPN3fst9VectorFstINS1_6ArcTplINS1_16LatticeWeightTplIfEEEENS1_11VectorStateIS6_NSt3__19allocatorIS6_EEEEEE",
            "__ZN5kaldi5nnet317ConstantComponent11UnVectorizeERKNS_10VectorBaseIfEE",
            "__ZN5kaldi5nnet330OutputGruNonlinearityComponentC1ERKS1_",
            "__ZN5kaldi30WriteIntegerVectorVectorSimpleERKNSt3__112basic_stringIcNS0_11char_traitsIcEENS0_9allocatorIcEEEERKNS0_6vectorINS9_IiNS4_IiEEEENS4_ISB_EEEE",
            "__ZN3cpr3anyENS_17PostRedirectFlagsE",
            "__ZN5kaldi13FbankComputerD2Ev",
            "__ZNK5kaldi15TransitionModel17GetTransitionProbEi",
            "__ZNK5kaldi5nnet319ComputationAnalysis22DataInvalidatedCommandEii",
            "__ZN5kaldi13GeneralMatrixaSERKNS_10MatrixBaseIfEE",
            "__ZN4onnx9TypeProtoC2EPN6google8protobuf5ArenaEb",
            "__ZNK20KaldiNNet3Recognizer17RecognitionResultEbRKNSt3__16vectorIiNS0_9allocatorIiEEEE",
            "__ZN5kaldi5nnet321OnlineNaturalGradientC1ERKS1_",
            "__ZN5kaldi5nnet331IdentifyMatrixArgsInComputationEPNS0_15NnetComputationEPNSt3__16vectorIPiNS3_9allocatorIS5_EEEE",
            "_val_dec_refcount",
            "__ZN4onnx22StringStringEntryProtoD0Ev",
            "__ZN5kaldi5nnet317computation_graph15AddInputToGraphERKNS0_18ComputationRequestERKNS0_4NnetEPNS0_16ComputationGraphE",
            "_delete_cst_regex",
            "__ZN5kaldi8SpMatrixIfE7AddVec2IfEEvfRKNS_10VectorBaseIT_EE",
            "__ZN5kaldi5nnet323RepeatedAffineComponent6UpdateERKNS_12CuMatrixBaseIfEES5_",
            "__ZN5kaldi5nnet314PnormComponent14InitFromConfigEPNS_10ConfigLineE",
            "__ZN5kaldi11PlpComputerD1Ev",
            "__ZN5kaldi5nnet321ComputationRenumberer8RenumberEv",
            "__ZN5boost10filesystem6detail12read_symlinkERKNS0_4pathEPNS_6system10error_codeE",
            "__ZN3cpr7Session9SetOptionERKNS_9LocalPortE",
            "__ZNK5kaldi5nnet328RestrictedAttentionComponent15BackpropOneHeadERKNS0_23time_height_convolution24ConvolutionComputationIoERKNS_12CuMatrixBaseIfEES9_S9_PS7_",
            "__ZN5kaldi19WriteBuildTreeStatsERNSt3__113basic_ostreamIcNS0_11char_traitsIcEEEEbRKNS0_6vectorINS0_4pairINS6_INS7_IiiEENS0_9allocatorIS8_EEEEPNS_11ClusterableEEENS9_ISE_EEEE",
            "__ZNK7keenasr11ASRResponse15GetJsonFilenameEv",
            "__ZN5kaldi5nnet39attention19ApplyScalesToOutputEfRKNS_12CuMatrixBaseIfEES5_PS3_",
            "__ZNK5kaldi5nnet328SpecAugmentTimeMaskComponent4CopyEv",
            "__ZN5kaldi5nnet320LimitDerivativeTimesERKNS0_4NnetEiiPNS0_15NnetComputationE",
            "__ZN5kaldi5nnet319NnetOptimizeOptions4ReadERNSt3__113basic_istreamIcNS2_11char_traitsIcEEEEb",
            "__ZN5kaldi5nnet317ConstantComponent3AddEfRKNS0_9ComponentE",
            "__ZNK5ngram11NGramOutput16GetAndShowSymbolEiddPiPbb",
            "_cg_state_index",
            "__ZN4onnx9TypeProtoC2ERKS0_",
            "__ZN5kaldi14ClusterTopDownERKNSt3__16vectorIPNS_11ClusterableENS0_9allocatorIS3_EEEEiPS6_PNS1_IiNS4_IiEEEENS_18TreeClusterOptionsE",
            "__ZNK5kaldi5nnet319DistributeComponent15GetInputIndexesERKNS0_19MiscComputationInfoERKNS0_5IndexEPNSt3__16vectorIS5_NS8_9allocatorIS5_EEEE",
            "_val_length",
            "__ZN5kaldi15OnlineCmvnStateC1ERKS0_",
            "__ZN4onnx8MapProtoC1EPN6google8protobuf5ArenaEb",
            "__ZN4onnx18TypeProto_Optional14_InternalParseEPKcPN6google8protobuf8internal12ParseContextE",
            "_curl_getenv",
            "__ZN3cpr7Session9SetOptionEONS_7ProxiesE",
            "__ZN5kaldi13SplitEventMap4ReadERNSt3__113basic_istreamIcNS1_11char_traitsIcEEEEb",
            "__ZN3cpr7Session3PutEv",
            "__ZN5kaldi5nnet319NnetToDirectedGraphERKNS0_4NnetEPNSt3__16vectorINS5_IiNS4_9allocatorIiEEEENS6_IS8_EEEE",
            "_cst_strrchr",
            "__ZNK5kaldi5nnet327BackpropTruncationComponent4InfoEv",
            "_AEMixerBufferDequeue",
            "__ZN5kaldi16CompressedMatrix5ClearEv",
            "__ZN5boost10filesystem6detail15path_algorithms12increment_v3ERNS0_11path_detail13path_iteratorE",
            "__ZNK5kaldi16IvectorExtractor23GetAcousticAuxfVarianceERKNS_30IvectorExtractorUtteranceStatsE",
            "__ZN5kaldi5nnet315FindOrphanNodesERKNS0_4NnetEPNSt3__16vectorIiNS4_9allocatorIiEEEE",
            "__ZN7keenasr12NGramBuilder22DumpAugmentationNGramsERNSt3__16vectorINS1_12basic_stringIcNS1_11char_traitsIcEENS1_9allocatorIcEEEENS6_IS8_EEEERKS8_",
            "__ZN3cpr7Session17GetFullRequestUrlEv",
            "__ZN5kaldi13ReadRootsFileERNSt3__113basic_istreamIcNS0_11char_traitsIcEEEEPNS0_6vectorINS6_IiNS0_9allocatorIiEEEENS7_IS9_EEEEPNS6_IbNS7_IbEEEESF_",
            "__ZN5kaldi10OnlineCmvnD2Ev",
            "_f0_targets_to_pm",
            "__ZN5kaldi16IvectorExtractor18ComputeDerivedVarsEi",
            "__ZN5kaldi14RefineClustersERKNSt3__16vectorIPNS_11ClusterableENS0_9allocatorIS3_EEEEPS6_PNS1_IiNS4_IiEEEENS_21RefineClustersOptionsE",
            "__ZN4onnx11TensorProto9MergeFromERKS0_",
            "__ZN5kaldi14PitchFrameInfoC1Ei",
            "__ZN4onnx13OptionalProto18clear_tensor_valueEv",
            "__ZN6google8protobuf5Arena18CreateMaybeMessageIN4onnx26TensorShapeProto_DimensionEJEEEPT_PS1_DpOT0_",
            "__ZN5kaldi5nnet34Nnet15RemoveSomeNodesERKNSt3__16vectorIiNS2_9allocatorIiEEEE",
            "__ZNK5kaldi5nnet317SumGroupComponent4CopyEv",
            "__ZNK5kaldi5nnet317GeneralDescriptor23GetNormalizedDescriptorEv",
            "__ZN5kaldi5nnet330NaturalGradientAffineComponentC1ERKS1_",
            "__ZN5kaldi11PlpComputerC2ERKNS_10PlpOptionsE",
            "_MlasSymQgemmS8KernelSdot",
            "__ZNK5kaldi5nnet318FixedBiasComponent4CopyEv",
            "__ZN5boost10filesystem6detail15path_algorithms14lex_compare_v4ENS0_11path_detail13path_iteratorERKS4_S4_S6_",
            "__ZNK5boost10filesystem6detail18utf8_codecvt_facet5do_inER11__mbstate_tPKcS6_RS6_PwS8_RS8_",
            "__ZN5kaldi14WritePosteriorERNSt3__113basic_ostreamIcNS0_11char_traitsIcEEEEbRKNS0_6vectorINS6_INS0_4pairIifEENS0_9allocatorIS8_EEEENS9_ISB_EEEE",
            "__ZN6google8protobuf5Arena18CreateMaybeMessageIN4onnx10GraphProtoEJEEEPT_PS1_DpOT0_",
            "_MlasGemmU8X8KernelNeon",
            "__ZN5kaldi7FullGmm6ResizeEii",
            "__ZNK3cpr6Cookie10GetExpiresEv",
            "__ZN5kaldi11CuArrayBaseIiE3SetERKi",
            "__ZN3cpr4util11parseHeaderERKNSt3__112basic_stringIcNS1_11char_traitsIcEENS1_9allocatorIcEEEEPS7_SA_",
            "__ZNK5kaldi5nnet332ReplaceIndexForwardingDescriptor15GetScaleForNodeEi",
            "__ZN7keenasr12NGramBuilder29GetAugmentationCountsFilenameERKNSt3__112basic_stringIcNS1_11char_traitsIcEENS1_9allocatorIcEEEE",
            "__ZN3cpr7Session11SetRedirectERKNS_8RedirectE",
            "__ZN5kaldi5nnet314MatrixExtender6ExtendEPiS2_",
            "__ZN3fst17InverseContextFst9FindLabelERKNSt3__16vectorIiNS1_9allocatorIiEEEE",
            "__ZN5kaldi18OnlinePitchFeature8GetFrameEiPNS_10VectorBaseIfEE",
            "__ZN5kaldi7FullGmm16RemoveComponentsERKNSt3__16vectorIiNS1_9allocatorIiEEEEb",
            "__ZN5kaldi5nnet323ComputationGraphBuilder20DecrementUsableCountEi",
            "__ZN5boost10filesystem6detail19weakly_canonical_v3ERKNS0_4pathES4_PNS_6system10error_codeE",
            "_val_audio_streaming_info",
            "__ZN5kaldi5nnet323ModelUpdateConsolidator29ConsolidateUpdateForComponentEiRKNSt3__16vectorIiNS2_9allocatorIiEEEE",
            "__ZNK4onnx19TensorProto_Segment12ByteSizeLongEv",
            "__ZN5kaldi5nnet326MemoryCompressionOptimizer17ModifyComputationEv",
            "__ZNK5kaldi5nnet320ConvolutionComponent4CopyEv",
            "__ZN3fst6script17FarCompileStringsERKNSt3__16vectorINS1_12basic_stringIcNS1_11char_traitsIcEENS1_9allocatorIcEEEENS6_IS8_EEEERKS8_SE_SE_RKNS_7FarTypeEiNS_12FarEntryTypeENS_12FarTokenTypeESE_SE_bbbSE_SE_",
            "__ZN5kaldi5nnet34Nnet27ProcessOutputNodeConfigLineEiPNS_10ConfigLineE",
            "__ZN4onnx17SparseTensorProtoC1EPN6google8protobuf5ArenaEb",
            "_curl_multi_fdset",
            "__ZN7LexiconD1Ev",
            "__ZNK5kaldi5nnet310Descriptor12IsComputableERKNS0_5IndexERKNS0_9CindexSetEPNSt3__16vectorINS8_4pairIiS2_EENS8_9allocatorISB_EEEE",
            "__ZNK5kaldi5nnet324ComputationRequestHasherclEPKNS0_18ComputationRequestE",
            "__ZN5kaldi9Questions4ReadERNSt3__113basic_istreamIcNS1_11char_traitsIcEEEEb",
            "__ZN5kaldi33LatticeForwardBackwardMpeVariantsERKNS_15TransitionModelERKNSt3__16vectorIiNS3_9allocatorIiEEEERKN3fst9VectorFstINSA_6ArcTplINSA_16LatticeWeightTplIfEEEENSA_11VectorStateISF_NS5_ISF_EEEEEES9_NS3_12basic_stringIcNS3_11char_traitsIcEENS5_IcEEEEbPNS4_INS4_INS3_4pairIifEENS5_ISS_EEEENS5_ISU_EEEE",
            "__ZN5kaldi5nnet321ComputationRenumberer16RenumberMatricesEv",
            "__ZN3fst8internal14DenseSymbolMapC1Ev",
            "__ZNK5kaldi5nnet318ComputationChecker23CheckComputationIndexesEv",
            "_apply_synth_module",
            "__ZN7keenasr9ASRResultC1Ev",
            "__ZN4onnx22StringStringEntryProtoC2EPN6google8protobuf5ArenaEb",
            "__ZNK5kaldi5nnet313NoOpComponent4InfoEv",
            "__ZN5kaldi5nnet317UtteranceSplitter20AccStatsForUtteranceEiRKNSt3__16vectorINS0_13ChunkTimeInfoENS2_9allocatorIS4_EEEE",
            "__ZN5kaldi5nnet39CindexSetC1ERKNS0_16ComputationGraphE",
            "__ZN7Lexicon18LexiconObject2ListEv",
            "__ZN5kaldi5nnet313CollapseModelERKNS0_19CollapseModelConfigEPNS0_4NnetE",
            "__ZN5kaldi5nnet327DecodableAmNnetSimpleLooped13LogLikelihoodEii",
            "__ZN3cpr4util13writeFunctionEPcmmPNSt3__112basic_stringIcNS2_11char_traitsIcEENS2_9allocatorIcEEEE",
            "__ZNK5kaldi5nnet324RectifiedLinearComponent8BackpropERKNSt3__112basic_stringIcNS2_11char_traitsIcEENS2_9allocatorIcEEEEPKNS0_27ComponentPrecomputedIndexesERKNS_12CuMatrixBaseIfEESH_SH_PvPNS0_9ComponentEPSF_",
            "__ZN5boost10filesystem6detail15path_algorithms21find_parent_path_sizeERKNS0_4pathE",
            "_delete_lexicon",
            "_lts_apply_val",
            "__ZNK5kaldi20OnlineIvectorFeature18GetAdaptationStateEPNS_37OnlineIvectorExtractorAdaptationStateE",
            "__ZN5kaldi19FindBestSplitForKeyERKNSt3__16vectorINS0_4pairINS1_INS2_IiiEENS0_9allocatorIS3_EEEEPNS_11ClusterableEEENS4_IS9_EEEERKNS_9QuestionsEiPNS1_IiNS4_IiEEEE",
            "__ZN5kaldi5nnet39CindexSetC2ERKNS0_16ComputationGraphERKNSt3__16vectorINS0_23ComputationGraphBuilder10CindexInfoENS5_9allocatorIS8_EEEEb",
            "__ZN7keenasr13DecodingGraph38GetNgramFilepathForDecodingGraphAtPathERKNSt3__112basic_stringIcNS1_11char_traitsIcEENS1_9allocatorIcEEEE",
            "__ZNK5ngram20NGramExtendedContext10HasContextERKNSt3__16vectorIiNS1_9allocatorIiEEEEb",
            "__ZN15KaldiRecognizerD2Ev",
            "_MlasConvSymS8KernelDotLd64",
            "__ZN3cpr7Session7SetBodyERKNS_4BodyE",
            "__ZN4onnx14ValueInfoProto12InternalSwapEPS0_",
            "__ZNK4onnx16TensorShapeProto13IsInitializedEv",
            "__ZN4onnx16TypeProto_TensorC1ERKS0_",
            "__ZN5kaldi5nnet323RepeatedAffineComponent3AddEfRKNS0_9ComponentE",
            "__ZNK5kaldi21IvectorExtractorStats29GetOrthogonalIvectorTransformERKNS_9SubMatrixIdEEPNS_16IvectorExtractorEPNS_6MatrixIdEE",
            "__ZN5kaldi5nnet315LinearComponentC1ERKNS_8CuMatrixIfEE",
            "__ZN5kaldi5nnet323ComputeVariableAccessesERKNS0_20ComputationVariablesERKNSt3__16vectorINS0_17CommandAttributesENS4_9allocatorIS6_EEEEPNS5_INS5_INS0_6AccessENS7_ISC_EEEENS7_ISE_EEEE",
            "__ZNK5kaldi16IvectorExtractor7FeatDimEv",
            "__ZN3cpr8Response12GetCertInfosEv",
            "_curl_multi_socket_action",
            "__ZN7keenasr8Uploader24SetRemoveDataAfterUploadEb",
            "__Z24WriteCircularBufferBytesP14CircularBufferPKci",
            "__ZN4onnx16TensorAnnotationD2Ev",
            "__ZN5kaldi5nnet313TdnnComponent11UnVectorizeERKNS_10VectorBaseIfEE",
            "__ZNK4onnx13TypeProto_Map13SetCachedSizeEi",
            "__ZN5kaldi12ParseOptions16RegisterSpecificERKNSt3__112basic_stringIcNS1_11char_traitsIcEENS1_9allocatorIcEEEES9_PS7_S9_b",
            "__ZNK5kaldi5nnet323GeneralDropoutComponent17PrecomputeIndexesERKNS0_19MiscComputationInfoERKNSt3__16vectorINS0_5IndexENS5_9allocatorIS7_EEEESC_b",
            "__ZN5kaldi5nnet341GeneralDropoutComponentPrecomputedIndexes4ReadERNSt3__113basic_istreamIcNS2_11char_traitsIcEEEEb",
            "__ZN6google8protobuf5Arena18CreateMaybeMessageIN4onnx10ModelProtoEJEEEPT_PS1_DpOT0_",
            "__ZN5kaldi5nnet316DropoutComponent4ReadERNSt3__113basic_istreamIcNS2_11char_traitsIcEEEEb",
            "_copy_wave",
            "__ZN4onnx9TypeProto9_Internal11opaque_typeEPKS0_",
            "__ZNK5kaldi17ContextDependency10GetPdfInfoERKNSt3__16vectorIiNS1_9allocatorIiEEEES7_PNS2_INS2_INS1_4pairIiiEENS3_IS9_EEEENS3_ISB_EEEE",
            "__ZN5kaldi5nnet319DistributeComponent4ReadERNSt3__113basic_istreamIcNS2_11char_traitsIcEEEEb",
            "__ZN5kaldi5nnet326MemoryCompressionOptimizer8OptimizeEv",
            "__ZN4onnx36AttributeProto_AttributeType_IsValidEi",
            "__zf_log_write_aux_d",
            "_cst_safe_alloc",
            "__ZN5kaldi13FullGmmNormal6ResizeEii",
            "__ZN7keenasr13DecodingGraph41GetWordsymsFilepathForDecodingGraphAtPathERKNSt3__112basic_stringIcNS1_11char_traitsIcEENS1_9allocatorIcEEEE",
            "__ZN5kaldi5nnet327BackpropTruncationComponent3AddEfRKNS0_9ComponentE",
            "__ZNK5kaldi5nnet330TimeHeightConvolutionComponent18PrecomputedIndexes4CopyEv",
            "__ZN6google8protobuf5Arena18CreateMaybeMessageIN4onnx19TensorProto_SegmentEJEEEPT_PS1_DpOT0_",
            "__ZN3fst20ComplementPropertiesEy",
            "__ZN15KaldiRecognizerD1Ev",
            "__ZNK5kaldi5nnet330OutputGruNonlinearityComponent9OutputDimEv",
            "__ZN5kaldi7FullGmm5MergeEiPNSt3__16vectorIiNS1_9allocatorIiEEEE",
            "__ZN7keenasr22PronunciationEvaluator34GetPronunciationEvaluatorModelPathERKNSt3__112basic_stringIcNS1_11char_traitsIcEENS1_9allocatorIcEEEE",
            "__ZNK15KaldiRecognizer24IsDecodingGraphReorderedEv",
            "__ZNK5kaldi5nnet325ConstantFunctionComponent4CopyEv",
            "__ZN3cpr7Session14AddInterceptorERKNSt3__110shared_ptrINS_11InterceptorEEE",
            "__ZN5kaldi8MelBanksC2ERKNS_15MelBanksOptionsERKNS_22FrameExtractionOptionsEf",
            "__ZNK5kaldi5nnet38Compiler24CompileForwardDescriptorEiPNS0_15NnetComputationE",
            "__ZN5kaldi5nnet325IdentifyIndexesRangesArgsEPNSt3__16vectorINS0_15NnetComputation7CommandENS1_9allocatorIS4_EEEEPNS2_IPiNS5_IS9_EEEE",
            "_val_delete_diphone_db",
            "__ZN5kaldi5nnet321GetComputationRequestERKNS0_4NnetERKNS0_11NnetExampleEbbPNS0_18ComputationRequestE",
            "__ZN5kaldi27OnlineIvectorExtractionInfoC1Ev",
            "__ZN7keenasr12NGramBuilder27CreateNGramFileFromNGramFstEPN3fst9VectorFstINS1_6ArcTplINS1_17TropicalWeightTplIfEEEENS1_11VectorStateIS6_NSt3__19allocatorIS6_EEEEEERKNS8_12basic_stringIcNS8_11char_traitsIcEENS9_IcEEEE",
            "__ZN5kaldi5nnet336CreateLoopedComputationRequestSimpleERKNS0_4NnetEiiiiiiPNS0_18ComputationRequestES5_S5_",
            "__ZN5kaldi5nnet328SpecAugmentTimeMaskComponent14InitFromConfigEPNS_10ConfigLineE",
            "__ZN3fst19StringToSymbolTableERKNSt3__112basic_stringIcNS0_11char_traitsIcEENS0_9allocatorIcEEEE",
            "__ZN5kaldi18OnlinePitchFeatureC2ERKNS_22PitchExtractionOptionsE",
            "_AEAudioControllerInputLatency",
            "__ZN5kaldi16CompressedMatrixC1ERKS0_iiiib",
            "__ZN7keenasr10Recognizer54PrepareForListeningWithContextualDecodingGraphWithNameERKNSt3__112basic_stringIcNS1_11char_traitsIcEENS1_9allocatorIcEEEEjb",
            "__ZN5kaldi10CheckTokenEPKc",
            "__ZN5kaldi15RecyclingVectorD2Ev",
            "__ZNK5kaldi18OnlinePitchFeature11IsLastFrameEi",
            "__ZN5G2PEs22DivideInverseTransformERKNSt3__112basic_stringIcNS0_11char_traitsIcEENS0_9allocatorIcEEEE",
            "__ZN5kaldi16NccfToPovFeatureEf",
            "__ZN5kaldi24ConvertPosteriorToPhonesERKNS_15TransitionModelERKNSt3__16vectorINS4_INS3_4pairIifEENS3_9allocatorIS6_EEEENS7_IS9_EEEEPSB_",
            "__ZN3cpr8CertInfo8pop_backEv",
            "__ZN3fst6script8FarEqualERKNSt3__112basic_stringIcNS1_11char_traitsIcEENS1_9allocatorIcEEEES9_S9_fS9_S9_",
            "__ZN7keenasr13DecodingGraph27DecodingGraphWithNameExistsERKNSt3__112basic_stringIcNS1_11char_traitsIcEENS1_9allocatorIcEEEERKNS_10RecognizerE",
            "_AECBProduceBL",
            "__ZNK3fst8internal14DenseSymbolMap4FindERKNSt3__112basic_stringIcNS2_11char_traitsIcEENS2_9allocatorIcEEEE",
            "__ZN4onnx26TensorShapeProto_DimensionC2EPN6google8protobuf5ArenaEb",
            "__ZN5kaldi22LatticeForwardBackwardERKN3fst9VectorFstINS0_6ArcTplINS0_16LatticeWeightTplIfEEEENS0_11VectorStateIS5_NSt3__19allocatorIS5_EEEEEEPNS7_6vectorINSE_INS7_4pairIifEENS8_ISG_EEEENS8_ISI_EEEEPd",
            "__ZNK4onnx13OptionalProto13IsInitializedEv",
            "__Z28AdvanceCircularBufferReadPtrP14CircularBufferi",
            "__ZN3G2P12GetDummyPronERKNSt3__112basic_stringIcNS0_11char_traitsIcEENS0_9allocatorIcEEEE",
            "__ZN4onnx18TypeProto_Optional5ClearEv",
            "__ZNK5kaldi13GeneralMatrix9GetMatrixEPNS_6MatrixIfEE",
            "__ZNK5kaldi5nnet320DropoutMaskComponent4CopyEv",
            "_AEFloatConverterToFloat",
            "__ZN4onnx13SequenceProtoC2EPN6google8protobuf5ArenaEb",
            "__ZN5kaldi5nnet323ComputationGraphBuilder10AddOutputsEv",
            "__ZNK5kaldi5nnet328RestrictedAttentionComponent18PrecomputedIndexes5WriteERNSt3__113basic_ostreamIcNS3_11char_traitsIcEEEEb",
            "__Z18FreeCircularBufferP14CircularBuffer",
            "__ZN5kaldi5nnet325ConstantFunctionComponentC2ERKS1_",
            "__ZN5kaldi5nnet36NnetIoC2ERKNSt3__112basic_stringIcNS2_11char_traitsIcEENS2_9allocatorIcEEEEiiRKNS2_6vectorINSB_INS2_4pairIifEENS6_ISD_EEEENS6_ISF_EEEEi",
            "__ZN5kaldi12MfccComputerC1ERKNS_11MfccOptionsE",
            "__ZN4onnx10GraphProto12InternalSwapEPS0_",
            "__ZNK5kaldi5nnet318BatchNormComponent8BackpropERKNSt3__112basic_stringIcNS2_11char_traitsIcEENS2_9allocatorIcEEEEPKNS0_27ComponentPrecomputedIndexesERKNS_12CuMatrixBaseIfEESH_SH_PvPNS0_9ComponentEPSF_",
            "__ZN5kaldi5nnet328RestrictedAttentionComponent19CreateIndexesVectorERKNSt3__16vectorINS2_4pairIiiEENS2_9allocatorIS5_EEEEiiiRKNS2_13unordered_setINS0_5IndexENS0_11IndexHasherENS2_8equal_toISC_EENS6_ISC_EEEEPNS3_ISC_SG_EE",
            "__ZNK5kaldi5nnet313TanhComponent9PropagateEPKNS0_27ComponentPrecomputedIndexesERKNS_12CuMatrixBaseIfEEPS6_",
            "__ZNK5kaldi20ShiftedDeltaFeatures7ProcessERKNS_10MatrixBaseIfEEiPNS_9SubVectorIfEE",
            "__ZNK5kaldi5nnet319SimpleSumDescriptor15GetScaleForNodeEi",
            "__ZN5boost10filesystem10emit_errorEiRKNS0_4pathES3_PNS_6system10error_codeEPKc",
            "__ZNK5kaldi5nnet318BatchNormComponent5CheckEv",
            "__ZN5kaldi5nnet328ConvertRepeatedToBlockAffineEPNS0_18CompositeComponentE",
            "_item_feat",
            "_val_lpcres",
            "__ZN5kaldi5nnet319ScaleBatchnormStatsEfPNS0_4NnetE",
            "_new_audio_streaming_info",
            "_curl_easy_nextheader",
            "__ZN5G2PEs24DivideTextTransformationERKNSt3__112basic_stringIcNS0_11char_traitsIcEENS0_9allocatorIcEEEE",
            "_curl_mime_filename",
            "__ZN3fst11AlignOutputERNSt3__113basic_ostreamIcNS0_11char_traitsIcEEEE",
            "__ZN4onnx22TypeProto_SparseTensor9MergeFromERKS0_",
            "__ZNK5kaldi5nnet38Compiler16AllocateMatricesERKNSt3__16vectorIiNS2_9allocatorIiEEEEPNS0_15NnetComputationE",
            "__ZN4onnx16TensorAnnotation14_InternalParseEPKcPN6google8protobuf8internal12ParseContextE",
            "__ZN5boost10filesystem6detail18utf8_codecvt_facet24get_cont_octet_out_countEw",
            "_ffunc_val",
            "__ZN5kaldi5nnet321OnlineNaturalGradient4InitERKNS_12CuMatrixBaseIfEE",
            "__ZN3cpr7Session13SetParametersEONS_10ParametersE",
            "__ZN4onnx13OptionalProto14_InternalParseEPKcPN6google8protobuf8internal12ParseContextE",
            "__ZN5kaldi5nnet320BlockAffineComponent4ReadERNSt3__113basic_istreamIcNS2_11char_traitsIcEEEEb",
            "__ZN7keenasr13DecodingGraph46GetTriggerPhraseFilepathForDecodingGraphAtPathERKNSt3__112basic_stringIcNS1_11char_traitsIcEENS1_9allocatorIcEEEE",
            "__ZN7keenasr10Recognizer17SpeakerProfileDirEv",
            "__ZNK3cpr5Files6cbeginEv",
            "__ZN5kaldi13MessageLoggerC2ENS_18LogMessageEnvelope8SeverityEPKcS4_i",
            "__ZN5boost10filesystem16filesystem_errorC1EPKcNS_6system10error_codeE",
            "_MlasConvSymDepthwiseU8KernelNeon",
            "__ZNK3cpr8CertInfo3endEv",
            "__ZN7keenasr9ASRResultD0Ev",
            "__ZN3cprcoENS_17PostRedirectFlagsE",
            "__ZNK5kaldi13SplitEventMap5PruneEv",
            "__ZN5kaldi17BuildTreeTwoLevelERNS_9QuestionsERKNSt3__16vectorINS3_IiNS2_9allocatorIiEEEENS4_IS6_EEEERKS6_RKNS3_IbNS4_IbEEEESG_RKNS3_INS2_4pairINS3_INSH_IiiEENS4_ISI_EEEEPNS_11ClusterableEEENS4_ISN_EEEEiibiPS6_",
            "__ZNK4onnx18TypeProto_Sequence18_InternalSerializeEPhPN6google8protobuf2io19EpsCopyOutputStreamE",
            "__ZN5kaldi7FullGmm15CopyFromFullGmmERKS0_",
            "__ZN3fst8internal15SymbolTableImpl9AddSymbolERKNSt3__112basic_stringIcNS2_11char_traitsIcEENS2_9allocatorIcEEEEx",
            "__ZNK5kaldi7DiagGmm17GaussianSelectionERKNS_10VectorBaseIfEEiPNSt3__16vectorIiNS5_9allocatorIiEEEE",
            "__ZNK5kaldi5nnet324GruNonlinearityComponent9OutputDimEv",
            "__ZN5kaldi5nnet38OptimizeERKNS0_19NnetOptimizeOptionsERKNS0_4NnetEiPNS0_15NnetComputationE",
            "__ZN5kaldi27ChangeReorderingOfAlignmentERKNS_15TransitionModelEPNSt3__16vectorIiNS3_9allocatorIiEEEE",
            "__ZN5kaldi11RandomStateC2Ev",
            "__ZN3cpr7Session9SetOptionERKNS_14ConnectTimeoutE",
            "__ZN5kaldi26OnlineNnet2FeaturePipeline18UpdateFrameWeightsERKNSt3__16vectorINS1_4pairIifEENS1_9allocatorIS4_EEEE",
            "__ZN5kaldi18ConstArpaLmBuilder12ConsumeNGramERKNS_5NGramE",
            "__ZN20KaldiNNet3RecognizerD0Ev",
            "_cg_phone_index",
            "__ZN5kaldi16ConstantEventMap5WriteERNSt3__113basic_ostreamIcNS1_11char_traitsIcEEEEb",
            "__ZN5kaldi32ClusterBottomUpCompartmentalizedERKNSt3__16vectorINS1_IPNS_11ClusterableENS0_9allocatorIS3_EEEENS4_IS6_EEEEfiPS8_PNS1_INS1_IiNS4_IiEEEENS4_ISD_EEEE",
            "__ZN5kaldi10MatrixBaseIdE10CopyFromSpIdEEvRKNS_8SpMatrixIT_EE",
            "__ZN5kaldi21IvectorExtractorStats19CommitStatsForSigmaERKNS_16IvectorExtractorERKNS_30IvectorExtractorUtteranceStatsE",
            "__ZNK5kaldi5nnet318ComputationRequesteqERKS1_",
            "__ZN7keenasr10Recognizer16SetApplicationIdERKNSt3__112basic_stringIcNS1_11char_traitsIcEENS1_9allocatorIcEEEE",
            "__ZN5ngram20NGramExtendedContext13CheckContextsEv",
            "__ZN5kaldi18LatticeWordAligner16ComputationState21OutputOnePhoneWordArcERKNS_16WordBoundaryInfoERKNS_15TransitionModelEPN3fst6ArcTplINS8_23CompactLatticeWeightTplINS8_16LatticeWeightTplIfEEiEEEEPb",
            "__ZN4onnx14ValueInfoProtoD1Ev",
            "__ZN3fst22SymbolTableTextOptionsC1Eb",
            "__ZN5kaldi17BottomUpClusterer16ReconstructQueueEv",
            "__ZN5kaldi10OnlineCmvn10CacheFrameEiRKNS_10MatrixBaseIdEE",
            "__ZNK5kaldi5nnet38Compiler12SplitByScaleERKNS0_13SumDescriptorERKNSt3__16vectorINS6_INS5_4pairIiiEENS5_9allocatorIS8_EEEENS9_ISB_EEEEPNS6_INS7_IfSD_EENS9_ISG_EEEE",
            "__ZN5kaldi5nnet314RowOpsSplitter13SplitCommandsEv",
            "_item_nth_daughter",
            "__ZN5kaldi5nnet328RestrictedAttentionComponent3AddEfRKNS0_9ComponentE",
            "__ZN5kaldi5nnet323GeneralDropoutComponentC2Ev",
            "__ZN5kaldi5nnet310DescriptoraSERKS1_",
            "__ZN5kaldi21IvectorExtractorStats3AddERKS0_",
            "__ZN5kaldi5nnet323time_height_convolution23PadComputationInputTimeERKNS1_16ConvolutionModelEPNS1_24ConvolutionComputationIoE",
            "__ZN7Lexicon25SetSpokenNoiseProbabilityEf",
            "__ZN5kaldi5nnet38Compiler18DeallocateMatricesERKNSt3__16vectorIiNS2_9allocatorIiEEEES8_PNS0_15NnetComputationE",
            "__ZNK7keenasr7ASRWord6ToJsonEv",
            "__ZN3fst21ConvertToLegalCSymbolEPNSt3__112basic_stringIcNS0_11char_traitsIcEENS0_9allocatorIcEEEE",
            "__ZN5kaldi5nnet319DistributeComponent14InitFromConfigEPNS_10ConfigLineE",
            "__ZNK5kaldi5nnet321ConstantSumDescriptor11WriteConfigERNSt3__113basic_ostreamIcNS2_11char_traitsIcEEEERKNS2_6vectorINS2_12basic_stringIcS5_NS2_9allocatorIcEEEENSA_ISC_EEEE",
            "__ZN4onnx14ValueInfoProtoC2ERKS0_",
            "__ZN5kaldi5nnet315NnetComputation12NewSubMatrixEiiiii",
            "__Z37ReadCircularBufferBytesWithoutAdvanceP14CircularBufferPci",
            "__ZN5kaldi10OnlineCmvn21SmoothOnlineCmvnStatsERKNS_10MatrixBaseIdEES4_RKNS_17OnlineCmvnOptionsEPS2_",
            "__ZN5boost10filesystem6detail8relativeERKNS0_4pathES4_PNS_6system10error_codeE",
            "__ZNK7keenasr10Recognizer17GetAudioPeakValueEv",
            "__ZN4onnx17TrainingInfoProtoC2ERKS0_",
            "__ZN5kaldi5nnet314GraphHasCyclesERKNSt3__16vectorINS2_IiNS1_9allocatorIiEEEENS3_IS5_EEEE",
            "__ZN5kaldi5nnet320ComputationVariables18ComputeSplitPointsERKNS0_15NnetComputationE",
            "__ZNK15KaldiRecognizer20RescoreLatticeWithLMERKN3fst9VectorFstINS0_6ArcTplINS0_23CompactLatticeWeightTplINS0_16LatticeWeightTplIfEEiEEEENS0_11VectorStateIS7_NSt3__19allocatorIS7_EEEEEEfRKN5kaldi11ConstArpaLmERSD_",
            "__ZNK5kaldi5nnet313TdnnComponent8BackpropERKNSt3__112basic_stringIcNS2_11char_traitsIcEENS2_9allocatorIcEEEEPKNS0_27ComponentPrecomputedIndexesERKNS_12CuMatrixBaseIfEESH_SH_PvPNS0_9ComponentEPSF_",
            "__ZN4onnx17TrainingInfoProto5ClearEv",
            "__ZN5kaldi5nnet326StatisticsPoolingComponentC1Ev",
            "__ZN3cpr7Session14SetReserveSizeERKNS_11ReserveSizeE",
            "__ZN3cpr7Session9SetOptionERKNS_7CookiesE",
            "__ZNK5kaldi5nnet313TdnnComponent15GetInputIndexesERKNS0_19MiscComputationInfoERKNS0_5IndexEPNSt3__16vectorIS5_NS8_9allocatorIS5_EEEE",
            "__ZN7Lexicon13WriteWordSymsERKNSt3__112basic_stringIcNS0_11char_traitsIcEENS0_9allocatorIcEEEE",
            "_curl_mvsnprintf",
            "__ZNK5kaldi16IvectorExtractor8NumGaussEv",
            "__ZN4onnx10GraphProto21CheckTypeAndMergeFromERKN6google8protobuf11MessageLiteE",
            "__ZN5kaldi7DiagGmm6ResizeEii",
            "__ZN5kaldi5nnet329StatisticsExtractionComponentC1ERKS1_",
            "__ZNK5kaldi5nnet321OnlineNaturalGradient3EtaEi",
            "__ZN4onnx16TensorAnnotation8CopyFromERKS0_",
            "__ZN5kaldi5nnet324PerElementScaleComponent13PerturbParamsEf",
            "__ZN5boost10filesystem6detail18utf8_codecvt_facetD0Ev",
            "__ZN4onnx16TypeProto_TensorD1Ev",
            "__ZN5kaldi12CuVectorBaseIfE11CopyFromVecIdEEvRKNS0_IT_EE",
            "__ZNK5kaldi21IvectorExtractorStats13UpdateWeightsERKNS_33IvectorExtractorEstimationOptionsEPNS_16IvectorExtractorE",
            "__ZN5kaldi16CompressedMatrix12AllocateDataEi",
            "__ZNK5kaldi17VectorClusterable7ReadNewERNSt3__113basic_istreamIcNS1_11char_traitsIcEEEEb",
            "__ZN5kaldi5nnet312NnetComputerC1ERKS1_",
            "_item_prepend",
            "__ZNK5kaldi5nnet313TdnnComponent18PrecomputedIndexes4CopyEv",
            "__ZN5kaldi5nnet315LinearComponent17ConsolidateMemoryEv",
            "__Z24CheckspaceCircularBufferP14CircularBufferi",
            "__ZN4onnx8MapProtoC2ERKS0_",
            "__ZN5kaldi7DiagGmmC2ERKNS_16GaussClusterableEf",
            "__ZNK5kaldi5nnet324GruNonlinearityComponent9VectorizeEPNS_10VectorBaseIfEE",
            "__ZN3fst21CompositeWeightWriterC1ERNSt3__113basic_ostreamIcNS1_11char_traitsIcEEEE",
            "__ZN5kaldi5nnet312ErrorContextERKNSt3__112basic_stringIcNS1_11char_traitsIcEENS1_9allocatorIcEEEE",
            "__ZN4onnx8MapProto9_Internal6valuesEPKS0_",
            "__ZN5kaldi5nnet323ComputationGraphBuilder15AddDependenciesEi",
            "__ZN5kaldi28OnlineIvectorEstimationStatsC1Eiff",
            "__ZN3cpr4util6isTrueERKNSt3__112basic_stringIcNS1_11char_traitsIcEENS1_9allocatorIcEEEE",
            "__ZN3cpr7Session13SetSslOptionsERKNS_10SslOptionsE",
            "__ZN5boost10filesystem6detail12current_pathERKNS0_4pathEPNS_6system10error_codeE",
            "__ZN5kaldi16MinimumBayesRiskC2ERKN3fst9VectorFstINS1_6ArcTplINS1_23CompactLatticeWeightTplINS1_16LatticeWeightTplIfEEiEEEENS1_11VectorStateIS8_NSt3__19allocatorIS8_EEEEEERKNSA_6vectorIiNSB_IiEEEERKNSH_INSA_4pairIffEENSB_ISN_EEEENS_23MinimumBayesRiskOptionsE",
            "__ZN5kaldi5nnet313VectorizeNnetERKNS0_4NnetEPNS_10VectorBaseIfEE",
            "__ZN4onnx13TypeProto_Map5ClearEv",
            "__ZN5boost10filesystem16filesystem_errorC2EPKcNS_6system10error_codeE",
            "__Z28CreateLookeahedDecodingGraphP7LexiconPKvRKNSt3__112basic_stringIcNS3_11char_traitsIcEENS3_9allocatorIcEEEESB_SB_",
            "__ZNK3cpr7Timeout12MillisecondsEv",
            "__ZNK5kaldi5nnet319NnetOptimizeOptionseqERKS1_",
            "__ZNK5kaldi5nnet320ConvolutionComponent13NumParametersEv",
            "__ZN5kaldi21RescoreCompactLatticeEPNS_18DecodableInterfaceEPN3fst9VectorFstINS2_6ArcTplINS2_23CompactLatticeWeightTplINS2_16LatticeWeightTplIfEEiEEEENS2_11VectorStateIS9_NSt3__19allocatorIS9_EEEEEE",
            "__ZN7keenasr6DeviceC1ERKNSt3__112basic_stringIcNS1_11char_traitsIcEENS1_9allocatorIcEEEES9_S9_S9_S9_",
            "_val_delete_breakfunc",
            "__ZN7keenasr13DecodingGraph58GetPositionalToPurePhonesMapFilepathForDecodingGraphAtPathERKNSt3__112basic_stringIcNS1_11char_traitsIcEENS1_9allocatorIcEEEE",
            "__ZN5kaldi5nnet330OutputGruNonlinearityComponent14InitFromConfigEPNS_10ConfigLineE",
            "__ZN4onnx16TypeProto_OpaqueD0Ev",
            "__ZN4onnx16TypeProto_TensorC1EPN6google8protobuf5ArenaEb",
            "__ZN7keenasr13DecodingGraph40CreateContextualDecodingGraphFromPhrasesERKNSt3__16vectorINS2_INS1_12basic_stringIcNS1_11char_traitsIcEENS1_9allocatorIcEEEENS6_IS8_EEEENS6_ISA_EEEERNS2_INS_24AlternativePronunciationENS6_ISF_EEEERKNS_12SpeakingTaskERKNS_10RecognizerERKS8_f",
            "__ZNK5kaldi15TransitionModel29TransitionIdToTransitionStateEi",
            "__ZN5kaldi5nnet34Nnet22RemoveOrphanComponentsEv",
            "_utt_set_wave",
            "__ZNK5kaldi5nnet317SumGroupComponent8BackpropERKNSt3__112basic_stringIcNS2_11char_traitsIcEENS2_9allocatorIcEEEEPKNS0_27ComponentPrecomputedIndexesERKNS_12CuMatrixBaseIfEESH_SH_PvPNS0_9ComponentEPSF_",
            "__ZNK5kaldi5nnet323GeneralDropoutComponent8BackpropERKNSt3__112basic_stringIcNS2_11char_traitsIcEENS2_9allocatorIcEEEEPKNS0_27ComponentPrecomputedIndexesERKNS_12CuMatrixBaseIfEESH_SH_PvPNS0_9ComponentEPSF_",
            "__ZNK5kaldi5nnet329SwitchingForwardingDescriptor7ModulusEv",
            "__ZN4onnx16TensorShapeProtoD2Ev",
            "__ZN5kaldi19OnlineAppendFeature8GetFrameEiPNS_10VectorBaseIfEE",
            "__ZN5kaldigtERKNS_16CompBotClustElemES2_",
            "__ZN4onnx18TypeProto_SequenceC2EPN6google8protobuf5ArenaEb",
            "__ZNK5kaldi5nnet324VariableMergingOptimizer11MayBeMergedEiii",
            "_val_new_typed",
            "__ZN5kaldi18OnlineProcessPitch8GetFrameEiPNS_10VectorBaseIfEE",
            "__ZN5kaldi5nnet325PerElementOffsetComponent5ScaleEf",
            "__ZNK5kaldi26OnlineNnet2FeaturePipeline14NumFramesReadyEv",
            "__ZN5kaldi5nnet316ComputationGraph5PrintERNSt3__113basic_ostreamIcNS2_11char_traitsIcEEEERKNS2_6vectorINS2_12basic_stringIcS5_NS2_9allocatorIcEEEENSA_ISC_EEEE",
            "_MlasGemmS8S8KernelSDot",
            "__ZNK5kaldi15TransitionModel37GetTransitionLogProbIgnoringSelfLoopsEi",
            "_AEAudioControllerOutputLatency",
            "_curl_mime_encoder",
            "__ZN4onnx13OptionalProtoD0Ev",
            "_cmu_lex_init",
            "_cst_rateconv_in",
            "__ZN5boost10filesystem6detail15path_algorithms18find_relative_pathERKNS0_4pathE",
            "__ZN5kaldi5nnet321OnlineNaturalGradient24SetNumMinibatchesHistoryEf",
            "__ZN5kaldi5nnet330OutputGruNonlinearityComponent9ZeroStatsEv",
            "__ZNK5kaldi5nnet325ConstantFunctionComponent13NumParametersEv",
            "__ZN7keenasr12NGramBuilder19ConvertToFarArchiveERKNSt3__112basic_stringIcNS1_11char_traitsIcEENS1_9allocatorIcEEEES9_S9_",
            "__ZN5kaldi5nnet330TimeHeightConvolutionComponent4ReadERNSt3__113basic_istreamIcNS2_11char_traitsIcEEEEb",
            "__ZNK5kaldi5nnet344StatisticsPoolingComponentPrecomputedIndexes5WriteERNSt3__113basic_ostreamIcNS2_11char_traitsIcEEEEb",
            "__ZNK5kaldi5nnet318CompositeComponent10PropertiesEv",
            "__ZN3cpr7Session13GetCurlHolderEv",
            "_feat_length",
            "__ZN5kaldi5nnet321ClipGradientComponent14InitFromConfigEPNS_10ConfigLineE",
            "__ZN5kaldi18OnlineProcessPitchC1ERKNS_19ProcessPitchOptionsEPNS_22OnlineFeatureInterfaceE",
            "__ZN4onnx14AttributeProto9_Internal2tpEPKS0_",
            "__ZN5kaldi10ConfigLine8GetValueERKNSt3__112basic_stringIcNS1_11char_traitsIcEENS1_9allocatorIcEEEEPb",
            "__ZN5kaldi5nnet315SummarizeVectorERKNS_10VectorBaseIdEE",
            "__ZN5kaldi5nnet36NnetIoC2ERKNSt3__112basic_stringIcNS2_11char_traitsIcEENS2_9allocatorIcEEEEiRKNS_10MatrixBaseIfEEi",
            "_curl_mime_data",
            "__ZN5kaldi15TransitionModel13ComputeTuplesERKNS_26ContextDependencyInterfaceE",
            "__ZN4onnx26TensorShapeProto_Dimension8CopyFromERKS0_",
            "__ZNK5boost10filesystem6detail18utf8_codecvt_facet9do_lengthER11__mbstate_tPKcS6_m",
            "__ZN5kaldi5nnet324PerElementScaleComponent4InitEiff",
            "__ZN4onnx11TensorProto12InternalSwapEPS0_",
            "_lpc_resynth",
            "__ZN3cpr7Session7OptionsEv",
            "__ZN5kaldi18JoinVectorToStringERKNSt3__16vectorINS0_12basic_stringIcNS0_11char_traitsIcEENS0_9allocatorIcEEEENS5_IS7_EEEEPKcbPS7_",
            "__ZNK5kaldi11Clusterable8DistanceERKS0_",
            "__ZN4onnx11TensorProto5ClearEv",
            "_WebRtcSpl_ResetResample48khzTo8khz",
            "_item_next",
            "_cst_wave_load_raw",
            "__ZN5kaldi5nnet347StatisticsExtractionComponentPrecomputedIndexes4ReadERNSt3__113basic_istreamIcNS2_11char_traitsIcEEEEb",
            "__ZN3fst8internal14DenseSymbolMap6RehashEm",
            "__ZNK4onnx19TensorProto_Segment11GetTypeNameEv",
            "__ZN5kaldi5nnet314MatrixExtenderC2EPNS0_15NnetComputationE",
            "__ZN7keenasr10Recognizer15SetVADParameterENS_12VADParameterEf",
            "_WebRtcVad_CalcVad32khz",
            "__ZN4onnx16TypeProto_OpaqueC2EPN6google8protobuf5ArenaEb",
            "__ZN5kaldi16WordBoundaryInfoC1ERKNS_20WordBoundaryInfoOptsE",
            "__ZN4onnx13SequenceProto8CopyFromERKS0_",
            "_AECurrentTimeInSeconds",
            "__ZN5kaldi5nnet325PerElementOffsetComponent4ReadERNSt3__113basic_istreamIcNS2_11char_traitsIcEEEEb",
            "_val_userdata",
            "__ZNK5kaldi5nnet321ConstantSumDescriptor4CopyEv",
            "__ZNK5kaldi5nnet317SumGroupComponent8GetSizesEPNSt3__16vectorIiNS2_9allocatorIiEEEE",
            "_ffeature_string",
            "__ZNK4onnx14ValueInfoProto11GetTypeNameEv",
            "__ZN5kaldi15OnlineTransform9GetFramesERKNSt3__16vectorIiNS1_9allocatorIiEEEEPNS_10MatrixBaseIfEE",
            "__ZN5kaldi13DiagGmmNormal6ResizeEii",
            "__ZN7keenasr22PronunciationEvaluatorD1Ev",
            "__ZN5kaldi5nnet325LstmNonlinearityComponent21FreezeNaturalGradientEb",
            "__ZNK5kaldi7FullGmm22MergedComponentsLogdetEffRKNS_10VectorBaseIfEES4_RKNS_8SpMatrixIfEES8_",
            "__ZN5kaldi8MelBanks15VtlnWarpMelFreqEffffff",
            "__ZN4onnx22TypeProto_SparseTensor8CopyFromERKS0_",
            "__ZN3cpr7Session21ResponseStringReserveEm",
            "__ZNK4onnx17SparseTensorProto11GetTypeNameEv",
            "__ZN5kaldi5nnet323time_height_convolution16GetComputationIoERKNSt3__16vectorINS0_5IndexENS2_9allocatorIS4_EEEES9_PNS1_24ConvolutionComputationIoE",
            "__ZN3cpr7Session16SetDebugCallbackERKNS_13DebugCallbackE",
            "__ZN7keenasr26RecognizerTypeForASRBundleERKNSt3__112basic_stringIcNS0_11char_traitsIcEENS0_9allocatorIcEEEE",
            "__ZN5kaldi5nnet321DerivativeTimeLimiter17RemoveUnusedMemosEv",
            "__ZNK3cpr14AcceptEncoding9getStringEv",
            "__ZN4onnx13FunctionProtoD0Ev",
            "__ZN5kaldi5nnet321DerivativeTimeLimiter20ComputeSubmatrixMapsEv",
            "__ZN5kaldi5nnet317GeneralDescriptor14ParseIfDefinedERKNSt3__16vectorINS2_12basic_stringIcNS2_11char_traitsIcEENS2_9allocatorIcEEEENS7_IS9_EEEEPPKS9_",
            "__ZN5kaldi5nnet311NetworkNodeC2ERKS1_",
            "__ZN5kaldi16IvectorExtractor18InvertWithFlooringERKNS_8SpMatrixIdEEPS2_",
            "__ZNK5kaldi11ConstArpaLm22GetNgramLogprobRecurseEiRKNSt3__16vectorIiNS1_9allocatorIiEEEE",
            "__ZNK5kaldi5nnet313TdnnComponent17PrecomputeIndexesERKNS0_19MiscComputationInfoERKNSt3__16vectorINS0_5IndexENS5_9allocatorIS7_EEEESC_b",
            "__ZNK5kaldi5nnet39CindexSetclERKNSt3__14pairIiNS0_5IndexEEE",
            "_ffeature",
            "__ZN5boost10filesystem6detail13equivalent_v3ERKNS0_4pathES4_PNS_6system10error_codeE",
            "__ZN4onnx17TrainingInfoProto14_InternalParseEPKcPN6google8protobuf8internal12ParseContextE",
            "__ZNK5kaldi5nnet315AffineComponent9PropagateEPKNS0_27ComponentPrecomputedIndexesERKNS_12CuMatrixBaseIfEEPS6_",
            "__ZN5kaldi5nnet325CachingOptimizingCompiler15CompileInternalERKNS0_18ComputationRequestE",
            "__ZN5kaldi5nnet319ComputationExpander14InitStrideInfoEv",
            "__ZN7keenasr19GetFilenameFromPathERKNSt3__112basic_stringIcNS0_11char_traitsIcEENS0_9allocatorIcEEEE",
            "__ZNK5kaldi5nnet325PerElementOffsetComponent10DotProductERKNS0_18UpdatableComponentE",
            "__ZN5kaldi11CuArrayBaseIiE8SequenceEi",
            "__ZN5kaldi5nnet316RearrangeIndexesERKNSt3__16vectorINS2_IiNS1_9allocatorIiEEEENS3_IS5_EEEEPS7_",
            "__ZN5kaldi5nnet317ExpandComputationERKNS0_4NnetERKNS0_19MiscComputationInfoERKNS0_15NnetComputationEbiPS7_",
            "__ZN7keenasr15CreateDirectoryERKNSt3__112basic_stringIcNS0_11char_traitsIcEENS0_9allocatorIcEEEE",
            "__ZN5kaldi15OnlineCmvnState4ReadERNSt3__113basic_istreamIcNS1_11char_traitsIcEEEEb",
            "__ZN6google8protobuf5Arena18CreateMaybeMessageIN4onnx18TypeProto_OptionalEJEEEPT_PS1_DpOT0_",
            "__ZNK3fst18GrammarFstPreparer16GetCategoryOfArcERKNS_6ArcTplINS_17TropicalWeightTplIfEEEEPNS0_11ArcCategoryE",
            "__ZN5kaldi20ComputePowerSpectrumEPNS_10VectorBaseIfEE",
            "__ZN5kaldi5nnet312NnetComputer4InitEv",
            "__ZNK5kaldi5nnet318ComputationRequest15NeedDerivativesEv",
            "__Z19ResetCircularBufferP14CircularBuffer",
            "__ZN5kaldi28AutomaticallyObtainQuestionsERNSt3__16vectorINS0_4pairINS1_INS2_IiiEENS0_9allocatorIS3_EEEEPNS_11ClusterableEEENS4_IS9_EEEERKNS1_INS1_IiNS4_IiEEEENS4_ISE_EEEERKSE_iPSG_",
            "__ZNK5kaldi5nnet324PerElementScaleComponent4CopyEv",
            "__ZN4onnx9TypeProto9_Internal11tensor_typeEPKS0_",
            "__ZN5kaldi5nnet327DecodableAmNnetSimpleLoopedC2ERKNS0_29DecodableNnetSimpleLoopedInfoERKNS_15TransitionModelERKNS_10MatrixBaseIfEEPKNS_10VectorBaseIfEEPSA_i",
            "__ZN5kaldi5nnet320SetDropoutProportionEfPNS0_4NnetE",
            "__ZNK5kaldi5nnet314PnormComponent5WriteERNSt3__113basic_ostreamIcNS2_11char_traitsIcEEEEb",
            "__ZN5kaldi5nnet323ComputationGraphBuilder7ComputeERKNS0_18ComputationRequestE",
            "__ZN5kaldi5nnet326StatisticsPoolingComponentC2ERKS1_",
            "__ZN5kaldi16EndpointDetectedERKNS_20OnlineEndpointConfigEiiff",
            "__ZN3fst17InverseContextFst6GetArcEiiPNS_6ArcTplINS_17TropicalWeightTplIfEEEE",
            "_feat_remove",
            "__ZN5boost10filesystem6detail15path_algorithms10compare_v4ERKNS0_4pathES5_",
            "__ZN5kaldi12ParseOptions11PrintConfigERNSt3__113basic_ostreamIcNS1_11char_traitsIcEEEE",
            "__ZN3cpr7Session13prepareCommonEv",
            "__ZN5kaldi5InputD1Ev",
            "__ZN5kaldi5nnet319PrintParameterStatsERNSt3__119basic_ostringstreamIcNS1_11char_traitsIcEENS1_9allocatorIcEEEERKNS1_12basic_stringIcS4_S6_EERKNS_12CuVectorBaseIfEEb",
            "__ZN5kaldi5nnet326ComputationLoopedOptimizer18GetMatrixSwapOrderERKNSt3__16vectorIiNS2_9allocatorIiEEEES8_PNS3_INS2_4pairIiiEENS4_ISA_EEEE",
            "__ZN3cpr7Session12SetProxyAuthEONS_19ProxyAuthenticationE",
            "__ZN5boost10filesystem6detail12initial_pathEPNS_6system10error_codeE",
            "__ZN7keenasr10Recognizer8TeardownEv",
            "__ZN5kaldi5nnet37AddNnetERKNS0_4NnetEfPS1_",
            "_WebRtcSpl_UpBy2ShortToInt",
            "__ZN4onnx16TypeProto_TensorC2EPN6google8protobuf5ArenaEb",
            "__ZN5kaldi12ParseOptions8RegisterERKNSt3__112basic_stringIcNS1_11char_traitsIcEENS1_9allocatorIcEEEEPiS9_",
            "__ZN5G2PEs22TrimAndNormalizeSpacesERKNSt3__112basic_stringIcNS0_11char_traitsIcEENS0_9allocatorIcEEEE",
            "__ZN5kaldi24WriteIntegerVectorSimpleERKNSt3__112basic_stringIcNS0_11char_traitsIcEENS0_9allocatorIcEEEERKNS0_6vectorIiNS4_IiEEEE",
            "__ZNK5kaldi5nnet38Compiler23AddForwardStepComponentEiPNS0_15NnetComputationE",
            "__ZNK5kaldi5nnet316PermuteComponent4InfoEv",
            "__ZNK5kaldi5nnet313TdnnComponent10DotProductERKNS0_18UpdatableComponentE",
            "__ZNK5kaldi5nnet319BinarySumDescriptor15GetDependenciesERKNS0_5IndexEPNSt3__16vectorINS5_4pairIiS2_EENS5_9allocatorIS8_EEEE",
            "__ZN3cpr7Session9SetOptionERKNS_14LocalPortRangeE",
            "__ZN5kaldi17VectorClusterable4ReadERNSt3__113basic_istreamIcNS1_11char_traitsIcEEEEb",
            "__ZN3cpr21EncodedAuthenticationD2Ev",
            "__ZNK5kaldi15TransitionModel33TransitionStateToSelfLoopPdfClassEi",
            "__ZN5kaldi8internal17LocateSymbolRangeERKNSt3__112basic_stringIcNS1_11char_traitsIcEENS1_9allocatorIcEEEEPmSA_",
            "__ZN4onnx26TensorShapeProto_Dimension11clear_valueEv",
            "__ZN5kaldi18AddTransitionProbsERKNS_15TransitionModelERKNSt3__16vectorIiNS3_9allocatorIiEEEEffPN3fst9VectorFstINSA_6ArcTplINSA_17TropicalWeightTplIfEEEENSA_11VectorStateISF_NS5_ISF_EEEEEE",
            "__ZN7Lexicon31GetDisambigGraphLexiconFilepathERKNSt3__112basic_stringIcNS0_11char_traitsIcEENS0_9allocatorIcEEEE",
            "_lpcres_frame_shift",
            "__ZNK5kaldi5nnet346SpecAugmentTimeMaskComponentPrecomputedIndexes5WriteERNSt3__113basic_ostreamIcNS2_11char_traitsIcEEEEb",
            "_cst_lex_make_entry",
            "__ZN7Lexicon23GetGraphLexiconFilepathERKNSt3__112basic_stringIcNS0_11char_traitsIcEENS0_9allocatorIcEEEE",
            "__ZNK5kaldi5nnet319MaxpoolingComponent8InputDimEv",
            "__ZN5kaldi5nnet324GruNonlinearityComponentC1ERKS1_",
            "__ZN7keenasr11ASRResponse13SetDeviceInfoENSt3__112basic_stringIcNS1_11char_traitsIcEENS1_9allocatorIcEEEES7_S7_S7_",
            "__ZN5boost10filesystem6detail15path_algorithms19find_root_name_sizeERKNS0_4pathE",
            "_utt_relation_delete",
            "__ZNK5kaldi5nnet313TdnnComponent9VectorizeEPNS_10VectorBaseIfEE",
            "__ZN5kaldi28OnlineIvectorEstimationStatsC2ERKS0_",
            "__ZNK5kaldi5nnet38Compiler27CompileForwardSumDescriptorEiiPNS0_15NnetComputationE",
            "__ZN4onnx9TypeProto11clear_valueEv",
            "__ZN7keenasr11ASRResponseD1Ev",
            "__ZN5boost10filesystem6detail18utf8_codecvt_facet15get_octet_countEh",
            "__ZN5kaldi5nnet328ConvertRepeatedToBlockAffineEPNS0_4NnetE",
            "__ZNK5kaldi5nnet316PermuteComponent5WriteERNSt3__113basic_ostreamIcNS2_11char_traitsIcEEEEb",
            "__ZN4onnx13SequenceProto5ClearEv",
            "__ZN5kaldi5nnet320ComponentDotProductsERKNS0_4NnetES3_PNS_10VectorBaseIfEE",
            "__ZNK5kaldi16GaussClusterable5WriteERNSt3__113basic_ostreamIcNS1_11char_traitsIcEEEEb",
            "__ZN5kaldi5nnet325LstmNonlinearityComponent9ZeroStatsEv",
            "__ZN5kaldi5nnet324PerElementScaleComponent5ScaleEf",
            "__ZN5kaldi7FullGmm15RemoveComponentEib",
            "__ZN4onnx22TypeProto_SparseTensorC1ERKS0_",
            "__ZNK3cpr7Cookies10GetEncodedERKNS_10CurlHolderE",
            "__ZNK5kaldi5nnet316DropoutComponent8BackpropERKNSt3__112basic_stringIcNS2_11char_traitsIcEENS2_9allocatorIcEEEEPKNS0_27ComponentPrecomputedIndexesERKNS_12CuMatrixBaseIfEESH_SH_PvPNS0_9ComponentEPSF_",
            "__ZNK5kaldi5nnet327BackpropTruncationComponent5WriteERNSt3__113basic_ostreamIcNS2_11char_traitsIcEEEEb",
            "__ZNK5kaldi5nnet326SimpleForwardingDescriptor11WriteConfigERNSt3__113basic_ostreamIcNS2_11char_traitsIcEEEERKNS2_6vectorINS2_12basic_stringIcS5_NS2_9allocatorIcEEEENSA_ISC_EEEE",
            "__ZN5kaldi5nnet34Nnet7DestroyEv",
            "__ZNK5kaldi5nnet315NnetComputation19GetWholeSubmatricesEPNSt3__16vectorIiNS2_9allocatorIiEEEE",
            "__ZNK5kaldi5nnet324PerElementScaleComponent9PropagateEPKNS0_27ComponentPrecomputedIndexesERKNS_12CuMatrixBaseIfEEPS6_",
            "__ZN5kaldi16IvectorExtractorC2ERKNS_23IvectorExtractorOptionsERKNS_7FullGmmE",
            "__ZN5kaldi27OnlineIvectorExtractionInfo4InitERKNS_29OnlineIvectorExtractionConfigE",
            "__ZN5kaldi12ParseOptions10PrintUsageEb",
            "__ZN7Lexicon18CreateLanguageCodeERKNSt3__112basic_stringIcNS0_11char_traitsIcEENS0_9allocatorIcEEEE",
            "__ZN5kaldi16MinimumBayesRisk12NormalizeEpsEPNSt3__16vectorIiNS1_9allocatorIiEEEE",
            "__ZNK4onnx17TrainingInfoProto11GetTypeNameEv",
            "__ZN5kaldi5nnet312NnetComputer11GetPointersEiiPNS_7CuArrayIPKfEE",
            "__ZNK3fst8internal15SymbolTableImpl5WriteERNSt3__113basic_ostreamIcNS2_11char_traitsIcEEEE",
            "_val_print",
            "__ZN7keenasr12NGramBuilder14GetFarFilenameERKNSt3__112basic_stringIcNS1_11char_traitsIcEENS1_9allocatorIcEEEE",
            "__ZN5kaldi19PrintableWxfilenameERKNSt3__112basic_stringIcNS0_11char_traitsIcEENS0_9allocatorIcEEEE",
            "__ZN5kaldi18OnlineSpliceFrames8GetFrameEiPNS_10VectorBaseIfEE",
            "__ZN3cpr9MultipartC1ERKSt16initializer_listINS_4PartEE",
            "__ZN5kaldi13TableEventMapC1EiRKNSt3__13mapIiPNS_8EventMapENS1_4lessIiEENS1_9allocatorINS1_4pairIKiS4_EEEEEE",
            "__ZNK5kaldi5nnet328RestrictedAttentionComponent10GetIndexesERKNSt3__16vectorINS0_5IndexENS2_9allocatorIS4_EEEES9_RNS0_23time_height_convolution24ConvolutionComputationIoEPS7_SD_",
            "__ZN5kaldi5nnet315IoSpecificationC2ERKNSt3__112basic_stringIcNS2_11char_traitsIcEENS2_9allocatorIcEEEEii",
            "_en_exp_ordinal",
            "_ph_ctype",
            "__ZN5kaldi22OnlinePitchFeatureImpl15UpdateRemainderERKNS_10VectorBaseIfEE",
            "_OrtGetApiBase",
            "__ZN4onnx30OptionalProto_DataType_IsValidEi",
            "__ZN5boost10filesystem6detail24create_directory_symlinkERKNS0_4pathES4_PNS_6system10error_codeE",
            "__ZN3cpr7Session9SetOptionERKNS_7PayloadE",
            "__ZN5kaldi27OnlineIvectorExtractionInfoC2ERKNS_29OnlineIvectorExtractionConfigE",
            "_WebRtcSpl_Energy",
            "__ZN5kaldi5nnet324ComputationStepsComputer17ConvertToCindexesERKNSt3__16vectorINS0_5IndexENS2_9allocatorIS4_EEEEiPNS3_INS2_4pairIiS4_EENS5_ISB_EEEE",
            "__ZN7keenasr26ExperimentalFeatureEnabledERKNSt3__112basic_stringIcNS0_11char_traitsIcEENS0_9allocatorIcEEEE",
            "__ZN5kaldi5nnet324GruNonlinearityComponent11UnVectorizeERKNS_10VectorBaseIfEE",
            "__ZNK5kaldi5nnet315AffineComponent8BackpropERKNSt3__112basic_stringIcNS2_11char_traitsIcEENS2_9allocatorIcEEEEPKNS0_27ComponentPrecomputedIndexesERKNS_12CuMatrixBaseIfEESH_SH_PvPNS0_9ComponentEPSF_",
            "__ZN5kaldi5nnet317WriteCindexVectorERNSt3__113basic_ostreamIcNS1_11char_traitsIcEEEEbRKNS1_6vectorINS1_4pairIiNS0_5IndexEEENS1_9allocatorISA_EEEE",
            "__ZN5kaldi5nnet312HasBatchnormERKNS0_4NnetE",
            "__ZN5kaldi5nnet320BlockAffineComponent3AddEfRKNS0_9ComponentE",
            "__ZNK5kaldi5nnet38Compiler38CompileBackwardFromSubmatLocationsListEifRKNSt3__16vectorINS3_INS2_4pairIiiEENS2_9allocatorIS5_EEEENS6_IS8_EEEEPNS0_15NnetComputationE",
            "__ZN6google8protobuf5Arena18CreateMaybeMessageIN4onnx17TrainingInfoProtoEJEEEPT_PS1_DpOT0_",
            "__ZNK5kaldi5nnet320BlockAffineComponent8BackpropERKNSt3__112basic_stringIcNS2_11char_traitsIcEENS2_9allocatorIcEEEEPKNS0_27ComponentPrecomputedIndexesERKNS_12CuMatrixBaseIfEESH_SH_PvPNS0_9ComponentEPSF_",
            "__ZN4onnx8MapProtoD1Ev",
            "__ZN3fst19RmEpsilonPropertiesEyb",
            "__ZNK5kaldi11HmmTopology9MinLengthEi",
            "_delete_cart",
            "__ZNK5kaldi14ArpaLmCompiler5CheckEv",
            "__ZN5kaldi5nnet316SoftmaxComponent10StoreStatsERKNS_12CuMatrixBaseIfEES5_Pv",
            "__ZN3cpr7Session9SetOptionERKNS_7ResolveE",
            "__ZNK5kaldi5nnet339NaturalGradientPerElementScaleComponent4InfoEv",
            "__ZN5kaldi18OnlineDeltaFeature8GetFrameEiPNS_10VectorBaseIfEE",
            "__ZN7keenasr10Recognizer12IsProcessingEv",
            "_AECBConsumeBLPartial",
            "__ZN5kaldi22OnlineSilenceWeightingC1ERKNS_15TransitionModelERKNS_28OnlineSilenceWeightingConfigEi",
            "__ZN5kaldi16IvectorExtractor17TransformIvectorsERKNS_10MatrixBaseIdEEd",
            "__ZNK5kaldi5nnet320ComputationVariables12VariableInfoEi",
            "__ZNK5ngram11NGramOutput14ShowARPANGramsEiRKNSt3__112basic_stringIcNS1_11char_traitsIcEENS1_9allocatorIcEEEEi",
            "__ZNK5kaldi5nnet34Nnet7ModulusEv",
            "__ZN5kaldi5nnet339NaturalGradientPerElementScaleComponent17ConsolidateMemoryEv",
            "__ZNK4onnx13FunctionProto13SetCachedSizeEi",
            "__ZN5kaldi5nnet326StatisticsPoolingComponentC2Ev",
            "__ZNK5kaldi7FullGmm13LogLikelihoodERKNS_10VectorBaseIfEE",
            "_val_delete_features",
            "__ZNK5kaldi5nnet329SwitchingForwardingDescriptor4CopyEv",
            "__ZN4onnx10ModelProto5ClearEv",
            "__ZN5boost10filesystem6detail11dir_itr_impD1Ev",
            "__ZN6google8protobuf5Arena18CreateMaybeMessageIN4onnx16TypeProto_OpaqueEJEEEPT_PS1_DpOT0_",
            "__ZNK5kaldi5nnet310Descriptor19GetNodeDependenciesEPNSt3__16vectorIiNS2_9allocatorIiEEEE",
            "__ZN3cpr7Session21prepareCommonDownloadEv",
            "_item_set_int",
            "__ZNK3cpr6Cookie11IsHttpsOnlyEv",
            "__ZN7keenasr16ReadFileContentsERKNSt3__112basic_stringIcNS0_11char_traitsIcEENS0_9allocatorIcEEEEPS6_",
            "_curl_multi_poll",
            "__ZNK4onnx8MapProto13IsInitializedEv",
            "__ZN5kaldi5nnet319RenumberComputationEPNS0_15NnetComputationE",
            "__ZN5kaldi12SpliceFramesERKNS_10MatrixBaseIfEEiiPNS_6MatrixIfEE",
            "__ZN4onnx17TrainingInfoProtoC2EPN6google8protobuf5ArenaEb",
            "__ZNK15KaldiRecognizer14RescoreLatticeERKN3fst9VectorFstINS0_6ArcTplINS0_23CompactLatticeWeightTplINS0_16LatticeWeightTplIfEEiEEEENS0_11VectorStateIS7_NSt3__19allocatorIS7_EEEEEERSD_",
            "__ZN5boost10filesystem6detail32recursive_directory_iterator_popERNS0_28recursive_directory_iteratorEPNS_6system10error_codeE",
            "_flite_get_param_val",
            "__ZN5kaldi5nnet323ModelUpdateConsolidatorC2ERKNS0_4NnetEPNS0_15NnetComputationE",
            "_cst_strchr",
            "__ZN3cpr4util17writeUserFunctionEPcmmPKNS_13WriteCallbackE",
            "__Z26core_PartialResultCallbackPKN7keenasr10RecognizerEPKNS_9ASRResultE",
            "__ZN5kaldi5nnet312NnetComputerC2ERKNS0_18NnetComputeOptionsERKNS0_15NnetComputationEPNS0_4NnetES9_",
            "__ZNK5kaldi15RecyclingVector2AtEi",
            "__ZN7keenasr10Recognizer20SetMiscDataDirectoryENSt3__112basic_stringIcNS1_11char_traitsIcEENS1_9allocatorIcEEEE",
            "_unregister_cmu_us_kal_phon",
            "__ZN5G2PEs18DivideVowelPatternERKNSt3__112basic_stringIcNS0_11char_traitsIcEENS0_9allocatorIcEEEE",
            "__ZN5kaldi21FeatureWindowFunctionC2ERKNS_22FrameExtractionOptionsE",
            "__ZN4onnx17TrainingInfoProtoD1Ev",
            "__ZN5kaldi5nnet316DropoutComponentC2ERKS1_",
            "__ZN5kaldi5nnet329DecodableNnetSimpleLoopedInfoC2ERKNS0_34NnetSimpleLoopedComputationOptionsEPNS0_12AmNnetSimpleE",
            "__ZN5kaldi15TransitionModel9MapUpdateERKNS_6VectorIdEERKNS_25MapTransitionUpdateConfigEPfS8_",
            "__ZN5kaldi5nnet325ConstantFunctionComponentC2Ev",
            "__ZN5kaldi19AccumulateTreeStatsERKNS_15TransitionModelERKNS_23AccumulateTreeStatsInfoERKNSt3__16vectorIiNS6_9allocatorIiEEEERKNS_6MatrixIfEEPNS6_3mapINS7_INS6_4pairIiiEENS8_ISJ_EEEEPNS_16GaussClusterableENS6_4lessISL_EENS8_INSI_IKSL_SN_EEEEEE",
            "__ZN5kaldi5nnet312IsSimpleNnetERKNS0_4NnetE",
            "__ZN3cpr10ThreadPool4WaitEv",
            "__ZN4onnx14ValueInfoProto14_InternalParseEPKcPN6google8protobuf8internal12ParseContextE",
            "__ZN3cpr7Session16SetWriteCallbackERKNS_13WriteCallbackE",
            "__ZN5kaldi5nnet318UpdatableComponent19SetUpdatableConfigsERKS1_",
            "__ZN5kaldi5nnet325PerElementOffsetComponentC1ERKS1_",
            "_WebRtcSpl_UpBy2IntToShort",
            "__ZN7keenasr13DecodingGraph50GetRelabelFilepathForContextualDecodingGraphAtPathERKNSt3__112basic_stringIcNS1_11char_traitsIcEENS1_9allocatorIcEEEE",
            "__ZN3cpr4util17secureStringClearERNSt3__112basic_stringIcNS1_11char_traitsIcEENS1_9allocatorIcEEEE",
            "__ZN5kaldi12CuVectorBaseIdE14CopyColFromMatIfEEvRKNS_12CuMatrixBaseIT_EEi",
            "__ZN5kaldi7IsTokenERKNSt3__112basic_stringIcNS0_11char_traitsIcEENS0_9allocatorIcEEEE",
            "__ZN7G2PEnUsC2Ev",
            "__ZNK5kaldi15TransitionModel22TransitionIdToHmmStateEi",
            "__ZN5kaldi26MonophoneContextDependencyERKNSt3__16vectorIiNS0_9allocatorIiEEEES6_",
            "__ZNK5kaldi5nnet321ObjectiveFunctionInfo22PrintStatsForThisPhaseERKNSt3__112basic_stringIcNS2_11char_traitsIcEENS2_9allocatorIcEEEEii",
            "__ZNK5kaldi5nnet330OutputGruNonlinearityComponent5CheckEv",
            "__ZN4onnx10GraphProtoD1Ev",
            "__ZNK7keenasr10Recognizer27GetCurrentDecodingGraphNameEv",
            "__ZN5kaldi5nnet315GetMaxMemoryUseERKNS0_15NnetComputationE",
            "__ZN5kaldi5nnet314MatrixExtender13CanBeExtendedEii",
            "__ZNK5kaldi5nnet324GruNonlinearityComponent13NumParametersEv",
            "_curl_multi_init",
            "__ZN4onnx9TypeProto27set_allocated_sequence_typeEPNS_18TypeProto_SequenceE",
            "__ZN3fst19ReadAndPrepareLmFstENSt3__112basic_stringIcNS0_11char_traitsIcEENS0_9allocatorIcEEEE",
            "__ZNK5kaldi5nnet317UtteranceSplitter16SetOutputWeightsEiPNSt3__16vectorINS0_13ChunkTimeInfoENS2_9allocatorIS4_EEEE",
            "_int_val",
            "__ZN5kaldi14GetHTransducerERKNSt3__16vectorINS1_IiNS0_9allocatorIiEEEENS2_IS4_EEEERKNS_26ContextDependencyInterfaceERKNS_15TransitionModelERKNS_17HTransducerConfigEPS4_",
            "_WebRtcVad_Process",
            "__ZN3cpr4util16readUserFunctionEPcmmPKNS_12ReadCallbackE",
            "__ZN5kaldi5nnet330TimeHeightConvolutionComponent18PrecomputedIndexes4ReadERNSt3__113basic_istreamIcNS3_11char_traitsIcEEEEb",
            "__ZN5kaldi5nnet315AffineComponent13PerturbParamsEf",
            "__ZNK4onnx9NodeProto12ByteSizeLongEv",
            "__ZN5kaldi5nnet315SummarizeVectorERKNS_12CuVectorBaseIfEE",
            "_cst_regex_match_return",
            "__ZN4onnx9NodeProto9MergeFromERKS0_",
            "__ZNK4onnx18TypeProto_Optional13SetCachedSizeEi",
            "__ZNK4onnx9NodeProto13IsInitializedEv",
            "__ZN5kaldi5nnet315NnetComputation10MatrixInfo4ReadERNSt3__113basic_istreamIcNS3_11char_traitsIcEEEEb",
            "__ZN5kaldi5nnet318FixedBiasComponent4ReadERNSt3__113basic_istreamIcNS2_11char_traitsIcEEEEb",
            "__ZN5boost10filesystem6detail15path_algorithms15generic_path_v4ERKNS0_4pathE",
            "__ZN4onnx17SparseTensorProtoD0Ev",
            "__ZN3fst8internal14DenseSymbolMap12RemoveSymbolEm",
            "__ZN6google8protobuf5Arena18CreateMaybeMessageIN4onnx18TypeProto_SequenceEJEEEPT_PS1_DpOT0_",
            "__ZN5kaldi16CompressedMatrix4ReadERNSt3__113basic_istreamIcNS1_11char_traitsIcEEEEb",
            "__ZNK5kaldi5nnet326SimpleForwardingDescriptor3DimERKNS0_4NnetE",
            "__ZNK7keenasr11ASRResponse4SaveERKNSt3__112basic_stringIcNS1_11char_traitsIcEENS1_9allocatorIcEEEE",
            "__ZN5kaldi5nnet326ComputationLoopedOptimizer21AddMatrixSwapCommandsERKNSt3__16vectorIiNS2_9allocatorIiEEEES8_PNS0_15NnetComputationE",
            "__zf_log_write",
            "__ZN5kaldi14ArpaFileParserD0Ev",
            "_us_textanalysis",
            "__ZN7keenasr12NGramBuilder33CreateOralReadingNGramFromPhrasesERKNSt3__16vectorINS1_12basic_stringIcNS1_11char_traitsIcEENS1_9allocatorIcEEEENS6_IS8_EEEERN3fst11SymbolTableERKS8_RKb",
            "__ZN3cpr10ThreadPool12CreateThreadEv",
            "__ZN7keenasr15ParseBundlePathERKNSt3__112basic_stringIcNS0_11char_traitsIcEENS0_9allocatorIcEEEEPS6_S9_",
            "__ZN16G2PPhonetisaurus11PhoneticizeERKNSt3__112basic_stringIcNS0_11char_traitsIcEENS0_9allocatorIcEEEE",
            "_curl_easy_strerror",
            "__ZN7keenasr10Recognizer21StopListeningInternalEbNSt3__16vectorIiNS1_9allocatorIiEEEE",
            "__ZN5kaldi21IvectorExtractorStats15CommitStatsForMERKNS_16IvectorExtractorERKNS_30IvectorExtractorUtteranceStatsERKNS_10VectorBaseIdEERKNS_8SpMatrixIdEE",
            "_ff_register",
            "_cst_wave_resize",
            "__ZN4onnx13TypeProto_Map21CheckTypeAndMergeFromERKN6google8protobuf11MessageLiteE",
            "__ZN3fst17InverseContextFst5FinalEi",
            "__Z15AddWordPositionRKNSt3__16vectorINS_12basic_stringIcNS_11char_traitsIcEENS_9allocatorIcEEEENS4_IS6_EEEE",
            "__ZN20KaldiNNet3Recognizer16FinalizeDecodingEv",
            "__ZNK5kaldi28OnlineIvectorEstimationStats10GetIvectorEiPNS_10VectorBaseIdEE",
            "__ZNK5kaldi11Clusterable8ObjfPlusERKS0_",
            "__ZN5kaldi13TableEventMap5WriteERNSt3__113basic_ostreamIcNS1_11char_traitsIcEEEEb",
            "__ZN7keenasr13DecodingGraph49GetPurePhoneSymbolsFilepathForDecodingGraphAtPathERKNSt3__112basic_stringIcNS1_11char_traitsIcEENS1_9allocatorIcEEEE",
            "__ZNK4onnx10ModelProto18_InternalSerializeEPhPN6google8protobuf2io19EpsCopyOutputStreamE",
            "__ZN3cpr7Session15SetReadCallbackERKNS_12ReadCallbackE",
            "__ZN4onnx16TensorShapeProtoD1Ev",
            "__ZN4onnx14ValueInfoProto21CheckTypeAndMergeFromERKN6google8protobuf11MessageLiteE",
            "__ZNK5kaldi5nnet315AffineComponent4InfoEv",
            "__ZN5kaldi7DiagGmm14CopyFromNormalERKNS_13DiagGmmNormalE",
            "__ZN5kaldi16ResampleWaveformEfRKNS_10VectorBaseIfEEfPNS_6VectorIfEE",
            "__ZN5kaldi5nnet323GeneralDropoutComponentC2ERKS1_",
            "__ZN5kaldi15GaussPostHolder5WriteERNSt3__113basic_ostreamIcNS1_11char_traitsIcEEEEbRKNS1_6vectorINS7_INS1_4pairIiNS_6VectorIfEEEENS1_9allocatorISB_EEEENSC_ISE_EEEE",
            "_voice_val",
            "__ZN3cpr7Session7SetAuthERKNS_14AuthenticationE",
            "__ZN5kaldi5nnet320DropoutMaskComponentC1Ev",
            "_AEAudioFileWriterAddAudio",
            "__ZNK5kaldi5nnet318CompositeComponent9PropagateEPKNS0_27ComponentPrecomputedIndexesERKNS_12CuMatrixBaseIfEEPS6_",
            "__ZN7keenasr13TempDirectoryD1Ev",
            "__ZN5kaldi5nnet323RepeatedAffineComponent4ReadERNSt3__113basic_istreamIcNS2_11char_traitsIcEEEEb",
            "__ZN5kaldi17WeightSilencePostERKNS_15TransitionModelERKNS_15ConstIntegerSetIiEEfPNSt3__16vectorINS8_INS7_4pairIifEENS7_9allocatorISA_EEEENSB_ISD_EEEE",
            "__ZNK4onnx13SequenceProto11GetTypeNameEv",
            "__ZNK5kaldi13GeneralMatrix15GetSparseMatrixEv",
            "__ZN5kaldi5nnet38NnetInfoERKNS0_4NnetE",
            "__ZNK3cpr13CurlContainerINS_9ParameterEE10GetContentERKNS_10CurlHolderE",
            "__ZN5kaldi5nnet324ComputationStepsComputer15ProcessSubPhaseERKNS0_18ComputationRequestERKNSt3__16vectorINS5_4pairIiNS0_5IndexEEENS5_9allocatorIS9_EEEE",
            "__ZNK5kaldi5nnet320FixedAffineComponent8BackpropERKNSt3__112basic_stringIcNS2_11char_traitsIcEENS2_9allocatorIcEEEEPKNS0_27ComponentPrecomputedIndexesERKNS_12CuMatrixBaseIfEESH_SH_PvPNS0_9ComponentEPSF_",
            "_curl_formget",
            "__ZN5kaldi5nnet330TimeHeightConvolutionComponentC1ERKS1_",
            "__ZN5kaldi15RecyclingVectorC1Ei",
            "_val_features",
            "__ZN3cpr7Session9SetOptionERKNS_7VerboseE",
            "__ZN7keenasr10Recognizer11AcceptAudioEPKsj",
            "__ZN5kaldi21IvectorExtractorStats20AccStatsForUtteranceERKNS_16IvectorExtractorERKNS_10MatrixBaseIfEERKNSt3__16vectorINS9_INS8_4pairIifEENS8_9allocatorISB_EEEENSC_ISE_EEEE",
            "__ZN3cpr7Session13SetMultiRangeERKNS_10MultiRangeE",
            "_default_utt_break",
            "__Z37AdvanceCircularBufferReadPtrBySamplesP14CircularBufferi",
            "__ZN4onnx13SequenceProtoC1EPN6google8protobuf5ArenaEb",
            "__ZN5kaldi21IvectorExtractorStatsC1ERKS0_",
            "__Z23ReadCircularBufferBytesP14CircularBufferPci",
            "__ZN5kaldi10MatrixBaseIfE9AddVecVecIfEEvfRKNS_10VectorBaseIT_EES7_",
            "__ZNK5kaldi5nnet317GeneralDescriptor22ConvertToSumDescriptorEv",
            "__ZN5kaldi5nnet310Descriptor7DestroyEv",
            "__ZN5kaldi7DiagGmmC1ERKNSt3__16vectorINS1_4pairIfPKS0_EENS1_9allocatorIS6_EEEE",
            "_cst_wave_save",
            "__ZNK5kaldi5nnet319ComputationAnalysis21FirstNontrivialAccessEi",
            "__ZN3fst18GrammarFstPreparer22InsertEpsilonsForStateEi",
            "__ZN5boost10filesystem6detail11absolute_v3ERKNS0_4pathES4_PNS_6system10error_codeE",
            "__ZN5kaldi11PlpComputerC1ERKNS_10PlpOptionsE",
            "__ZN5kaldi22GetEqualLoudnessVectorERKNS_8MelBanksEPNS_6VectorIfEE",
            "__ZN3cpr7Session12UpdateHeaderERKNSt3__13mapINS1_12basic_stringIcNS1_11char_traitsIcEENS1_9allocatorIcEEEES8_NS_22CaseInsensitiveCompareENS6_INS1_4pairIKS8_S8_EEEEEE",
            "__ZNK5kaldi5nnet330TimeHeightConvolutionComponent8InputDimEv",
            "__ZN3cpr7Session9SetOptionEONS_14AcceptEncodingE",
            "__ZN5kaldi5nnet319ComputationExpander17ComputeMatrixInfoEv",
            "__ZNK5kaldi7FullGmm26GaussianSelectionPreselectERKNS_10VectorBaseIfEERKNSt3__16vectorIiNS5_9allocatorIiEEEEiPS9_",
            "__ZN5kaldi5nnet34NnetC1ERKS1_",
            "__ZN5kaldi13ReadBasicTypeIbEEvRNSt3__113basic_istreamIcNS1_11char_traitsIcEEEEbPT_",
            "__ZNK5kaldi5nnet38Compiler25CompileForwardFromIndexesEiifRKNSt3__16vectorIiNS2_9allocatorIiEEEEPNS0_15NnetComputationE",
            "__ZN7keenasr11ASRResponseD0Ev",
            "__ZNK7keenasr11ASRResponse12GetAudioDataEv",
            "_cst_fopen",
            "__ZNK5kaldi5nnet330TimeHeightConvolutionComponent4InfoEv",
            "__ZNK3cpr10CurlHolder9urlDecodeERKNSt3__112basic_stringIcNS1_11char_traitsIcEENS1_9allocatorIcEEEE",
            "__ZN5kaldi10GetStubMapEiRKNSt3__16vectorINS1_IiNS0_9allocatorIiEEEENS2_IS4_EEEERKS4_RKNS1_IbNS2_IbEEEEPi",
            "__ZNK5kaldi5nnet327BackpropTruncationComponent17PrecomputeIndexesERKNS0_19MiscComputationInfoERKNSt3__16vectorINS0_5IndexENS5_9allocatorIS7_EEEESC_b",
            "__ZNK5kaldi5nnet320DropoutMaskComponent9PropagateEPKNS0_27ComponentPrecomputedIndexesERKNS_12CuMatrixBaseIfEEPS6_",
            "__ZN5kaldi5nnet323time_height_convolution15MakeComputationERKNS1_16ConvolutionModelERNS1_24ConvolutionComputationIoERKNS1_29ConvolutionComputationOptionsEPNS1_22ConvolutionComputationE",
            "__ZN3fst8internal15SymbolTableImpl4ReadERNSt3__113basic_istreamIcNS2_11char_traitsIcEEEERKNS_22SymbolTableReadOptionsE",
            "__ZN5kaldi18AddTransitionProbsERKNS_15TransitionModelEffPN3fst9VectorFstINS3_6ArcTplINS3_16LatticeWeightTplIfEEEENS3_11VectorStateIS8_NSt3__19allocatorIS8_EEEEEE",
            "__ZNK5kaldi15TransitionModel9NumPhonesEv",
            "__ZNK5kaldi5nnet326OffsetForwardingDescriptor11WriteConfigERNSt3__113basic_ostreamIcNS2_11char_traitsIcEEEERKNS2_6vectorINS2_12basic_stringIcS5_NS2_9allocatorIcEEEENSA_ISC_EEEE",
            "__ZN5kaldi10MatrixBaseIfE10CopyFromSpIfEEvRKNS_8SpMatrixIT_EE",
            "_curl_easy_recv",
            "_flite_text_to_wave",
            "_AERecorderStartRecording",
            "__ZN5kaldi5nnet315AffineComponentC2ERKNS_12CuMatrixBaseIfEERKNS_12CuVectorBaseIfEEf",
            "__ZN4onnx17TrainingInfoProto9_Internal14initializationEPKS0_",
            "__ZN5kaldi7DiagGmm4ReadERNSt3__113basic_istreamIcNS1_11char_traitsIcEEEEb",
            "__ZN20KaldiNNet3Recognizer26LoadPronunciationEvaluatorERKNSt3__112basic_stringIcNS0_11char_traitsIcEENS0_9allocatorIcEEEE",
            "__ZN5kaldi5nnet313PerturbParamsEfPNS0_4NnetE",
            "__ZNK4onnx10GraphProto12ByteSizeLongEv",
            "__ZN5kaldi5nnet321OnlineNaturalGradientC1Ev",
            "__ZN3cpr5Files12emplace_backERKNS_4FileE",
            "__ZN5kaldi5nnet326ComputationLoopedOptimizer18FindActiveMatricesERKNS0_15NnetComputationERKNS0_8AnalyzerERKNSt3__16vectorIiNS8_9allocatorIiEEEEPNS9_ISC_NSA_ISC_EEEE",
            "__ZN4onnx19TensorProto_SegmentC1ERKS0_",
            "__ZN5kaldi5nnet318GetNnetExampleSizeERKNS0_11NnetExampleE",
            "_WebRtcVad_CalculateFeatures",
            "__ZN5kaldi19SplitStringToVectorERKNSt3__112basic_stringIcNS0_11char_traitsIcEENS0_9allocatorIcEEEEPKcbPNS0_6vectorIS6_NS4_IS6_EEEE",
            "__ZN5kaldi5nnet326ComputationLoopedOptimizer15FindFirstRepeatERKNSt3__16vectorINS3_INS2_4pairIiiEENS2_9allocatorIS5_EEEENS6_IS8_EEEEiPiSD_",
            "_val_delete_track",
            "__ZN20KaldiNNet3RecognizerC2ERKNSt3__112basic_stringIcNS0_11char_traitsIcEENS0_9allocatorIcEEEES8_S8_S8_",
            "__ZN5kaldi5nnet321OnlineNaturalGradient18ReorthogonalizeRt1ERKNS_10VectorBaseIfEEfPNS_12CuMatrixBaseIfEES8_S8_",
            "__ZNK5kaldi16IvectorExtractor5WriteERNSt3__113basic_ostreamIcNS1_11char_traitsIcEEEEbb",
            "__ZN4onnx9TypeProto25set_allocated_tensor_typeEPNS_16TypeProto_TensorE",
            "__ZN5kaldi5nnet323time_height_convolution16ConvolutionModel4ReadERNSt3__113basic_istreamIcNS3_11char_traitsIcEEEEb",
            "__ZN3fst11PushSpecialEPNS_9VectorFstINS_6ArcTplINS_17TropicalWeightTplIfEEEENS_11VectorStateIS4_NSt3__19allocatorIS4_EEEEEEf",
            "_val_ffunc",
            "_curl_version_info",
            "__ZN7keenasr22PronunciationEvaluatorD2Ev",
            "__ZN5kaldi5nnet38Compiler17CreateComputationERKNS0_15CompilerOptionsEPNS0_15NnetComputationE",
            "__ZNK5kaldi5nnet325ConstantFunctionComponent10DotProductERKNS0_18UpdatableComponentE",
            "__ZN5kaldi5nnet318UpdatableComponent27InitLearningRatesFromConfigEPNS_10ConfigLineE",
            "__ZN5kaldi5nnet319MaxpoolingComponentC2ERKS1_",
            "__ZNK5kaldi5nnet328RestrictedAttentionComponent8BackpropERKNSt3__112basic_stringIcNS2_11char_traitsIcEENS2_9allocatorIcEEEEPKNS0_27ComponentPrecomputedIndexesERKNS_12CuMatrixBaseIfEESH_SH_PvPNS0_9ComponentEPSF_",
            "__ZN5kaldi8EventMap4ReadERNSt3__113basic_istreamIcNS1_11char_traitsIcEEEEb",
            "__ZNK5kaldi5nnet330TimeHeightConvolutionComponent5CheckEv",
            "__ZN5kaldi5nnet320ConvolutionComponent4InitEiiiiiiiNS1_23TensorVectorizationTypeENSt3__112basic_stringIcNS3_11char_traitsIcEENS3_9allocatorIcEEEE",
            "__ZN5kaldi5nnet323time_height_convolution15CheckModelAndIoERKNS1_16ConvolutionModelERKNS1_24ConvolutionComputationIoEb",
            "__ZNK5kaldi5nnet323ComputationGraphBuilder13PrintCindexIdERNSt3__113basic_ostreamIcNS2_11char_traitsIcEEEEi",
            "__ZN5kaldi11ConstArpaLm4ReadERNSt3__113basic_istreamIcNS1_11char_traitsIcEEEEb",
            "__ZNK5kaldi9Questions5WriteERNSt3__113basic_ostreamIcNS1_11char_traitsIcEEEEb",
            "__ZN3fst21CompositeWeightWriterC2ERNSt3__113basic_ostreamIcNS1_11char_traitsIcEEEE",
            "__ZNK5kaldi5nnet315NnetComputation13SubMatrixInfo5WriteERNSt3__113basic_ostreamIcNS3_11char_traitsIcEEEEb",
            "_flite_phones_to_speech",
            "__ZNK5kaldi16IvectorExtractor21GetAcousticAuxfGconstERKNS_30IvectorExtractorUtteranceStatsE",
            "__ZN5kaldi5nnet321DerivativeTimeLimiter22MapSimpleMatrixCommandEPNS0_15NnetComputation7CommandE",
            "_get_sts_residual_fixed",
            "__ZN5kaldi11FindAllKeysERKNSt3__16vectorINS0_4pairINS1_INS2_IiiEENS0_9allocatorIS3_EEEEPNS_11ClusterableEEENS4_IS9_EEEENS_11AllKeysTypeEPNS1_IiNS4_IiEEEE",
            "__ZN5kaldi6DurbinEiPKfPfS2_",
            "__ZN7keenasr8Uploader20GetJsonFilesToUploadERKNSt3__112basic_stringIcNS1_11char_traitsIcEENS1_9allocatorIcEEEE",
            "_new_features",
            "__ZN7keenasr22PronunciationEvaluator24GetPhoneIdsAndPosteriorsERKN3fst9VectorFstINS1_6ArcTplINS1_17TropicalWeightTplIfEEEENS1_11VectorStateIS6_NSt3__19allocatorIS6_EEEEEERNS8_6vectorIiNS9_IiEEEERN5kaldi6VectorIfEE",
            "__ZNK5kaldi5nnet317UtteranceSplitter22DefaultDurationOfSplitERKNSt3__16vectorIiNS2_9allocatorIiEEEE",
            "__ZN5kaldi5nnet323ScaleAndOffsetComponent14InitFromConfigEPNS_10ConfigLineE",
            "__ZN5kaldi5nnet323GeneralDropoutComponent14InitFromConfigEPNS_10ConfigLineE",
            "__ZN5kaldi34CompartmentalizedBottomUpClusterer21InitializeAssignmentsEv",
            "__ZN4onnx18TypeProto_Optional8CopyFromERKS0_",
            "__ZN5kaldi5nnet320BlockAffineComponent13PerturbParamsEf",
            "__ZN7keenasr10Recognizer52PrepareForListeningWithContextualDecodingGraphAtPathERKNSt3__112basic_stringIcNS1_11char_traitsIcEENS1_9allocatorIcEEEEjb",
            "__Z26CircularBufferBytesWrittenP14CircularBuffer",
            "__ZN5kaldi10OnlineCmvnC1ERKNS_17OnlineCmvnOptionsEPNS_22OnlineFeatureInterfaceE",
            "__ZN4onnx17SparseTensorProto9_Internal6valuesEPKS0_",
            "__ZNK3cpr7Cookies4cendEv",
            "_delete_audio_streaming_info",
            "__ZN3fst14FstReadOptions8ReadModeERKNSt3__112basic_stringIcNS1_11char_traitsIcEENS1_9allocatorIcEEEE",
            "_MlasConvSymU8KernelNeon",
            "__ZN5kaldi7FullGmm11InterpolateEfRKS0_t",
            "__ZN5kaldi18ClassifyWxfilenameERKNSt3__112basic_stringIcNS0_11char_traitsIcEENS0_9allocatorIcEEEE",
            "__ZN15KaldiRecognizer22SetEndpointConfigParamE17KaldiVadParameterf",
            "__ZN5kaldi6DitherEPNS_10VectorBaseIfEEf",
            "__ZNK7Lexicon18GetIncompleteWordsERKN3fst11SymbolTableE",
            "__ZNK5kaldi5nnet326SimpleForwardingDescriptor19GetNodeDependenciesEPNSt3__16vectorIiNS2_9allocatorIiEEEE",
            "__ZNK5kaldi5nnet327ElementwiseProductComponent5WriteERNSt3__113basic_ostreamIcNS2_11char_traitsIcEEEEb",
            "__ZN4onnx16TypeProto_OpaqueC1EPN6google8protobuf5ArenaEb",
            "__ZNK4onnx17SparseTensorProto13IsInitializedEv",
            "_curl_global_sslset",
            "__ZN5kaldi15ReadKaldiObjectINS_6MatrixIfEEEEvRKNSt3__112basic_stringIcNS3_11char_traitsIcEENS3_9allocatorIcEEEEPT_",
            "_item_equal",
            "__ZN5boost10filesystem6detail15path_algorithms18remove_filename_v4ERNS0_4pathE",
            "__ZNK5kaldi26OnlineNnet2FeaturePipeline3DimEv",
            "__ZN5kaldi5nnet312NnetComputerD1Ev",
            "__ZN5kaldi5nnet38Compiler25CompileBackwardDescriptorEiPNS0_15NnetComputationE",
            "__ZN5kaldi20OnlineIvectorFeature18UpdateFrameWeightsERKNSt3__16vectorINS1_4pairIifEENS1_9allocatorIS4_EEEE",
            "__ZN4onnx9TypeProto22set_allocated_map_typeEPNS_13TypeProto_MapE",
            "__ZN3cpr5Files3endEv",
            "__ZN5kaldi12ParseOptions6ToUintERKNSt3__112basic_stringIcNS1_11char_traitsIcEENS1_9allocatorIcEEEE",
            "__ZNK5kaldi10ConfigLine12UnusedValuesEv",
            "__ZNK5kaldi12ParseOptions7NumArgsEv",
            "__ZNK5kaldi5nnet323RepeatedAffineComponent8BackpropERKNSt3__112basic_stringIcNS2_11char_traitsIcEENS2_9allocatorIcEEEEPKNS0_27ComponentPrecomputedIndexesERKNS_12CuMatrixBaseIfEESH_SH_PvPNS0_9ComponentEPSF_",
            "_AEMixerBufferEnqueue",
            "_item_feat_present",
            "__ZNK5kaldi5nnet34Nnet5CheckEb",
            "__ZNK5kaldi5nnet320DropoutMaskComponent5WriteERNSt3__113basic_ostreamIcNS2_11char_traitsIcEEEEb",
            "_relation_val",
            "_add_residual_pulse",
            "__ZN5kaldi5nnet313TdnnComponentC2Ev",
            "__ZN7keenasr8Uploader14UploadResponseERKNSt3__112basic_stringIcNS1_11char_traitsIcEENS1_9allocatorIcEEEES9_",
            "__ZNK5kaldi5nnet315NnetComputation19GetSubmatrixStringsERKNS0_4NnetEPNSt3__16vectorINS5_12basic_stringIcNS5_11char_traitsIcEENS5_9allocatorIcEEEENSA_ISC_EEEE",
            "__ZN3fst10MappedFileD1Ev",
            "__ZNK5kaldi5nnet38Compiler31ComputeValueSubmatLocationsListERKNSt3__16vectorINS3_INS2_4pairIiiEENS2_9allocatorIS5_EEEENS6_IS8_EEEEPSA_",
            "__ZN5kaldi5nnet316ParseConfigLinesERKNSt3__16vectorINS1_12basic_stringIcNS1_11char_traitsIcEENS1_9allocatorIcEEEENS6_IS8_EEEEPNS2_INS_10ConfigLineENS6_ISD_EEEE",
            "_zf_log_set_output_level",
            "__ZN4onnx9TypeProto21CheckTypeAndMergeFromERKN6google8protobuf11MessageLiteE",
            "__ZN5kaldi30IvectorExtractorUtteranceStats5ScaleEd",
            "__ZN5kaldi10SelectLagsERKNS_22PitchExtractionOptionsEPNS_6VectorIfEE",
            "__ZN5kaldi5nnet330OutputGruNonlinearityComponent4ReadERNSt3__113basic_istreamIcNS2_11char_traitsIcEEEEb",
            "__ZN5kaldi15SplitStatsByKeyERKNSt3__16vectorINS0_4pairINS1_INS2_IiiEENS0_9allocatorIS3_EEEEPNS_11ClusterableEEENS4_IS9_EEEEiPNS1_ISB_NS4_ISB_EEEE",
            "_utt_synth_phones",
            "__ZNK7keenasr11ASRResponse13GetSampleRateEv",
            "__ZN7keenasr22PronunciationEvaluator14CreateFeaturesERKN5kaldi6VectorIfEERKNSt3__16vectorIiNS6_9allocatorIiEEEESC_RNS1_6MatrixIfEE",
            "__ZN5kaldi13ProcessWindowERKNS_22FrameExtractionOptionsERKNS_21FeatureWindowFunctionEPNS_10VectorBaseIfEEPf",
            "__ZN5kaldi13AddToClustersERKNSt3__16vectorIPNS_11ClusterableENS0_9allocatorIS3_EEEERKNS1_IiNS4_IiEEEEPS6_",
            "_new_relation",
            "__ZN5kaldi27PosteriorEntriesAreDisjointERKNSt3__16vectorINS0_4pairIifEENS0_9allocatorIS3_EEEES8_",
            "__ZN3cpr5Error24getErrorCodeForCurlErrorEi",
            "__ZN5kaldi5nnet313MergeExamplesERKNSt3__16vectorINS0_11NnetExampleENS1_9allocatorIS3_EEEEbPS3_",
            "_AECBPeek",
            "__ZN5ngram11NGramOutput11GetOOVLabelEPdPNSt3__112basic_stringIcNS2_11char_traitsIcEENS2_9allocatorIcEEEEPi",
            "__ZN5kaldi5nnet39GetNxListERKNSt3__16vectorINS0_5IndexENS1_9allocatorIS3_EEEEPNS2_INS1_4pairIiiEENS4_ISA_EEEE",
            "__ZNK3fst9FstHeader11DebugStringEv",
            "_val_lexicon",
            "_WebRtcSpl_DownBy2ShortToInt",
            "__ZNK5kaldi5nnet315NnetComputation15MatrixDebugInfo5WriteERNSt3__113basic_ostreamIcNS3_11char_traitsIcEEEEb",
            "__ZN5kaldi27ComputeCompactLatticeAlphasERKN3fst9VectorFstINS0_6ArcTplINS0_23CompactLatticeWeightTplINS0_16LatticeWeightTplIfEEiEEEENS0_11VectorStateIS7_NSt3__19allocatorIS7_EEEEEEPNS9_6vectorIdNSA_IdEEEE",
            "__ZN5kaldi5nnet328RestrictedAttentionComponentC1ERKS1_",
            "__ZNK5kaldi5nnet321OnlineNaturalGradient9ComputeZtEifRKNS_10VectorBaseIfEES5_RKNS_10MatrixBaseIfEES9_PNS_8SpMatrixIdEE",
            "__ZN5kaldi5nnet320ExampleMergingConfig14ComputeDerivedEv",
            "__ZN7Lexicon21GetLocaleLanguageCodeERKNSt3__112basic_stringIcNS0_11char_traitsIcEENS0_9allocatorIcEEEE",
            "__ZN5kaldi5nnet323ComputationGraphBuilder17BuildGraphOneIterEv",
            "__ZN5kaldi27ConstArpaLmDeterministicFst6GetArcEiiPN3fst6ArcTplINS1_17TropicalWeightTplIfEEEE",
            "__ZN5kaldi5nnet318UpdatableComponentC2ERKS1_",
            "__ZN20KaldiNNet3Recognizer28SaveSpeakerAdaptationProfileENSt3__112basic_stringIcNS0_11char_traitsIcEENS0_9allocatorIcEEEE",
            "__ZN5kaldi23AccumulateTreeStatsInfoC2ERKNS_26AccumulateTreeStatsOptionsE",
            "__ZNK5kaldi5nnet318ComputationChecker25CheckComputationUndefinedEv",
            "__ZN5kaldi5nnet314FindSccsTarjanERKNSt3__16vectorINS2_IiNS1_9allocatorIiEEEENS3_IS5_EEEEPS7_",
            "__ZNK5kaldi5nnet319ComputationAnalysis15LastWriteAccessEi",
            "__ZN5kaldi5nnet325CachingOptimizingCompilerC2ERKNS0_4NnetENS0_32CachingOptimizingCompilerOptionsE",
            "__ZN3cpr4util9urlDecodeERKNSt3__112basic_stringIcNS1_11char_traitsIcEENS1_9allocatorIcEEEE",
            "__ZN3cpr7Session12SetMultipartERKNS_9MultipartE",
            "__ZNK5kaldi14LinearResample19GetNumOutputSamplesExb",
            "_us_f0_model",
            "__ZN5kaldi10ConfigLine9ParseLineERKNSt3__112basic_stringIcNS1_11char_traitsIcEENS1_9allocatorIcEEEE",
            "__ZN5kaldi5nnet318ComputationChecker5CheckEv",
            "__ZNK5kaldi5nnet319MaxpoolingComponent5CheckEv",
            "_val_delete_uttfunc",
            "__ZN4onnx22StringStringEntryProtoC2ERKS0_",
            "__ZNK5kaldi5nnet330TimeHeightConvolutionComponent17PrecomputeIndexesERKNS0_19MiscComputationInfoERKNSt3__16vectorINS0_5IndexENS5_9allocatorIS7_EEEESC_b",
            "__ZN5kaldi5nnet311NnetTrainer13TrainInternalERKNS0_11NnetExampleERKNS0_15NnetComputationE",
            "__ZN5kaldi12CuVectorBaseIfE14CopyColFromMatIdEEvRKNS_12CuMatrixBaseIT_EEi",
            "__ZN5kaldi4TrimEPNSt3__112basic_stringIcNS0_11char_traitsIcEENS0_9allocatorIcEEEE",
            "__ZN5kaldi13ReverseFramesERKNS_10MatrixBaseIfEEPNS_6MatrixIfEE",
            "__ZN5kaldi12ParseOptions6ToBoolENSt3__112basic_stringIcNS1_11char_traitsIcEENS1_9allocatorIcEEEE",
            "__ZN5kaldi5nnet325CachingOptimizingCompilerC2ERKNS0_4NnetERKNS0_19NnetOptimizeOptionsENS0_32CachingOptimizingCompilerOptionsE",
            "__ZN3cpranENS_17PostRedirectFlagsES0_",
            "__ZN4onnx18TypeProto_SequenceD1Ev",
            "__ZN5kaldi5nnet318CompositeComponent11UnVectorizeERKNS_10VectorBaseIfEE",
            "__ZN4onnx14AttributeProtoD1Ev",
            "_us_ff_register",
            "__ZNK5kaldi5nnet330OutputGruNonlinearityComponent5WriteERNSt3__113basic_ostreamIcNS2_11char_traitsIcEEEEb",
            "__ZN20KaldiNNet3RecognizerD2Ev",
            "__ZN7keenasr11ASRResponseC1EOS0_",
            "__ZNK5kaldi5nnet329StatisticsExtractionComponent5WriteERNSt3__113basic_ostreamIcNS2_11char_traitsIcEEEEb",
            "__ZNK7keenasr10Recognizer22SpeakerProfileFilenameEv",
            "_curl_mvsprintf",
            "_get_param_string",
            "__ZN5kaldi12AccCmvnStatsERKNS_10MatrixBaseIfEEPKNS_10VectorBaseIfEEPNS0_IdEE",
            "__ZN3cpr7Session10PrepareGetEv",
            "__ZN4onnx18TypeProto_OptionalC2ERKS0_",
            "__ZN5kaldi5nnet317UtteranceSplitter25DistributeRandomlyUniformEiPNSt3__16vectorIiNS2_9allocatorIiEEEE",
            "__ZN5kaldi12GenRandStatsEiiiiRKNSt3__16vectorIiNS0_9allocatorIiEEEES6_RKNS1_IbNS2_IbEEEEbPNS1_INS0_4pairINS1_INSB_IiiEENS2_ISC_EEEEPNS_11ClusterableEEENS2_ISH_EEEE",
            "_curl_easy_header",
            "__ZN5kaldi16IvectorExtractor18ComputeDerivedVarsEv",
            "__ZN5kaldi10ConfigLine8GetValueERKNSt3__112basic_stringIcNS1_11char_traitsIcEENS1_9allocatorIcEEEEPi",
            "__ZN5kaldi5nnet320ConvolutionComponent4InitEiiiiiiiiNS1_23TensorVectorizationTypeEff",
            "__ZNK5kaldi5nnet323GeneralDropoutComponent7GetMemoEi",
            "__ZN5kaldi8EventMap5CheckERKNSt3__16vectorINS1_4pairIiiEENS1_9allocatorIS4_EEEE",
            "__ZN4onnx16TypeProto_Opaque9MergeFromERKS0_",
            "__ZNK5kaldi5nnet330NaturalGradientAffineComponent4CopyEv",
            "__ZN5kaldi5nnet316PermuteComponent23ComputeReverseColumnMapEv",
            "_default_pause_insertion",
            "__ZN4onnx16TensorShapeProto5ClearEv",
            "__ZN5kaldi21IvectorExtractorStatsC2ERKS0_",
            "__ZN5kaldi5nnet315NnetComputation9NewMatrixEiiNS_16MatrixStrideTypeE",
            "__ZNK4onnx22StringStringEntryProto13SetCachedSizeEi",
            "__ZNK5kaldi11ConstArpaLm9WriteArpaERNSt3__113basic_ostreamIcNS1_11char_traitsIcEEEE",
            "__ZN5kaldi5Input5CloseEv",
            "__ZN5kaldi5nnet318BatchNormComponent4ReadERNSt3__113basic_istreamIcNS2_11char_traitsIcEEEEb",
            "__ZN5kaldi22ConvertLatticeToPhonesERKNS_15TransitionModelEPN3fst9VectorFstINS3_6ArcTplINS3_16LatticeWeightTplIfEEEENS3_11VectorStateIS8_NSt3__19allocatorIS8_EEEEEE",
            "__ZNK5kaldi5nnet315NnetComputeProb15PrintTotalStatsEv",
            "__ZNK5kaldi5nnet321OnlineNaturalGradient9ComputeEtERKNS_10VectorBaseIfEEfPS3_S6_S6_",
            "__ZN4onnx14AttributeProtoC2EPN6google8protobuf5ArenaEb",
            "__ZN5kaldi5nnet329RemoveCommandsForUnusedMatrixERKNS0_8AnalyzerEiPNS0_15NnetComputationE",
            "__ZN5kaldi29ConvertCompactLatticeToPhonesERKNS_15TransitionModelEPN3fst9VectorFstINS3_6ArcTplINS3_23CompactLatticeWeightTplINS3_16LatticeWeightTplIfEEiEEEENS3_11VectorStateISA_NSt3__19allocatorISA_EEEEEE",
            "__Z11AugmentGFstRKNSt3__13setINS_4pairIiiEENS_4lessIS2_EENS_9allocatorIS2_EEEEN3fst9VectorFstINSA_6ArcTplINSA_17TropicalWeightTplIfEEEENSA_11VectorStateISF_NS5_ISF_EEEEEEPSJ_",
            "__Z18CreateNGramCounteriNSt3__112basic_stringIcNS_11char_traitsIcEENS_9allocatorIcEEEEPPKN3fst3FstINS6_6ArcTplINS6_17TropicalWeightTplIfEEEEEE",
            "__ZN7LexiconD2Ev",
            "__ZN5kaldi5nnet317ConstantComponentC2Ev",
            "__ZN5kaldi18LatticeWordAligner16ComputationState14OutputArcForceERKNS_16WordBoundaryInfoERKNS_15TransitionModelEPN3fst6ArcTplINS8_23CompactLatticeWeightTplINS8_16LatticeWeightTplIfEEiEEEEPb",
            "__ZN5kaldi14SumClusterableERKNSt3__16vectorIPNS_11ClusterableENS0_9allocatorIS3_EEEE",
            "_item_parent",
            "_phoneset_val",
            "__ZN5kaldi29CompactLatticeToWordAlignmentERKN3fst9VectorFstINS0_6ArcTplINS0_23CompactLatticeWeightTplINS0_16LatticeWeightTplIfEEiEEEENS0_11VectorStateIS7_NSt3__19allocatorIS7_EEEEEEPNS9_6vectorIiNSA_IiEEEESJ_SJ_",
            "__ZNK4onnx16TypeProto_Tensor13IsInitializedEv",
            "__ZN5kaldi7DiagGmm5SplitEifPNSt3__16vectorIiNS1_9allocatorIiEEEE",
            "__ZNK5kaldi5nnet317SumBlockComponent8BackpropERKNSt3__112basic_stringIcNS2_11char_traitsIcEENS2_9allocatorIcEEEEPKNS0_27ComponentPrecomputedIndexesERKNS_12CuMatrixBaseIfEESH_SH_PvPNS0_9ComponentEPSF_",
            "__ZNK5kaldi28OnlineIvectorEstimationStats10ObjfChangeERKNS_10VectorBaseIdEE",
            "__ZN5kaldi17BottomUpClusterer7ClusterEv",
            "_delete_utterance",
            "__ZN5kaldi5nnet330SeparateSubmatsWithLargeCountsERKNSt3__16vectorIiNS1_9allocatorIiEEEERKNS2_INS2_INS1_4pairIiiEENS3_IS9_EEEENS3_ISB_EEEEPSD_SG_",
            "__ZNK5kaldi5nnet320ExampleMergingConfig6IntSet19LargestValueInRangeEi",
            "__ZNK5kaldi5nnet324PerElementScaleComponent10DotProductERKNS0_18UpdatableComponentE",
            "__ZN5kaldi9SemaphoreD1Ev",
            "__ZN7keenasr9WebRTCVAD25AudioBufferContainsSpeechEPKsi",
            "__ZN5kaldi15RecyclingVector8PushBackEPNS_6VectorIfEE",
            "__ZN5kaldi19PrintableRxfilenameERKNSt3__112basic_stringIcNS0_11char_traitsIcEENS0_9allocatorIcEEEE",
            "__ZN5kaldi19CompactLatticeDepthERKN3fst9VectorFstINS0_6ArcTplINS0_23CompactLatticeWeightTplINS0_16LatticeWeightTplIfEEiEEEENS0_11VectorStateIS7_NSt3__19allocatorIS7_EEEEEEPi",
            "_en_exp_id",
            "__ZNK5ngram11NGramOutput14ShowRandSymbolEiPbbi",
            "__ZN4onnx14ValueInfoProtoC2EPN6google8protobuf5ArenaEb",
            "__ZNK5kaldi5nnet314PnormComponent9PropagateEPKNS0_27ComponentPrecomputedIndexesERKNS_12CuMatrixBaseIfEEPS6_",
            "__ZN3cpr7SessionC2Ev",
            "__ZN5kaldi26OnlineNnet2FeaturePipeline13InputFinishedEv",
            "__ZN5kaldi5nnet324GruNonlinearityComponent3AddEfRKNS0_9ComponentE",
            "_curl_easy_setopt",
            "__ZN5kaldi5nnet322NumUpdatableComponentsERKNS0_4NnetE",
            "__ZN5kaldi12MfccComputerC1ERKS0_",
            "__ZNK5kaldi5nnet319NnetOptimizeOptions5WriteERNSt3__113basic_ostreamIcNS2_11char_traitsIcEEEEb",
            "__ZN7keenasr10Recognizer19StartDecodingThreadEv",
            "__ZN5kaldi5nnet39CindexSetC2ERKNS0_16ComputationGraphE",
            "__ZN7keenasr9ASRResultC2Ev",
            "__ZN4onnx18OperatorSetIdProtoD1Ev",
            "__ZN4onnx9NodeProtoC1EPN6google8protobuf5ArenaEb",
            "__ZN5kaldi14PitchFrameInfoC2EPS0_",
            "__ZNK5kaldi5nnet315AffineComponent13NumParametersEv",
            "__ZN5kaldi26ComputeCompactLatticeBetasERKN3fst9VectorFstINS0_6ArcTplINS0_23CompactLatticeWeightTplINS0_16LatticeWeightTplIfEEiEEEENS0_11VectorStateIS7_NSt3__19allocatorIS7_EEEEEEPNS9_6vectorIdNSA_IdEEEE",
            "__ZN4onnx9NodeProto5ClearEv",
            "__ZNK5kaldi5nnet315LinearComponent4CopyEv",
            "__ZN7keenasr9ASRResult12SetCleanTextERKNSt3__112basic_stringIcNS1_11char_traitsIcEENS1_9allocatorIcEEEE",
            "__ZN7keenasr22PronunciationEvaluator8FinalizeEv",
            "_curl_easy_upkeep",
            "__ZN4onnx13OptionalProto9_Internal9map_valueEPKS0_",
            "__ZN5kaldi22OnlinePitchFeatureImplD2Ev",
            "__ZNK5kaldi5nnet316PermuteComponent8BackpropERKNSt3__112basic_stringIcNS2_11char_traitsIcEENS2_9allocatorIcEEEEPKNS0_27ComponentPrecomputedIndexesERKNS_12CuMatrixBaseIfEESH_SH_PvPNS0_9ComponentEPSF_",
            "__ZN6google8protobuf5Arena18CreateMaybeMessageIN4onnx17SparseTensorProtoEJEEEPT_PS1_DpOT0_",
            "__ZN5kaldi14ScalePosteriorEfPNSt3__16vectorINS1_INS0_4pairIifEENS0_9allocatorIS3_EEEENS4_IS6_EEEE",
            "__ZNK4onnx10GraphProto11GetTypeNameEv",
            "__ZNK5kaldi5nnet317ConstantComponent9PropagateEPKNS0_27ComponentPrecomputedIndexesERKNS_12CuMatrixBaseIfEEPS6_",
            "__ZNK5kaldi5nnet321OptionalSumDescriptor11WriteConfigERNSt3__113basic_ostreamIcNS2_11char_traitsIcEEEERKNS2_6vectorINS2_12basic_stringIcS5_NS2_9allocatorIcEEEENSA_ISC_EEEE",
            "_TPCircularBufferPeekContiguousWrapped",
            "__ZNK5kaldi5nnet326StatisticsPoolingComponent5WriteERNSt3__113basic_ostreamIcNS2_11char_traitsIcEEEEb",
            "__ZN3cpr7Session11makeRequestEv",
            "__ZNK7keenasr10Recognizer18IsVadGatingEnabledEv",
            "__ZNK5kaldi5nnet326StatisticsPoolingComponent14ReorderIndexesEPNSt3__16vectorINS0_5IndexENS2_9allocatorIS4_EEEES8_",
            "__ZN5kaldi5nnet317GetCommandsOfTypeERKNS0_15NnetComputationENS0_11CommandTypeEPNSt3__16vectorIiNS5_9allocatorIiEEEE",
            "__ZN5kaldi5nnet321ComputationRenumberer15RenumberIndexesEv",
            "__ZN5kaldi7DiagGmmC2ERKNSt3__16vectorINS1_4pairIfPKS0_EENS1_9allocatorIS6_EEEE",
            "__ZNK4onnx26TensorShapeProto_Dimension12ByteSizeLongEv",
            "__ZN20KaldiNNet3Recognizer22ResetSpeakerAdaptationEv",
            "__ZN5kaldi5nnet329DecodableNnetLoopedOnlineBase12AdvanceChunkEv",
            "__ZNK5kaldi7DiagGmm13LogLikelihoodERKNS_10VectorBaseIfEE",
            "__ZN5kaldi5nnet320ComputationVariables11FindIndexOfERKNSt3__16vectorIiNS2_9allocatorIiEEEEi",
            "__ZNK4onnx22TypeProto_SparseTensor18_InternalSerializeEPhPN6google8protobuf2io19EpsCopyOutputStreamE",
            "__ZN5kaldi30LatticeIncrementalDeterminizer30ProcessArcsFromChunkStartStateERKN3fst9VectorFstINS1_6ArcTplINS1_23CompactLatticeWeightTplINS1_16LatticeWeightTplIfEEiEEEENS1_11VectorStateIS8_NSt3__19allocatorIS8_EEEEEEPNSA_13unordered_mapIiiNSA_4hashIiEENSA_8equal_toIiEENSB_INSA_4pairIKiiEEEEEE",
            "__ZN5kaldi5nnet39attention18ApplyScalesToInputEfRKNS_12CuMatrixBaseIfEES5_PS3_",
            "__ZN4onnx13FunctionProto21CheckTypeAndMergeFromERKN6google8protobuf11MessageLiteE",
            "__ZNK5kaldi13GeneralMatrix7NumColsEv",
            "_delete_item",
            "__ZNK5kaldi17ContextDependency5WriteERNSt3__113basic_ostreamIcNS1_11char_traitsIcEEEEb",
            "_relation_name",
            "__ZN4onnx9TypeProto12InternalSwapEPS0_",
            "__ZN5kaldi5nnet321DerivativeTimeLimiter22MapIndexesMultiCommandEPNS0_15NnetComputation7CommandE",
            "__ZNK5kaldi13DiagGmmNormal13CopyToDiagGmmEPNS_7DiagGmmEt",
            "__ZN7keenasr15DirectoryExistsERKNSt3__112basic_stringIcNS0_11char_traitsIcEENS0_9allocatorIcEEEE",
            "__ZN5kaldi16WordBoundaryInfoC2ERKNS_23WordBoundaryInfoNewOptsENSt3__112basic_stringIcNS4_11char_traitsIcEENS4_9allocatorIcEEEE",
            "_WebRtcSpl_Resample16khzTo48khz",
            "__ZN5kaldi5nnet325DecodableNnetSimpleLoopedC2ERKNS0_29DecodableNnetSimpleLoopedInfoERKNS_10MatrixBaseIfEEPKNS_10VectorBaseIfEEPS7_i",
            "_curl_easy_unescape",
            "__ZN5kaldi5nnet39ScaleNnetEfPNS0_4NnetE",
            "__ZN5kaldi13ReadBasicTypeIdEEvRNSt3__113basic_istreamIcNS1_11char_traitsIcEEEEbPT_",
            "__ZN5kaldi13ClusterKMeansERKNSt3__16vectorIPNS_11ClusterableENS0_9allocatorIS3_EEEEiPS6_PNS1_IiNS4_IiEEEENS_20ClusterKMeansOptionsE",
            "__ZN3cpr16GlobalThreadPool11GetInstanceEv",
            "__ZN5kaldi5nnet325ConstantFunctionComponent4ReadERNSt3__113basic_istreamIcNS2_11char_traitsIcEEEEb",
            "__ZN3fst17RelabelPropertiesEy",
            "__ZN5kaldi5nnet315AffineComponent11UnVectorizeERKNS_10VectorBaseIfEE",
            "__ZN5boost10filesystem6detail15path_algorithms18remove_filename_v3ERNS0_4pathE",
            "__ZNK5kaldi5nnet318CompositeComponent5WriteERNSt3__113basic_ostreamIcNS2_11char_traitsIcEEEEb",
            "__ZN7keenasr12NGramBuilder22CreateNGramFromPhrasesERKNSt3__16vectorINS1_12basic_stringIcNS1_11char_traitsIcEENS1_9allocatorIcEEEENS6_IS8_EEEERN3fst11SymbolTableERKS8_RKb",
            "__ZN5boost10filesystem6detail18create_directoriesERKNS0_4pathEPNS_6system10error_codeE",
            "_hs_regdelete",
            "__ZNK5kaldi5nnet325ConstantFunctionComponent9PropagateEPKNS0_27ComponentPrecomputedIndexesERKNS_12CuMatrixBaseIfEEPS6_",
            "_WebRtcSpl_GetScalingSquare",
            "__ZN5kaldi5nnet330NaturalGradientAffineComponent6UpdateERKNSt3__112basic_stringIcNS2_11char_traitsIcEENS2_9allocatorIcEEEERKNS_12CuMatrixBaseIfEESE_",
            "__ZN7Lexicon13WstringToUtf8ERKNSt3__112basic_stringIwNS0_11char_traitsIwEENS0_9allocatorIwEEEE",
            "__ZNK5kaldi15TransitionModel27TransitionStateToForwardPdfEi",
            "__ZN5kaldi12ParseOptions8RegisterERKNSt3__112basic_stringIcNS1_11char_traitsIcEENS1_9allocatorIcEEEEPdS9_",
            "__ZN5kaldi5nnet328RestrictedAttentionComponent9ZeroStatsEv",
            "__ZN5kaldi13FbankComputer7ComputeEffPNS_10VectorBaseIfEES3_",
            "__ZN3cpr7Session13SetUnixSocketERKNS_10UnixSocketE",
            "__ZN5kaldi5nnet323RepeatedAffineComponent11UnVectorizeERKNS_10VectorBaseIfEE",
            "__ZNK5kaldi21IvectorExtractorStats12UpdateWeightERKNS_33IvectorExtractorEstimationOptionsEiPNS_16IvectorExtractorE",
            "__ZNK5kaldi5nnet326StatisticsPoolingComponent8BackpropERKNSt3__112basic_stringIcNS2_11char_traitsIcEENS2_9allocatorIcEEEEPKNS0_27ComponentPrecomputedIndexesERKNS_12CuMatrixBaseIfEESH_SH_PvPNS0_9ComponentEPSF_",
            "__ZNK5kaldi5nnet339NaturalGradientPerElementScaleComponent5WriteERNSt3__113basic_ostreamIcNS2_11char_traitsIcEEEEb",
            "__ZN5boost10filesystem16filesystem_errorC2ERKNSt3__112basic_stringIcNS2_11char_traitsIcEENS2_9allocatorIcEEEERKNS0_4pathENS_6system10error_codeE",
            "__ZN5boost10filesystem6detail15path_algorithms12extension_v3ERKNS0_4pathE",
            "__ZN5kaldi5InputD2Ev",
            "__ZN5boost10filesystem6detail5spaceERKNS0_4pathEPNS_6system10error_codeE",
            "__ZNK5ngram11NGramOutput10ShowNGramsEiRKNSt3__112basic_stringIcNS1_11char_traitsIcEENS1_9allocatorIcEEEENS0_11ShowBackoffEbb",
            "__ZN3cpr7Session9SetOptionERKNS_19ProxyAuthenticationE",
            "__ZN5kaldi5nnet317SumBlockComponent14InitFromConfigEPNS_10ConfigLineE",
            "_curl_maprintf",
            "__ZN4onnx11TensorProto14_InternalParseEPKcPN6google8protobuf8internal12ParseContextE",
            "__ZN5kaldi5nnet320ConvolutionComponent14InitFromConfigEPNS_10ConfigLineE",
            "__ZN4onnx10ModelProto14_InternalParseEPKcPN6google8protobuf8internal12ParseContextE",
            "__ZN4onnx16TensorAnnotation5ClearEv",
            "__ZN5kaldi19ShareEventMapLeavesERKNS_8EventMapEiRNSt3__16vectorINS4_IiNS3_9allocatorIiEEEENS5_IS7_EEEEPi",
            "__ZNK5kaldi20OnlineIvectorFeature10GetMinPostEf",
            "__ZNK5kaldi5nnet318BatchNormComponent9PropagateEPKNS0_27ComponentPrecomputedIndexesERKNS_12CuMatrixBaseIfEEPS6_",
            "__ZNK5kaldi5nnet315LinearComponent8BackpropERKNSt3__112basic_stringIcNS2_11char_traitsIcEENS2_9allocatorIcEEEEPKNS0_27ComponentPrecomputedIndexesERKNS_12CuMatrixBaseIfEESH_SH_PvPNS0_9ComponentEPSF_",
            "__ZNK5kaldi5nnet320BlockAffineComponent10DotProductERKNS0_18UpdatableComponentE",
            "__ZNK5kaldi5nnet330TimeHeightConvolutionComponent10DotProductERKNS0_18UpdatableComponentE",
            "_apply_synth_method",
            "__ZN5kaldi5nnet323RepeatedAffineComponent13PerturbParamsEf",
            "_val_delete_sts_list",
            "__ZNK5kaldi5nnet319MaxpoolingComponent19InputToInputPatchesERKNS_12CuMatrixBaseIfEEPNS_8CuMatrixIfEE",
            "__ZN5kaldi5nnet325PerElementOffsetComponent11UnVectorizeERKNS_10VectorBaseIfEE",
            "__ZN5ngram11NGramOutput16MakePhiMatcherLMEi",
            "__ZN5kaldi5nnet316ReadCindexVectorERNSt3__113basic_istreamIcNS1_11char_traitsIcEEEEbPNS1_6vectorINS1_4pairIiNS0_5IndexEEENS1_9allocatorISA_EEEE",
            "__ZNK7keenasr21AudioQualityEstimator19CountClippedSamplesEPKsm",
            "__ZN5kaldi5nnet324PerElementScaleComponent14InitFromConfigEPNS_10ConfigLineE",
            "__ZN5kaldi16GaussClusterable4ReadERNSt3__113basic_istreamIcNS1_11char_traitsIcEEEEb",
            "_curl_multi_info_read",
            "__ZNK5kaldi5nnet318FixedBiasComponent8BackpropERKNSt3__112basic_stringIcNS2_11char_traitsIcEENS2_9allocatorIcEEEEPKNS0_27ComponentPrecomputedIndexesERKNS_12CuMatrixBaseIfEESH_SH_PvPNS0_9ComponentEPSF_",
            "__ZN5kaldi30EnsureClusterableVectorNotNullEPNSt3__16vectorIPNS_11ClusterableENS0_9allocatorIS3_EEEE",
            "__ZNK5kaldi5nnet310Descriptor11WriteConfigERNSt3__113basic_ostreamIcNS2_11char_traitsIcEEEERKNS2_6vectorINS2_12basic_stringIcS5_NS2_9allocatorIcEEEENSA_ISC_EEEE",
            "__ZNK5kaldi15TransitionModel19TransitionIdToPhoneEi",
            "__ZNK5kaldi13SplitEventMap9MapValuesERKNSt3__113unordered_setIiNS1_4hashIiEENS1_8equal_toIiEENS1_9allocatorIiEEEERKNS1_13unordered_mapIiiS4_S6_NS7_INS1_4pairIKiiEEEEEE",
            "__ZNK5kaldi5nnet323time_height_convolution22ConvolutionComputation5CheckEv",
            "_delete_wave",
            "__ZNK4onnx26TensorShapeProto_Dimension13SetCachedSizeEi",
            "__ZN5kaldi28ReplaceAcousticScoresFromMapERKNSt3__113unordered_mapINS0_4pairIiiEENS2_IfiEENS_10PairHasherIiiEENS0_8equal_toIS3_EENS0_9allocatorINS2_IKS3_S4_EEEEEEPN3fst9VectorFstINSG_6ArcTplINSG_16LatticeWeightTplIfEEEENSG_11VectorStateISL_NS9_ISL_EEEEEE",
            "__ZN5kaldi5nnet324PerElementScaleComponent4InitENSt3__112basic_stringIcNS2_11char_traitsIcEENS2_9allocatorIcEEEE",
            "__ZN5boost10filesystem16filesystem_errorD1Ev",
            "__ZNK5kaldi5nnet327ElementwiseProductComponent8BackpropERKNSt3__112basic_stringIcNS2_11char_traitsIcEENS2_9allocatorIcEEEEPKNS0_27ComponentPrecomputedIndexesERKNS_12CuMatrixBaseIfEESH_SH_PvPNS0_9ComponentEPSF_",
            "__ZN3rtc18webrtc_checks_impl8FatalLogEPKciS2_PKNS0_12CheckArgTypeEz",
            "__ZN5kaldi5nnet315AffineComponent14InitFromConfigEPNS_10ConfigLineE",
            "__ZN5boost10filesystem6detail15path_algorithms19lexically_normal_v3ERKNS0_4pathE",
            "__ZN5kaldi26ComputeKaldiPitchFirstPassERKNS_22PitchExtractionOptionsERKNS_10VectorBaseIfEEPNS_6MatrixIfEE",
            "__ZNK5kaldi5nnet315NnetComputation13IsWholeMatrixEi",
            "__ZN5boost10filesystem6detail28directory_iterator_incrementERNS0_18directory_iteratorEPNS_6system10error_codeE",
            "__ZN4onnx16TypeProto_OpaqueC1ERKS0_",
            "_delete_val",
            "__ZN3cpr14AuthenticationD2Ev",
            "__ZN5kaldi5nnet339NaturalGradientPerElementScaleComponent14InitFromConfigEPNS_10ConfigLineE",
            "__ZN5kaldi5nnet315NnetComputation15MatrixDebugInfo4ReadERNSt3__113basic_istreamIcNS3_11char_traitsIcEEEEb",
            "__ZN5kaldi5nnet329StatisticsExtractionComponentC1Ev",
            "__ZN4onnx8MapProtoD0Ev",
            "__ZNK5kaldi5nnet325PerElementOffsetComponent8BackpropERKNSt3__112basic_stringIcNS2_11char_traitsIcEENS2_9allocatorIcEEEEPKNS0_27ComponentPrecomputedIndexesERKNS_12CuMatrixBaseIfEESH_SH_PvPNS0_9ComponentEPSF_",
            "__ZN3cpr7Session10SetVerboseERKNS_7VerboseE",
            "__ZN5kaldi12ParseOptions8RegisterERKNSt3__112basic_stringIcNS1_11char_traitsIcEENS1_9allocatorIcEEEEPS7_S9_",
            "__ZN4onnx8MapProtoD2Ev",
            "__ZNK5kaldi5nnet319ExampleMergingStats18PrintSpecificStatsEv",
            "_cst_val_consp",
            "__ZNK5kaldi17ArbitraryResample10FilterFuncEf",
            "__ZN4onnx13TypeProto_MapD2Ev",
            "_val_inc_refcount",
            "__ZNK5kaldi15TransitionModel32TransitionStateToForwardPdfClassEi",
            "__ZN5kaldi30LatticeIncrementalDeterminizer18TransferArcsToClatERKN3fst9VectorFstINS1_6ArcTplINS1_23CompactLatticeWeightTplINS1_16LatticeWeightTplIfEEiEEEENS1_11VectorStateIS8_NSt3__19allocatorIS8_EEEEEEbRKNSA_13unordered_mapIiiNSA_4hashIiEENSA_8equal_toIiEENSB_INSA_4pairIKiiEEEEEESS_RKNSH_IifSJ_SL_NSB_INSM_ISN_fEEEEEE",
            "__ZN5kaldi5nnet38Compiler11AddCommandsERKNSt3__16vectorIbNS2_9allocatorIbEEEERKNS3_IiNS4_IiEEEEPNS0_15NnetComputationE",
            "__ZNK5kaldi5nnet317SumBlockComponent4InfoEv",
            "__ZN4onnx13OptionalProto9_Internal14optional_valueEPKS0_",
            "__ZN5kaldi5nnet323time_height_convolution29CompileConvolutionComputationERKNS1_16ConvolutionModelERKNSt3__16vectorINS0_5IndexENS5_9allocatorIS7_EEEESC_RKNS1_29ConvolutionComputationOptionsEPNS1_22ConvolutionComputationEPSA_SI_",
            "_cg_phone_rindex",
            "__ZNK5kaldi5nnet325PerElementOffsetComponent13NumParametersEv",
            "_flite_ffeature_string",
            "_curl_multi_cleanup",
            "__ZN5kaldi5nnet321ComputationRenumberer13SetUpMappingsEv",
            "__ZNK3cpr6Cookie16GetExpiresStringEv",
            "__ZN5kaldi5nnet318NonlinearComponent14InitFromConfigEPNS_10ConfigLineE",
            "__ZN5ngram20NGramExtendedContext13MergeContextsEmmm",
            "__ZN5kaldi5nnet328ComputeTopSortOrderRecursiveEiRKNSt3__16vectorINS2_IiNS1_9allocatorIiEEEENS3_IS5_EEEEPNS2_IbNS3_IbEEEESC_PS5_",
            "__ZN5kaldi20OnlineIvectorFeature21UpdateStatsUntilFrameEi",
            "__ZNK5kaldi11HmmTopology5IsHmmEv",
            "_AESecondsFromHostTicks",
            "__ZN5kaldi5nnet314RowOpsSplitter12GetSplitInfoENSt3__111__wrap_iterIPKNS2_4pairIiiEEEES8_PNS1_15SingleSplitInfoE",
            "__ZN5kaldi13SumNormalizerERKNSt3__16vectorINS0_4pairINS1_INS2_IiiEENS0_9allocatorIS3_EEEEPNS_11ClusterableEEENS4_IS9_EEEE",
            "__ZN5kaldi5nnet318PrintIntegerVectorERNSt3__113basic_ostreamIcNS1_11char_traitsIcEEEERKNS1_6vectorIiNS1_9allocatorIiEEEE",
            "_val_delete_lexicon",
            "__ZN5kaldi5nnet314NumOutputNodesERKNS0_4NnetE",
            "__ZN5kaldi5nnet323time_height_convolution16UnPadModelHeightERKNS1_29ConvolutionComputationOptionsERKNS1_16ConvolutionModelES7_PNS1_22ConvolutionComputationE",
            "_curl_multi_setopt",
            "__ZN5kaldi5nnet319ComputationExpander15ComputeCommandsEv",
            "__ZN5kaldi24CompactLatticeLimitDepthEiPN3fst9VectorFstINS0_6ArcTplINS0_23CompactLatticeWeightTplINS0_16LatticeWeightTplIfEEiEEEENS0_11VectorStateIS7_NSt3__19allocatorIS7_EEEEEE",
            "__ZN5kaldi5nnet315AffineComponentC1ERKNS_12CuMatrixBaseIfEERKNS_12CuVectorBaseIfEEf",
            "__ZN15KaldiRecognizer17LoadDecodingGraphERKNSt3__112basic_stringIcNS0_11char_traitsIcEENS0_9allocatorIcEEEES8_S8_",
            "__ZN7keenasr10RecognizerD0Ev",
            "__ZN4onnx8MapProto5ClearEv",
            "__ZNK5kaldi5nnet319ComputationAnalysis16LastMatrixAccessEi",
            "_item_prev",
            "__ZN4onnx10ModelProtoC1ERKS0_",
            "__ZN5kaldi5nnet34Nnet12SetComponentEiPNS0_9ComponentE",
            "__ZN5kaldi7DiagGmm8GenerateEPNS_10VectorBaseIfEE",
            "__ZN7keenasr12NGramBuilder25AddSpokenNoiseToCountsFstERKN3fst11SymbolTableEiPNS1_9VectorFstINS1_6ArcTplINS1_17TropicalWeightTplIfEEEENS1_11VectorStateIS9_NSt3__19allocatorIS9_EEEEEE",
            "__ZN5kaldi5nnet313NoOpComponent14InitFromConfigEPNS_10ConfigLineE",
            "__ZN5boost10filesystem6detail15path_algorithms9append_v4ERNS0_4pathEPKcS6_",
            "_cg_phone_place",
            "_curl_url_dup",
            "__ZN5kaldi5nnet313TdnnComponent21UpdateNaturalGradientERKNS1_18PrecomputedIndexesERKNS_12CuMatrixBaseIfEES8_",
            "__ZN5kaldi10ConfigLine8GetValueERKNSt3__112basic_stringIcNS1_11char_traitsIcEENS1_9allocatorIcEEEEPS7_",
            "__ZN5G2PEs12DividePreDivERKNSt3__112basic_stringIcNS0_11char_traitsIcEENS0_9allocatorIcEEEES8_",
            "__ZN5kaldi5nnet312NnetComputer11AcceptInputERKNSt3__112basic_stringIcNS2_11char_traitsIcEENS2_9allocatorIcEEEEPNS_8CuMatrixIfEE",
            "_swapfloat",
            "__ZN5boost10filesystem6detail15path_algorithms11filename_v3ERKNS0_4pathE",
            "__ZN5kaldi5nnet324PerElementScaleComponent4ReadERNSt3__113basic_istreamIcNS2_11char_traitsIcEEEEb",
            "__ZN4onnx16TypeProto_Tensor14_InternalParseEPKcPN6google8protobuf8internal12ParseContextE",
            "__ZN5kaldi12MfccComputerD1Ev",
            "_val_sts_list",
            "__ZN5kaldi5nnet324VariableMergingOptimizer7DoMergeEiii",
            "__ZN4onnx30SequenceProto_DataType_IsValidEi",
            "__ZN5kaldi10OnlineCmvn24GetMostRecentCachedFrameEiPiPNS_10MatrixBaseIdEE",
            "__ZN4onnx18OperatorSetIdProto21CheckTypeAndMergeFromERKN6google8protobuf11MessageLiteE",
            "__ZN4onnx9TypeProto9MergeFromERKS0_",
            "__ZN7keenasr8Uploader5PauseEv",
            "__ZN5kaldi19LatticeActivePhonesERKN3fst9VectorFstINS0_6ArcTplINS0_16LatticeWeightTplIfEEEENS0_11VectorStateIS5_NSt3__19allocatorIS5_EEEEEERKNS_15TransitionModelERKNS7_6vectorIiNS8_IiEEEEPNSH_INS7_3setIiNS7_4lessIiEESI_EENS8_ISP_EEEE",
            "__ZNK5kaldi20OnlineIvectorFeature14NumFramesReadyEv",
            "__ZNK5kaldi5nnet313TdnnComponent9PropagateEPKNS0_27ComponentPrecomputedIndexesERKNS_12CuMatrixBaseIfEEPS6_",
            "__ZN5kaldi5nnet315AffineComponentC2ERKS1_",
            "__ZN3cpr7Session9SetOptionERKNS_7ProxiesE",
            "__ZN5kaldi5nnet324ComputationStepsComputer7AddStepEPNSt3__16vectorIiNS2_9allocatorIiEEEE",
            "__ZN5ngram20NGramExtendedContext4InitEb",
            "__ZN5kaldi5nnet325DecodableNnetSimpleLooped17GetCurrentIvectorEiPNS_6VectorIfEE",
            "__ZNK5kaldi5nnet318ComputationChecker27CheckComputationCompressionEv",
            "__ZN5kaldi9BuildTreeERNS_9QuestionsERKNSt3__16vectorINS3_IiNS2_9allocatorIiEEEENS4_IS6_EEEERKS6_RKNS3_IbNS4_IbEEEESG_RKNS3_INS2_4pairINS3_INSH_IiiEENS4_ISI_EEEEPNS_11ClusterableEEENS4_ISN_EEEEfifib",
            "__ZNK5kaldi5nnet319BinarySumDescriptor12IsComputableERKNS0_5IndexERKNS0_9CindexSetEPNSt3__16vectorINS8_4pairIiS2_EENS8_9allocatorISB_EEEE",
            "__ZNK5kaldi5nnet323RepeatedAffineComponent4CopyEv",
            "__ZNK5kaldi5nnet330NaturalGradientAffineComponent4InfoEv",
            "__ZN5kaldi28OnlineIvectorEstimationStatsC1ERKS0_",
            "__ZNK5kaldi5nnet330NaturalGradientAffineComponent5WriteERNSt3__113basic_ostreamIcNS2_11char_traitsIcEEEEb",
            "__ZN3cpr7ProxiesC1ERKSt16initializer_listINSt3__14pairIKNS2_12basic_stringIcNS2_11char_traitsIcEENS2_9allocatorIcEEEES9_EEE",
            "__ZNK5kaldi5nnet323RepeatedAffineComponent13NumParametersEv",
            "__ZN5kaldi5nnet317SumGroupComponent14InitFromConfigEPNS_10ConfigLineE",
            "__ZN5kaldi8MelBanksC1ERKS0_",
            "__ZNK5kaldi5nnet328RoundingForwardingDescriptor19GetNodeDependenciesEPNSt3__16vectorIiNS2_9allocatorIiEEEE",
            "__ZNK5kaldi5nnet38Compiler13GetStrideTypeEi",
            "__ZN5kaldi12DoTableSplitERKNS_8EventMapEiRKNSt3__16vectorINS3_4pairINS4_INS5_IiiEENS3_9allocatorIS6_EEEEPNS_11ClusterableEEENS7_ISC_EEEEPi",
            "__ZN5kaldi17GetPdfToPhonesMapERKNS_15TransitionModelEPNSt3__16vectorINS3_3setIiNS3_4lessIiEENS3_9allocatorIiEEEENS8_ISA_EEEE",
            "__ZNK5kaldi13GeneralMatrix9CopyToMatEPNS_10MatrixBaseIfEENS_19MatrixTransposeTypeE",
            "__ZN5kaldi5nnet316CheckComputationERKNS0_4NnetERKNS0_15NnetComputationEb",
            "__ZNK5kaldi22OnlinePitchFeatureImpl18NumFramesAvailableExb",
            "__ZNK5kaldi5nnet313TanhComponent15RepairGradientsERKNS_12CuMatrixBaseIfEEPS3_PS1_",
            "__ZN3fst17ComposePropertiesEyy",
            "_WebRtcSpl_DivResultInQ31",
            "__ZN4onnx13FunctionProtoD1Ev",
            "__ZN5kaldi5nnet317GeneralDescriptor10ParseConstERKNSt3__16vectorINS2_12basic_stringIcNS2_11char_traitsIcEENS2_9allocatorIcEEEENS7_IS9_EEEEPPKS9_",
            "__ZN5boost10filesystem6detail15path_algorithms10compare_v3ERKNS0_4pathES5_",
            "__ZNK5kaldi5nnet321IoSpecificationHasherclERKNS0_15IoSpecificationE",
            "__ZNK5kaldi7FullGmm14LogLikelihoodsERKNS_10VectorBaseIfEEPNS_6VectorIfEE",
            "__ZN5kaldi7DiagGmm15CopyFromFullGmmERKNS_7FullGmmE",
            "__ZN4onnx10GraphProtoC2ERKS0_",
            "__ZNK4onnx16TensorShapeProto12ByteSizeLongEv",
            "__ZN5kaldi5nnet326ComputationLoopedOptimizer21GetIdentifiedMatricesERKNSt3__16vectorINS2_4pairIiiEENS2_9allocatorIS5_EEEESA_RKNS2_13unordered_mapIS5_iNS_10PairHasherIiiEENS2_8equal_toIS5_EENS6_INS4_IKS5_iEEEEEEPNS3_IiNS6_IiEEEESO_",
            "__ZN5kaldi5nnet328RestrictedAttentionComponentC2ERKS1_",
            "__ZN7Lexicon26ParsePronunciationPrefixesERKNSt3__112basic_stringIcNS0_11char_traitsIcEENS0_9allocatorIcEEEEcRNS0_6vectorIS6_NS4_IS6_EEEE",
            "__ZNK5kaldi5nnet326NnetExampleStructureHasherclERKNS0_11NnetExampleE",
            "__ZN5kaldi5nnet34Nnet17RemoveOrphanNodesEb",
            "__ZN5kaldi5nnet315NnetComputeProb5ResetEv",
            "_curl_strequal",
            "_curl_easy_escape",
            "__ZN5kaldi24SlidingWindowCmnInternalERKNS_23SlidingWindowCmnOptionsERKNS_10MatrixBaseIdEEPS4_",
            "__ZN4onnx14AttributeProto21CheckTypeAndMergeFromERKN6google8protobuf11MessageLiteE",
            "__ZN3cprorENS_17PostRedirectFlagsES0_",
            "__ZN4onnx10ModelProtoC1EPN6google8protobuf5ArenaEb",
            "__ZN5kaldi5nnet315NnetComputeProbC2ERKNS0_22NnetComputeProbOptionsEPNS0_4NnetE",
            "__ZN5kaldi20OnlineIvectorFeature29UpdateStatsUntilFrameWeightedEi",
            "__ZN5kaldi12ParseOptions8RegisterERKNSt3__112basic_stringIcNS1_11char_traitsIcEENS1_9allocatorIcEEEEPbS9_",
            "__ZN3cpr7Session10SetResolveERKNS_7ResolveE",
            "__ZN5kaldi5nnet321OnlineNaturalGradientC2ERKS1_",
            "_item_utt",
            "__ZNK5kaldi5nnet328RoundingForwardingDescriptor4CopyEv",
            "__ZN4onnx17SparseTensorProtoC1ERKS0_",
            "_curl_multi_perform",
            "__ZNK5kaldi5nnet319LogSoftmaxComponent9PropagateEPKNS0_27ComponentPrecomputedIndexesERKNS_12CuMatrixBaseIfEEPS6_",
            "__ZN5kaldi5nnet325DecodableNnetSimpleLooped17GetOutputForFrameEiPNS_10VectorBaseIfEE",
            "__ZN5kaldi16SlidingWindowCmnERKNS_23SlidingWindowCmnOptionsERKNS_10MatrixBaseIfEEPS4_",
            "__ZN4onnx18TypeProto_OptionalC1ERKS0_",
            "_feat_copy_into",
            "__ZN3fst9FstHeader4ReadERNSt3__113basic_istreamIcNS1_11char_traitsIcEEEERKNS1_12basic_stringIcS4_NS1_9allocatorIcEEEEb",
            "__ZN5kaldi37OnlineIvectorExtractorAdaptationStateC1ERKS0_",
            "__ZN3fst17ClosurePropertiesEybb",
            "__ZN5kaldi5nnet318NonlinearComponent18StoreBackpropStatsERKNS_12CuMatrixBaseIfEE",
            "_utt_input_text",
            "__ZN4onnx22TypeProto_SparseTensor9_Internal5shapeEPKS0_",
            "__ZN4onnx8MapProto12InternalSwapEPS0_",
            "__ZN5kaldi5nnet323ModelUpdateConsolidator22ConsolidateSubmatricesERKNSt3__16vectorIiNS2_9allocatorIiEEEES8_",
            "__ZN3cpr7Session20GetSharedPtrFromThisEv",
            "__ZN5kaldi5nnet315AffineComponent12UpdateSimpleERKNS_12CuMatrixBaseIfEES5_",
            "__ZNK5kaldi15RecyclingVector4SizeEv",
            "_feat_val",
            "__ZN3cpr7Session9SetOptionERKNS_14HeaderCallbackE",
            "__ZN5kaldi5nnet318ZeroComponentStatsEPNS0_4NnetE",
            "__ZNK5kaldi15TransitionModel5WriteERNSt3__113basic_ostreamIcNS1_11char_traitsIcEEEEb",
            "__ZN3fst21CompositeWeightReaderC1ERNSt3__113basic_istreamIcNS1_11char_traitsIcEEEE",
            "__ZN7keenasr21AudioQualityEstimator15ComputeFrameRMSEPKsm",
            "__ZN5kaldi20FakeStatsForSomeDimsERKNSt3__16vectorIiNS0_9allocatorIiEEEEPNS_10MatrixBaseIdEE",
            "__ZN7keenasr22PronunciationEvaluator13PredictScoresERKN5kaldi6MatrixIfEERNS1_6VectorIfEE",
            "__ZNK5kaldi5nnet325PerElementOffsetComponent9VectorizeEPNS_10VectorBaseIfEE",
            "__ZN5kaldi5nnet315ReadIndexVectorERNSt3__113basic_istreamIcNS1_11char_traitsIcEEEEbPNS1_6vectorINS0_5IndexENS1_9allocatorIS8_EEEE",
            "_cst_wave_rescale",
            "__ZN3cpr4util17debugUserFunctionEPv13curl_infotypePcmPKNS_13DebugCallbackE",
            "__ZN5kaldi5nnet323ComputationGraphBuilder17PruneDependenciesEi",
            "__ZNK3cpr14AcceptEncoding8disabledEv",
            "__ZN5kaldi5nnet323time_height_convolution20ConvolveBackwardDataERKNS1_22ConvolutionComputationERKNS_12CuMatrixBaseIfEES8_PS6_",
            "__ZNK5kaldi5nnet320ComputationVariables16DescribeVariableEi",
            "__ZN20KaldiNNet3Recognizer30TeardownPronunciationEvaluatorEv",
            "__ZN5kaldi5nnet324ComputeComputationPhasesERKNS0_4NnetERKNS0_16ComputationGraphEPNSt3__16vectorINS8_INS8_IiNS7_9allocatorIiEEEENS9_ISB_EEEENS9_ISD_EEEE",
            "__ZNK5kaldi5nnet325PerElementOffsetComponent5WriteERNSt3__113basic_ostreamIcNS2_11char_traitsIcEEEEb",
            "__ZN5kaldi13ExtractWindowExRKNS_10VectorBaseIfEEiRKNS_22FrameExtractionOptionsERKNS_21FeatureWindowFunctionEPNS_6VectorIfEEPf",
            "__ZNK5kaldi5nnet323ScaleAndOffsetComponent9PropagateEPKNS0_27ComponentPrecomputedIndexesERKNS_12CuMatrixBaseIfEEPS6_",
            "__ZNK5kaldi5nnet325LstmNonlinearityComponent4CopyEv",
            "__ZN3fst14ReadILabelInfoERNSt3__113basic_istreamIcNS0_11char_traitsIcEEEEbPNS0_6vectorINS6_IiNS0_9allocatorIiEEEENS7_IS9_EEEE",
            "__ZN5kaldi5nnet323ScaleAndOffsetComponent4ReadERNSt3__113basic_istreamIcNS2_11char_traitsIcEEEEb",
            "__ZN5kaldi13GeneralMatrix16SwapSparseMatrixEPNS_12SparseMatrixIfEE",
            "__ZN5boost10filesystem6detail9file_sizeERKNS0_4pathEPNS_6system10error_codeE",
            "_WebRtcVad_set_mode",
            "__ZN5kaldi17BottomUpClusterer21InitializeAssignmentsEv",
            "__ZN4onnx22TypeProto_SparseTensorD2Ev",
            "__ZN7keenasr22PronunciationEvaluator12GetAlignmentERKNSt3__16vectorIiNS1_9allocatorIiEEEERKNS2_INS2_INS1_4pairIifEENS3_IS9_EEEENS3_ISB_EEEE",
            "__ZNK5kaldi5nnet318CompositeComponent13NumParametersEv",
            "__ZN3rtc18webrtc_checks_impl8ParseArgEPPcPPKNS0_12CheckArgTypeEPNSt3__112basic_stringIcNS7_11char_traitsIcEENS7_9allocatorIcEEEE",
            "__ZN5kaldi5nnet315ResetGeneratorsEPNS0_4NnetE",
            "__ZNK5kaldi5nnet34Nnet12GetNodeNamesEv",
            "__ZN5kaldi10RandGauss2EPfS0_PNS_11RandomStateE",
            "__ZNK4onnx22StringStringEntryProto12ByteSizeLongEv",
            "__ZN5kaldi22OnlinePitchFeatureImplC1ERKNS_22PitchExtractionOptionsE",
            "__ZN5kaldi5nnet312ErrorContextERNSt3__113basic_istreamIcNS1_11char_traitsIcEEEE",
            "__ZNK5kaldi5nnet320BlockAffineComponent9PropagateEPKNS0_27ComponentPrecomputedIndexesERKNS_12CuMatrixBaseIfEEPS6_",
            "__ZN7keenasr11ASRResponse11AppendAudioEPKsi",
            "__ZNK5kaldi5nnet313NoOpComponent9PropagateEPKNS0_27ComponentPrecomputedIndexesERKNS_12CuMatrixBaseIfEEPS6_",
            "__ZN5kaldi5nnet38CompilerC2ERKNS0_18ComputationRequestERKNS0_4NnetE",
            "__ZN5kaldi19ComputeLifterCoeffsEfPNS_10VectorBaseIfEE",
            "__ZN5boost10filesystem6detail6statusERKNS0_4pathEPNS_6system10error_codeE",
            "__ZN7keenasr9ASRResultD2Ev",
            "__ZNK5kaldi5nnet34Nnet11GetNodeNameEi",
            "__ZN3fst17RandGenPropertiesEyb",
            "_item_daughter",
            "__ZN3fst14ComposeContextERKNSt3__16vectorIiNS0_9allocatorIiEEEEiiPNS_9VectorFstINS_6ArcTplINS_17TropicalWeightTplIfEEEENS_11VectorStateISB_NS2_ISB_EEEEEESG_PNS1_IS4_NS2_IS4_EEEEb",
            "__ZN5boost10filesystem6detail11absolute_v4ERKNS0_4pathES4_PNS_6system10error_codeE",
            "__ZNK5kaldi11HmmTopology23GetPhoneToNumPdfClassesEPNSt3__16vectorIiNS1_9allocatorIiEEEE",
            "__ZN5kaldi16GaussClusterable3SubERKNS_11ClusterableE",
            "__ZN5kaldi15PosteriorHolder5WriteERNSt3__113basic_ostreamIcNS1_11char_traitsIcEEEEbRKNS1_6vectorINS7_INS1_4pairIifEENS1_9allocatorIS9_EEEENSA_ISC_EEEE",
            "__ZNK5kaldi5nnet39Component4InfoEv",
            "__ZNK5kaldi5nnet311NnetTrainer15PrintTotalStatsEv",
            "__ZN5kaldi12ProcessPitchERKNS_19ProcessPitchOptionsERKNS_10MatrixBaseIfEEPNS_6MatrixIfEE",
            "__ZNK5kaldi5nnet324PerElementScaleComponent4InfoEv",
            "__ZN5kaldi5nnet324GruNonlinearityComponent5ScaleEf",
            "__ZN4onnx14AttributeProtoC2ERKS0_",
            "_curl_mvaprintf",
            "__ZN5kaldi5nnet330TimeHeightConvolutionComponent21UpdateNaturalGradientERKNS1_18PrecomputedIndexesERKNS_12CuMatrixBaseIfEES8_",
            "__ZN5kaldi12ParseOptions16RegisterSpecificERKNSt3__112basic_stringIcNS1_11char_traitsIcEENS1_9allocatorIcEEEES9_PjS9_b",
            "__ZN7keenasr6DeviceC1ERKNSt3__112basic_stringIcNS1_11char_traitsIcEENS1_9allocatorIcEEEES9_S9_S9_",
            "_cst_implode",
            "_lpc_resynth_fixedpoint",
            "__ZN5kaldi15TransitionModel4ReadERNSt3__113basic_istreamIcNS1_11char_traitsIcEEEEb",
            "__ZNK5kaldi22OnlinePitchFeatureImpl14NumFramesReadyEv",
            "__ZN5kaldi5nnet321ConstantSumDescriptorC2Efi",
            "__ZN5kaldi10ConfigLine8GetValueERKNSt3__112basic_stringIcNS1_11char_traitsIcEENS1_9allocatorIcEEEEPf",
            "__ZNK5ngram11NGramOutput14ShowARPAHeaderEv",
            "__ZNK5kaldi15TransitionModel22TransitionIdToPdfClassEi",
            "__ZN4onnx16TensorShapeProtoC2EPN6google8protobuf5ArenaEb",
            "__ZN5kaldi14ArpaLmCompilerD2Ev",
            "__ZN4onnx9TypeProto9_Internal18sparse_tensor_typeEPKS0_",
            "__ZN5kaldi5nnet321ClipGradientComponent4ReadERNSt3__113basic_istreamIcNS2_11char_traitsIcEEEEb",
            "__ZN5kaldi5nnet325LstmNonlinearityComponent19InitNaturalGradientEv",
            "__ZN5kaldi5nnet318NormalizeComponentC1ERKS1_",
            "__ZN7keenasr13DecodingGraph47GetGFstFilepathForContextualDecodingGraphAtPathERKNSt3__112basic_stringIcNS1_11char_traitsIcEENS1_9allocatorIcEEEEj",
            "__ZN3cpr7Session17SetConnectTimeoutERKNS_14ConnectTimeoutE",
            "__ZNK5kaldi16IvectorExtractor20GetIvectorDistWeightERKNS_30IvectorExtractorUtteranceStatsERKNS_10VectorBaseIdEEPS5_PNS_8SpMatrixIdEE",
            "_cons_val",
            "_AECBSetAtomic",
            "__ZNK5kaldi5nnet327BackpropTruncationComponent9PropagateEPKNS0_27ComponentPrecomputedIndexesERKNS_12CuMatrixBaseIfEEPS6_",
            "_item_feat_string",
            "__ZN4onnx13TypeProto_MapC2ERKS0_",
            "__ZN3cpr7Session9SetOptionEONS_10ParametersE",
            "__ZN5kaldi5nnet334IdentifySubmatrixArgsInComputationEPNS0_15NnetComputationEPNSt3__16vectorIPiNS3_9allocatorIS5_EEEE",
            "__ZN5kaldi5nnet318NormalizeComponent14InitFromConfigEPNS_10ConfigLineE",
            "__ZN5kaldi5nnet319ComputationExpander6ExpandEv",
            "__ZN5kaldi5nnet323ScaleAndOffsetComponentC2ERKS1_",
            "__ZN3cpr7Session8PutAsyncEv",
            "__ZN4onnx18TypeProto_Optional21CheckTypeAndMergeFromERKN6google8protobuf11MessageLiteE",
            "__ZN15KaldiRecognizerC2ERKNSt3__112basic_stringIcNS0_11char_traitsIcEENS0_9allocatorIcEEEES8_S8_",
            "_MlasSgemmKernelAdd",
            "_AERateLimit",
            "__ZNK5boost10filesystem6detail18utf8_codecvt_facet6do_outER11__mbstate_tPKwS6_RS6_PcS8_RS8_",
            "__ZN4onnx13OptionalProtoC1ERKS0_",
            "_AEMixerBufferEndTimeInterval",
            "__ZNK5kaldi5nnet328RestrictedAttentionComponent14ReorderIndexesEPNSt3__16vectorINS0_5IndexENS2_9allocatorIS4_EEEES8_",
            "__ZNK5kaldi5nnet329StatisticsExtractionComponent15GetInputIndexesERKNS0_19MiscComputationInfoERKNS0_5IndexEPNSt3__16vectorIS5_NS8_9allocatorIS5_EEEE",
            "__ZN5kaldi5nnet312NnetComputer14ExecuteCommandEv",
            "__ZNK5kaldi5nnet323GeneralDropoutComponent5WriteERNSt3__113basic_ostreamIcNS2_11char_traitsIcEEEEb",
            "__ZN5kaldi5nnet314SplitLocationsERKNSt3__16vectorINS2_INS1_4pairIiiEENS1_9allocatorIS4_EEEENS5_IS7_EEEEPS9_",
            "__ZNK5kaldi15TransitionModel20NumTransitionIndicesEi",
            "__ZN5boost10filesystem16filesystem_errorC1EPKcRKNS0_4pathES6_NS_6system10error_codeE",
            "__ZN5boost10filesystem6detail14open_directoryERKNS0_4pathENS0_17directory_optionsERNS_6system10error_codeE",
            "__ZN5kaldi5nnet321ClipGradientComponent9ZeroStatsEv",
            "__ZN5kaldi5nnet313TdnnComponent5ScaleEf",
            "__ZNK5kaldi5nnet314PnormComponent8BackpropERKNSt3__112basic_stringIcNS2_11char_traitsIcEENS2_9allocatorIcEEEEPKNS0_27ComponentPrecomputedIndexesERKNS_12CuMatrixBaseIfEESH_SH_PvPNS0_9ComponentEPSF_",
            "__ZNK5kaldi5nnet319BinarySumDescriptor3DimERKNS0_4NnetE",
            "__ZN5kaldi5nnet315NnetComputeProbC1ERKNS0_22NnetComputeProbOptionsERKNS0_4NnetE",
            "__ZN5G2PEs17DivideToSyllablesERKNSt3__112basic_stringIcNS0_11char_traitsIcEENS0_9allocatorIcEEEE",
            "__ZN4onnx22TypeProto_SparseTensor21CheckTypeAndMergeFromERKN6google8protobuf11MessageLiteE",
            "__ZN5kaldi16MinimumBayesRiskC2ERKN3fst9VectorFstINS1_6ArcTplINS1_23CompactLatticeWeightTplINS1_16LatticeWeightTplIfEEiEEEENS1_11VectorStateIS8_NSt3__19allocatorIS8_EEEEEENS_23MinimumBayesRiskOptionsE",
            "__ZNK5kaldi5nnet319FixedScaleComponent4InfoEv",
            "__ZN5kaldi5nnet317AddNnetComponentsERKNS0_4NnetERKNS_6VectorIfEEfPS1_",
            "__ZNK5kaldi18OnlineSpliceFrames14NumFramesReadyEv",
            "__ZN5kaldi5nnet324RectifiedLinearComponent10StoreStatsERKNS_12CuMatrixBaseIfEES5_Pv",
            "__ZN5kaldi5nnet329DecodableNnetSimpleLoopedInfoC1ERKNS0_34NnetSimpleLoopedComputationOptionsERKNS_6VectorIfEEPNS0_4NnetE",
            "__ZN5kaldi5nnet325ConstantFunctionComponent5ScaleEf",
            "_lpcres_resize_samples",
            "__ZNK5kaldi5nnet315NnetComputeProb12GetObjectiveERKNSt3__112basic_stringIcNS2_11char_traitsIcEENS2_9allocatorIcEEEE",
            "__ZN5kaldi5nnet321ComputationRenumberer17CreateRenumberingEiRKNSt3__16vectorIiNS2_9allocatorIiEEEEPS6_",
            "__ZNK5boost10filesystem16filesystem_error4whatEv",
            "__ZN3cpr7CookiesixEm",
            "__ZN5kaldi12ParseOptionsC1ERKNSt3__112basic_stringIcNS1_11char_traitsIcEENS1_9allocatorIcEEEEPNS_10OptionsItfE",
            "_flite_ffeature_float",
            "_phone_feat_id",
            "__ZN6google8protobuf5Arena18CreateMaybeMessageIN4onnx22TypeProto_SparseTensorEJEEEPT_PS1_DpOT0_",
            "__ZNK5kaldi5nnet329StatisticsExtractionComponent14ReorderIndexesEPNSt3__16vectorINS0_5IndexENS2_9allocatorIS4_EEEES8_",
            "__ZN5kaldi14LinearResampleC2Eiifi",
            "__ZN5kaldi11ConstArpaLm12ReadInternalERNSt3__113basic_istreamIcNS1_11char_traitsIcEEEEb",
            "__ZN5kaldi5nnet320BlockAffineComponentC2ERKNS0_23RepeatedAffineComponentE",
            "__ZN4onnx17SparseTensorProtoD1Ev",
            "__ZN3cpr7SessionC1Ev",
            "__ZN4onnx16TensorAnnotationC2EPN6google8protobuf5ArenaEb",
            "__ZN5kaldi5nnet315NnetComputationC2ERKS1_",
            "__ZN7keenasr12NGramBuilder17GetCorpusFilenameERKNSt3__112basic_stringIcNS1_11char_traitsIcEENS1_9allocatorIcEEEE",
            "__ZN7G2PEnUsD2Ev",
            "__ZN7keenasr13TempDirectoryD2Ev",
            "__ZNK5kaldi5nnet330OutputGruNonlinearityComponent4InfoEv",
            "__ZN5kaldi5nnet330NaturalGradientAffineComponent17ConsolidateMemoryEv",
            "__ZNK5kaldi5nnet318BatchNormComponent5WriteERNSt3__113basic_ostreamIcNS2_11char_traitsIcEEEEb",
            "__ZNK5kaldi5nnet318CompositeComponent8InputDimEv",
            "__ZN4onnx14AttributeProto8CopyFromERKS0_",
            "__ZN5kaldi8MelBanks12VtlnWarpFreqEffffff",
            "__ZNK5kaldi5nnet325ConstantFunctionComponent8BackpropERKNSt3__112basic_stringIcNS2_11char_traitsIcEENS2_9allocatorIcEEEEPKNS0_27ComponentPrecomputedIndexesERKNS_12CuMatrixBaseIfEESH_SH_PvPNS0_9ComponentEPSF_",
            "__ZN4onnx17SparseTensorProto21CheckTypeAndMergeFromERKN6google8protobuf11MessageLiteE",
            "__ZN4onnx14AttributeProto9MergeFromERKS0_",
            "__ZNK5kaldi21IvectorExtractorStats15UpdateVariancesERKNS_33IvectorExtractorEstimationOptionsEPNS_16IvectorExtractorE",
            "__ZNK4onnx22TypeProto_SparseTensor11GetTypeNameEv",
            "__ZN4onnx13FunctionProtoC2ERKS0_",
            "__ZN4onnx13FunctionProto5ClearEv",
            "__ZN7keenasr12NGramBuilder10SortNGramsERNSt3__16vectorINS1_12basic_stringIcNS1_11char_traitsIcEENS1_9allocatorIcEEEENS6_IS8_EEEE",
            "__ZNK5kaldi5nnet324PerElementScaleComponent8BackpropERKNSt3__112basic_stringIcNS2_11char_traitsIcEENS2_9allocatorIcEEEEPKNS0_27ComponentPrecomputedIndexesERKNS_12CuMatrixBaseIfEESH_SH_PvPNS0_9ComponentEPSF_",
            "_cst_string_before",
            "__ZN5kaldi20ShiftedDeltaFeaturesC2ERKNS_27ShiftedDeltaFeaturesOptionsE",
            "__ZN5kaldi5nnet321ComputationRenumberer21RenumberIndexesRangesEv",
            "__ZNK5kaldi16GaussClusterable4CopyEv",
            "__ZN5kaldi17VectorClusterable5ScaleEf",
            "__ZN5kaldi5nnet338NaturalGradientRepeatedAffineComponentC1ERKS1_",
            "__ZN5kaldi5nnet312NnetComputer16GetIoMatrixIndexERKNSt3__112basic_stringIcNS2_11char_traitsIcEENS2_9allocatorIcEEEEb",
            "__ZNK5kaldi5nnet325LstmNonlinearityComponent4InfoEv",
            "__ZNK5kaldi7DiagGmm14LogLikelihoodsERKNS_10MatrixBaseIfEEPNS_6MatrixIfEE",
            "__ZN4onnx17SparseTensorProtoD2Ev",
            "__ZN5kaldi30GetPdfToTransitionIdTransducerERKNS_15TransitionModelE",
            "__ZN5kaldi5nnet330TimeHeightConvolutionComponent3AddEfRKNS0_9ComponentE",
            "__ZN5kaldi5nnet320ConvolutionComponentC1ERKS1_",
            "__ZN6google8protobuf5Arena18CreateMaybeMessageIN4onnx22StringStringEntryProtoEJEEEPT_PS1_DpOT0_",
            "__ZN5boost10filesystem10emit_errorEiPNS_6system10error_codeEPKc",
            "__ZN3cpr7Session14SetHttpVersionERKNS_11HttpVersionE",
            "__ZN5kaldi5nnet320ConvolutionComponentC2Ev",
            "__ZN5boost10filesystem6detail13equivalent_v4ERKNS0_4pathES4_PNS_6system10error_codeE",
            "_AEMixerBufferPeek",
            "__ZN5kaldi5nnet339NaturalGradientPerElementScaleComponent4InitENSt3__112basic_stringIcNS2_11char_traitsIcEENS2_9allocatorIcEEEEiiff",
            "__zf_log_write_mem_d",
            "_float_val",
            "__ZN5kaldi5nnet315NnetComputation4ReadERNSt3__113basic_istreamIcNS2_11char_traitsIcEEEEb",
            "__ZNK5kaldi5nnet323ComputationGraphBuilder20ComputeRequiredArrayEiPNSt3__16vectorIbNS2_9allocatorIbEEEE",
            "__ZNK3cpr22CaseInsensitiveCompareclERKNSt3__112basic_stringIcNS1_11char_traitsIcEENS1_9allocatorIcEEEES9_",
            "__ZN5kaldi16GetTreeStructureERKNS_8EventMapEPiPNSt3__16vectorIiNS4_9allocatorIiEEEE",
            "__ZN5kaldi5nnet328RestrictedAttentionComponent18PrecomputedIndexes4ReadERNSt3__113basic_istreamIcNS3_11char_traitsIcEEEEb",
            "__ZN5kaldi5nnet326StatisticsPoolingComponent14InitFromConfigEPNS_10ConfigLineE",
            "_cst_upcase",
            "__ZN5kaldi5nnet39Component7ReadNewERNSt3__113basic_istreamIcNS2_11char_traitsIcEEEEb",
            "__ZNK5kaldi5nnet327ElementwiseProductComponent9PropagateEPKNS0_27ComponentPrecomputedIndexesERKNS_12CuMatrixBaseIfEEPS6_",
            "__ZN4onnx8MapProto9MergeFromERKS0_",
            "__ZNK3fst9FstHeader5WriteERNSt3__113basic_ostreamIcNS1_11char_traitsIcEEEERKNS1_12basic_stringIcS4_NS1_9allocatorIcEEEE",
            "__ZNK5kaldi7FullGmm5WriteERNSt3__113basic_ostreamIcNS1_11char_traitsIcEEEEb",
            "__ZNK4onnx10ModelProto12ByteSizeLongEv",
            "__ZN5kaldi5nnet330OutputGruNonlinearityComponent16UpdateParametersERKNS_12CuMatrixBaseIfEES5_",
            "__ZN5kaldi5nnet339NaturalGradientPerElementScaleComponent4InitEiffiiff",
            "__ZNK7keenasr11ASRResponse11GetDurationEv",
            "__ZN5kaldi7DiagGmm11MergeKmeansEiNS_20ClusterKMeansOptionsE",
            "__ZN4onnx17TrainingInfoProto8CopyFromERKS0_",
            "__ZN5ngram11NGramOutput15ApplyNGramToFstERKN3fst9VectorFstINS1_6ArcTplINS1_17TropicalWeightTplIfEEEENS1_11VectorStateIS6_NSt3__19allocatorIS6_EEEEEERKNS1_3FstIS6_EEbbiidPdPiSK_SK_",
            "__ZN5kaldi5nnet322ConsolidateModelUpdateERKNS0_4NnetEPNS0_15NnetComputationE",
            "__ZNK5kaldi5nnet38Compiler14CompileForwardEiPNS0_15NnetComputationE",
            "__ZN5boost10filesystem16filesystem_errorC2ERKS1_",
            "__ZN4onnx26TensorShapeProto_DimensionD1Ev",
            "__ZN5kaldi21LongestSentenceLengthERKN3fst9VectorFstINS0_6ArcTplINS0_23CompactLatticeWeightTplINS0_16LatticeWeightTplIfEEiEEEENS0_11VectorStateIS7_NSt3__19allocatorIS7_EEEEEE",
            "__ZN5kaldi5nnet314MatrixExtender14FixComputationEv",
            "__ZN5kaldi5nnet326ComputationLoopedOptimizer8OptimizeEv",
            "__ZN5kaldi5nnet321IdentifySubmatrixArgsEPNSt3__16vectorINS0_15NnetComputation7CommandENS1_9allocatorIS4_EEEEPNS2_IPiNS5_IS9_EEEE",
            "__ZNK7keenasr9ASRResult20GetNonSpeechSegmentsEv",
            "__ZN3fst17InverseContextFst9FindStateERKNSt3__16vectorIiNS1_9allocatorIiEEEE",
            "__ZNK5kaldi5nnet326StatisticsPoolingComponent9PropagateEPKNS0_27ComponentPrecomputedIndexesERKNS_12CuMatrixBaseIfEEPS6_",
            "__ZN5kaldi5nnet326ComputationLoopedOptimizer35ListsAreEqualExceptForPossibleShiftERKNSt3__16vectorINS2_4pairIiiEENS2_9allocatorIS5_EEEESA_i",
            "__ZN7keenasr10Recognizer34RemoveAllSpeakerAdaptationProfilesEv",
            "_WebRtcSpl_LPBy2ShortToInt",
            "_path_to_item",
            "__ZNK5kaldi5nnet313NoOpComponent8BackpropERKNSt3__112basic_stringIcNS2_11char_traitsIcEENS2_9allocatorIcEEEEPKNS0_27ComponentPrecomputedIndexesERKNS_12CuMatrixBaseIfEESH_SH_PvPNS0_9ComponentEPSF_",
            "__ZN5kaldi5nnet318BatchNormComponent14InitFromConfigEPNS_10ConfigLineE",
            "__ZN5kaldi5nnet321HasContiguousPropertyERKNSt3__16vectorIiNS1_9allocatorIiEEEEPNS2_INS1_4pairIiiEENS3_IS9_EEEE",
            "__ZN4onnx14ValueInfoProtoD2Ev",
            "__ZNK4onnx13SequenceProto13IsInitializedEv",
            "__ZNK5kaldi5nnet316SoftmaxComponent8BackpropERKNSt3__112basic_stringIcNS2_11char_traitsIcEENS2_9allocatorIcEEEEPKNS0_27ComponentPrecomputedIndexesERKNS_12CuMatrixBaseIfEESH_SH_PvPNS0_9ComponentEPSF_",
            "__ZN5kaldi5nnet328RestrictedAttentionComponent14InitFromConfigEPNS_10ConfigLineE",
            "__ZNK4onnx13OptionalProto13SetCachedSizeEi",
            "_cst_downcase",
            "__ZN3cpr7Cookies9push_backERKNS_6CookieE",
            "__ZNK5kaldi15OnlineCmvnState5WriteERNSt3__113basic_ostreamIcNS1_11char_traitsIcEEEEb",
            "__ZN5kaldi5nnet324ComputationStepsComputerC2ERKNS0_4NnetEPNS0_16ComputationGraphEPNSt3__16vectorINS8_IiNS7_9allocatorIiEEEENS9_ISB_EEEEPNS8_INS7_4pairIiiEENS9_ISG_EEEE",
            "__ZN7Lexicon12WriteLexiconERNSt3__14listI12LexiconEntryNS0_9allocatorIS2_EEEERKNS0_12basic_stringIcNS0_11char_traitsIcEENS3_IcEEEE",
            "__ZN5kaldi13GeneralMatrix10UncompressEv",
            "__ZN4onnx10GraphProtoC2EPN6google8protobuf5ArenaEb",
            "__ZNK5kaldi5nnet319SimpleSumDescriptor19GetNodeDependenciesEPNSt3__16vectorIiNS2_9allocatorIiEEEE",
            "_diphone_synth",
            "__ZNK4onnx9TypeProto18_InternalSerializeEPhPN6google8protobuf2io19EpsCopyOutputStreamE",
            "__ZN5kaldi5nnet3lsERNSt3__113basic_ostreamIcNS1_11char_traitsIcEEEERKNS0_5IndexE",
            "__ZN5kaldi5nnet320ComputationVariables4InitERKNS0_15NnetComputationE",
            "__ZN5kaldi5nnet321IdentifySubmatrixArgsEPNS0_15NnetComputation7CommandEPNSt3__16vectorIPiNS4_9allocatorIS6_EEEE",
            "__ZN5kaldi5nnet34Nnet30ProcessComponentNodeConfigLineEiPNS_10ConfigLineE",
            "_MlasConvSymS8KernelNeon",
            "__ZN4onnx13OptionalProtoC2EPN6google8protobuf5ArenaEb",
            "__ZN5kaldi4PeekERNSt3__113basic_istreamIcNS0_11char_traitsIcEEEEb",
            "__ZN5kaldi5nnet330OutputGruNonlinearityComponent3AddEfRKNS0_9ComponentE",
            "__ZN5kaldi5nnet325LstmNonlinearityComponent5ScaleEf",
            "__ZN7keenasr6DeviceC2ERKNSt3__112basic_stringIcNS1_11char_traitsIcEENS1_9allocatorIcEEEES9_S9_S9_S9_",
            "_val_car",
            "__ZNK5kaldi5nnet328RestrictedAttentionComponent23GetComputationStructureERKNSt3__16vectorINS0_5IndexENS2_9allocatorIS4_EEEES9_PNS0_23time_height_convolution24ConvolutionComputationIoE",
            "__ZN3cpr10ThreadPoolD0Ev",
            "__ZN5kaldi5nnet38GetTListERKNSt3__16vectorINS0_5IndexENS1_9allocatorIS3_EEEEPNS2_IiNS4_IiEEEE",
            "__ZN5kaldi5nnet319ExampleMergingStats17DiscardedExamplesEimi",
            "__ZN5boost10filesystem6detail38recursive_directory_iterator_incrementERNS0_28recursive_directory_iteratorEPNS_6system10error_codeE",
            "_curl_escape",
            "__ZN4onnx14AttributeProtoD2Ev",
            "__ZN5kaldi14GetToLengthMapERKNSt3__16vectorINS0_4pairINS1_INS2_IiiEENS0_9allocatorIS3_EEEEPNS_11ClusterableEEENS4_IS9_EEEEiPKNS1_IiNS4_IiEEEEi",
            "__ZN5kaldi28OnlineIvectorEstimationStatsC2Eiff",
            "__ZN5kaldi5nnet325PerElementOffsetComponent3AddEfRKNS0_9ComponentE",
            "__ZN5kaldi5nnet327ElementwiseProductComponent14InitFromConfigEPNS_10ConfigLineE",
            "__ZN7keenasr10Recognizer23SetDefaultVADParametersEv",
            "__ZNK5ngram11NGramOutput9InContextERKNSt3__16vectorIiNS1_9allocatorIiEEEE",
            "__ZNK5kaldi5nnet313TdnnComponent4InfoEv",
            "__ZN4onnx14ValueInfoProtoC1ERKS0_",
            "__ZN5kaldi11PlpComputer7ComputeEffPNS_10VectorBaseIfEES3_",
            "__ZN4onnx13OptionalProtoD1Ev",
            "__ZN5kaldi5nnet311NnetTrainer5TrainERKNS0_11NnetExampleE",
            "__ZN4onnx26TensorShapeProto_Dimension5ClearEv",
            "__ZNK5kaldi5nnet318BatchNormComponent4InfoEv",
            "__ZN5kaldi22OnlinePitchFeatureImpl14AcceptWaveformEfRKNS_10VectorBaseIfEE",
            "__ZNK5kaldi5nnet318NormalizeComponent4InfoEv",
            "__ZN7keenasr22PronunciationEvaluator24GetBestPathFromPhoneCLatERKN3fst9VectorFstINS1_6ArcTplINS1_23CompactLatticeWeightTplINS1_16LatticeWeightTplIfEEiEEEENS1_11VectorStateIS8_NSt3__19allocatorIS8_EEEEEERSE_",
            "__ZNK4onnx10ModelProto13IsInitializedEv",
            "__ZNK7keenasr11ASRResponse14GetAppBundleIdEv",
            "__ZN5kaldi5nnet317computation_graph16AddOutputToGraphERKNS0_18ComputationRequestERKNS0_4NnetEPNS0_16ComputationGraphE",
            "__ZN5kaldi5nnet34Nnet4SwapEPS1_",
            "__ZN4onnx13SequenceProto14_InternalParseEPKcPN6google8protobuf8internal12ParseContextE",
            "_join_units",
            "_cst_short_to_ulaw",
            "__ZN5kaldi5nnet34Nnet26ProcessInputNodeConfigLineEPNS_10ConfigLineE",
            "__ZNK4onnx18OperatorSetIdProto13IsInitializedEv",
            "__ZN3fst6script10ExpandArgsEiPPcPiPS2_",
            "__ZNK5kaldi5nnet326OffsetForwardingDescriptor10MapToInputERKNS0_5IndexE",
            "__ZN5boost10filesystem6detail8is_emptyERKNS0_4pathEPNS_6system10error_codeE",
            "__ZN5boost10filesystem6detail12copy_symlinkERKNS0_4pathES4_PNS_6system10error_codeE",
            "_new_features_local",
            "_val_delete_utterance",
            "__ZNK5kaldi15TransitionModel29TransitionIdToTransitionIndexEi",
            "__ZN5kaldi6IsLineERKNSt3__112basic_stringIcNS0_11char_traitsIcEENS0_9allocatorIcEEEE",
            "__ZN5kaldi5nnet323RepeatedAffineComponent4InitEiiifff",
            "__ZN5kaldi5nnet325CachingOptimizingCompilerC1ERKNS0_4NnetENS0_32CachingOptimizingCompilerOptionsE",
            "__ZN4onnx11TensorProtoC1EPN6google8protobuf5ArenaEb",
            "_audio_streaming_info_val",
            "__ZN5kaldi10OnlineCmvn20ComputeStatsForFrameEiPNS_10MatrixBaseIdEE",
            "__ZN5kaldi5nnet38FindSccsERKNSt3__16vectorINS2_IiNS1_9allocatorIiEEEENS3_IS5_EEEEPS7_",
            "__ZNK5kaldi5nnet39Component15GetInputIndexesERKNS0_19MiscComputationInfoERKNS0_5IndexEPNSt3__16vectorIS5_NS8_9allocatorIS5_EEEE",
            "__ZN4onnx22StringStringEntryProtoD2Ev",
            "__ZN3fst8IsSTListERKNSt3__112basic_stringIcNS0_11char_traitsIcEENS0_9allocatorIcEEEE",
            "_AEAudioFileWriterAddAudioSynchronously",
            "__ZN5kaldi15OnlineTransformC2ERKNS_10MatrixBaseIfEEPNS_22OnlineFeatureInterfaceE",
            "__ZN3fst17InverseContextFstC1EiRKNSt3__16vectorIiNS1_9allocatorIiEEEES7_ii",
            "__ZN5kaldi16IvectorExtractorC1ERKNS_23IvectorExtractorOptionsERKNS_7FullGmmE",
            "__ZN5kaldi23ReadIntegerVectorSimpleERKNSt3__112basic_stringIcNS0_11char_traitsIcEENS0_9allocatorIcEEEEPNS0_6vectorIiNS4_IiEEEE",
            "__ZN5kaldi5nnet328RestrictedAttentionComponent5ScaleEf",
            "__ZN5kaldi5nnet325LstmNonlinearityComponentC1ERKS1_",
            "__ZN5kaldi5nnet321DerivativeTimeLimiter13ModifyCommandEPNS0_15NnetComputation7CommandE",
            "__ZNK5kaldi5nnet328RestrictedAttentionComponent18PrecomputedIndexes4CopyEv",
            "_val_delete_item",
            "__ZN5boost10filesystem6detail11status_implERKNS0_4pathEPNS_6system10error_codeE",
            "_MlasConvSymDepthwiseKernelSize9Arm64S8S8",
            "__ZN5kaldi21IvectorExtractorStats23CommitStatsForUtteranceERKNS_16IvectorExtractorERKNS_30IvectorExtractorUtteranceStatsE",
            "__ZN4onnx11TensorProtoD0Ev",
            "_MlasConvSymS8KernelDot",
            "__ZN5kaldi7DiagGmm7PerturbEf",
            "_val_phoneset",
            "__ZNK3cpr14AcceptEncoding5emptyEv",
            "__ZNK5kaldi5nnet317IndexVectorHasherclERKNSt3__16vectorINS0_5IndexENS2_9allocatorIS4_EEEE",
            "__ZN4onnx14ValueInfoProto8CopyFromERKS0_",
            "__Z13tokenize2intsPNSt3__112basic_stringIcNS_11char_traitsIcEENS_9allocatorIcEEEES6_PKN3fst11SymbolTableE",
            "__ZN7keenasr12NGramBuilder17CreateSymbolTableERKNSt3__112basic_stringIcNS1_11char_traitsIcEENS1_9allocatorIcEEEES9_RN3fst11SymbolTableE",
            "__ZN5kaldi5nnet320BlockAffineComponent14InitFromConfigEPNS_10ConfigLineE",
            "__ZN5kaldi29GenRandContextDependencyLargeERKNSt3__16vectorIiNS0_9allocatorIiEEEEiibPS4_",
            "__ZN5kaldi22OnlinePitchFeatureImpl12ExtractFrameERKNS_10VectorBaseIfEExPS2_",
            "__ZN6google8protobuf5Arena18CreateMaybeMessageIN4onnx16TensorShapeProtoEJEEEPT_PS1_DpOT0_",
            "__ZN4onnx18OperatorSetIdProtoC2ERKS0_",
            "_WebRtcVad_CalcVad16khz",
            "__ZNK7keenasr11ASRResponse19GetEchoCancellationEv",
            "__ZN7keenasr13DecodingGraph20GetDecodingGraphNameERKNSt3__112basic_stringIcNS1_11char_traitsIcEENS1_9allocatorIcEEEE",
            "__ZN5kaldi5nnet330TimeHeightConvolutionComponent13PerturbParamsEf",
            "_WebRtcSpl_DivU32U16",
            "__ZN5kaldi10ComputeLpcERKNS_10VectorBaseIfEEPNS_6VectorIfEE",
            "__ZN5kaldi5nnet313SplitPairListERNSt3__16vectorINS1_4pairIiiEENS1_9allocatorIS4_EEEEPNS2_IS7_NS5_IS7_EEEE",
            "__ZN3cpr7Session11PrepareHeadEv",
            "__ZN5kaldi5nnet329DecodableNnetSimpleLoopedInfoC2ERKNS0_34NnetSimpleLoopedComputationOptionsEPNS0_4NnetE",
            "__ZN3fst12ReadFstKaldiENSt3__112basic_stringIcNS0_11char_traitsIcEENS0_9allocatorIcEEEEPNS_9VectorFstINS_6ArcTplINS_17TropicalWeightTplIfEEEENS_11VectorStateISB_NS4_ISB_EEEEEE",
            "__ZNK5kaldi5nnet328RestrictedAttentionComponent16PropagateOneHeadERKNS0_23time_height_convolution24ConvolutionComputationIoERKNS_12CuMatrixBaseIfEEPS7_SA_",
            "__ZN5boost10filesystem6detail12canonical_v3ERKNS0_4pathES4_PNS_6system10error_codeE",
            "__ZNK5kaldi18OnlineDeltaFeature3DimEv",
            "__ZNK5kaldi5nnet325ConstantFunctionComponent4InfoEv",
            "__ZN5kaldi19ComputeInitialSplitERKNSt3__16vectorIPNS_11ClusterableENS0_9allocatorIS3_EEEERKNS_9QuestionsEiPNS1_IiNS4_IiEEEE",
            "__ZNK4onnx16TensorShapeProto13SetCachedSizeEi",
            "__ZN5kaldi5nnet325CachingOptimizingCompilerD2Ev",
            "__ZN5kaldi5nnet320ConstrainOrthonormalEPNS0_4NnetE",
            "_cmu_syl_boundary_mo",
            "__ZN3fst6script15GetFarEntryTypeERKNSt3__112basic_stringIcNS1_11char_traitsIcEENS1_9allocatorIcEEEEPNS_12FarEntryTypeE",
            "__ZNK4onnx13TypeProto_Map12ByteSizeLongEv",
            "__ZN5kaldi15GaussPostHolder4ReadERNSt3__113basic_istreamIcNS1_11char_traitsIcEEEE",
            "__ZN5kaldi18LatticeWordAligner16ComputationState16OutputSilenceArcERKNS_16WordBoundaryInfoERKNS_15TransitionModelEPN3fst6ArcTplINS8_23CompactLatticeWeightTplINS8_16LatticeWeightTplIfEEiEEEEPb",
            "__ZN5kaldi7FullGmm15ResizeInvCovarsEii",
            "__ZN3cpr7Session13PrepareDeleteEv",
            "__ZN5boost10filesystem6detail15path_algorithms12increment_v4ERNS0_11path_detail13path_iteratorE",
            "_AECBDequeueBLFrames",
            "__ZN7Lexicon18LoadPronunciationsERKNSt3__112basic_stringIcNS0_11char_traitsIcEENS0_9allocatorIcEEEEPKN3fst11SymbolTableE",
            "__ZN5kaldi5nnet326ComputationLoopedOptimizer16FormInfiniteLoopEiiPNS0_15NnetComputationE",
            "__ZNK5kaldi5nnet319ComputationExpander13ExpandIndexesERKNSt3__16vectorINS0_5IndexENS2_9allocatorIS4_EEEEPS7_",
            "__ZN4onnx22StringStringEntryProto21CheckTypeAndMergeFromERKN6google8protobuf11MessageLiteE",
            "__ZN5kaldi18OnlinePitchFeatureD1Ev",
            "__ZN5kaldi7FullGmm15CopyFromDiagGmmERKNS_7DiagGmmE",
            "__ZN5kaldi15TransitionModelC2ERKNS_26ContextDependencyInterfaceERKNS_11HmmTopologyE",
            "__ZNK5kaldi15TransitionModel18PairToTransitionIdEii",
            "__ZNK5kaldi5nnet323ScaleAndOffsetComponent16BackpropInternalERKNSt3__112basic_stringIcNS2_11char_traitsIcEENS2_9allocatorIcEEEERKNS_12CuMatrixBaseIfEESE_PS1_PSC_",
            "__ZN7keenasr11ASRResponse19SetEchoCancellationEb",
            "__ZN5kaldi5nnet320DropoutMaskComponentC2ERKS1_",
            "__ZNK5kaldi18ConstArpaLmBuilder5WriteERNSt3__113basic_ostreamIcNS1_11char_traitsIcEEEEb",
            "__ZN5kaldi5nnet321ClipGradientComponent4InitEifbfffiiii",
            "__ZN5kaldi5nnet317GeneralDescriptor13ParseFailoverERKNSt3__16vectorINS2_12basic_stringIcNS2_11char_traitsIcEENS2_9allocatorIcEEEENS7_IS9_EEEEPPKS9_",
            "__ZN5kaldi5nnet328ConstrainOrthonormalInternalEfRKNSt3__112basic_stringIcNS1_11char_traitsIcEENS1_9allocatorIcEEEEPNS_12CuMatrixBaseIfEE",
            "__ZN5kaldi5nnet318DescriptorTokenizeERKNSt3__112basic_stringIcNS1_11char_traitsIcEENS1_9allocatorIcEEEEPNS1_6vectorIS7_NS5_IS7_EEEE",
            "__ZN5kaldi5nnet317ConsolidateMemoryEPNS0_4NnetE",
            "__ZN5kaldi5nnet325CachingOptimizingCompiler20GetSimpleNnetContextEPiS2_",
            "__ZN4onnx9NodeProtoC1ERKS0_",
            "_cst_lex_load_addenda",
            "__ZN5kaldi22OnlinePitchFeatureImplC2ERKNS_22PitchExtractionOptionsE",
            "__ZN5kaldi5nnet325ConstantFunctionComponent13PerturbParamsEf",
            "__ZN5kaldi5nnet321DerivativeTimeLimiter14ModifyCommandsEv",
            "__ZN5kaldi18ComputeCorrelationERKNS_10VectorBaseIfEEiiiPS1_S4_",
            "__ZN4onnx17SparseTensorProto12InternalSwapEPS0_",
            "__ZNK5kaldi15TransitionModel10IsSelfLoopEi",
            "__ZN3cpr7Session20SetCancellationParamENSt3__110shared_ptrINS1_6atomicIbEEEE",
            "__ZN5boost10filesystem4path25remove_trailing_separatorEv",
            "__ZN4onnx13OptionalProtoC1EPN6google8protobuf5ArenaEb",
            "__ZNK4onnx17SparseTensorProto18_InternalSerializeEPhPN6google8protobuf2io19EpsCopyOutputStreamE",
            "__ZNK5kaldi5nnet316SigmoidComponent9PropagateEPKNS0_27ComponentPrecomputedIndexesERKNS_12CuMatrixBaseIfEEPS6_",
            "__ZNK5kaldi11ConstArpaLm16WriteArpaRecurseEPiRKNSt3__16vectorIiNS2_9allocatorIiEEEEPNS3_INS_8ArpaLineENS4_IS9_EEEE",
            "__ZNK5kaldi17ScalarClusterable4ObjfEv",
            "__ZN5boost10filesystem4path39remove_filename_and_trailing_separatorsEv",
            "__ZN5kaldi5nnet38CompilerC1ERKNS0_18ComputationRequestERKNS0_4NnetE",
            "__ZN5kaldi5nnet315NnetComputation15MatrixDebugInfo4SwapEPS2_",
            "__ZN4onnx19TensorProto_Segment21CheckTypeAndMergeFromERKN6google8protobuf11MessageLiteE",
            "_WebRtcVad_CalcVad8khz",
            "__ZN4onnx16TensorShapeProto9MergeFromERKS0_",
            "__ZNK5kaldi5nnet327DecodableAmOnnxLoopedOnline11IsLastFrameEi",
            "__ZN4onnx19TensorProto_SegmentC2ERKS0_",
            "_val_assoc_string",
            "__ZN5kaldi17MapEventMapLeavesERKNS_8EventMapERKNSt3__16vectorIiNS3_9allocatorIiEEEE",
            "__ZN5boost10filesystem6detail12dot_dot_pathEv",
            "__ZNK5kaldi21IvectorExtractorStats11UpdatePriorERKNS_33IvectorExtractorEstimationOptionsEPNS_16IvectorExtractorE",
            "__ZN3fst6script10FarExtractERKNSt3__16vectorINS1_12basic_stringIcNS1_11char_traitsIcEENS1_9allocatorIcEEEENS6_IS8_EEEERKS8_iSE_SE_SE_SE_SE_",
            "__ZN5kaldi5nnet329DecodableNnetSimpleLoopedInfoC2ERKNS0_34NnetSimpleLoopedComputationOptionsERKNS_6VectorIfEEPNS0_4NnetE",
            "__ZN7keenasr13DecodingGraph54GetDisambigTidFilepathForContextualDecodingGraphAtPathERKNSt3__112basic_stringIcNS1_11char_traitsIcEENS1_9allocatorIcEEEE",
            "_WebRtcSpl_LPBy2IntToInt",
            "__ZNK4onnx10ModelProto13SetCachedSizeEi",
            "__ZN5kaldi16CompressedMatrix5ScaleEf",
            "__ZN5kaldi5nnet324GruNonlinearityComponent22TanhStatsAndSelfRepairERKNS_12CuMatrixBaseIfEEPS3_",
            "__ZN5G2PEs10ReplaceAllEPNSt3__112basic_stringIcNS0_11char_traitsIcEENS0_9allocatorIcEEEEPKcS9_",
            "__ZNK3cpr20CancellationCallbackclEllll",
            "__ZNK5kaldi7DiagGmm26GaussianSelectionPreselectERKNS_10VectorBaseIfEERKNSt3__16vectorIiNS5_9allocatorIiEEEEiPS9_",
            "__ZN3cpr14AuthenticationD1Ev",
            "__ZN5kaldi7DiagGmm5MergeEiPNSt3__16vectorIiNS1_9allocatorIiEEEE",
            "__ZNK5kaldi7DiagGmm5WriteERNSt3__113basic_ostreamIcNS1_11char_traitsIcEEEEb",
            "__ZN5kaldi11RandPoissonEfPNS_11RandomStateE",
            "__ZN5kaldi5nnet327RemoveUnnecessaryAllocationERKNS0_4NnetEPNS0_15NnetComputationE",
            "__ZN5kaldi5nnet318NonlinearComponent4ReadERNSt3__113basic_istreamIcNS2_11char_traitsIcEEEEb",
            "__ZN3fst6script13FarIsomorphicERKNSt3__112basic_stringIcNS1_11char_traitsIcEENS1_9allocatorIcEEEES9_S9_fS9_S9_",
            "__ZN3fst14FstReadOptionsC1ERKNSt3__112basic_stringIcNS1_11char_traitsIcEENS1_9allocatorIcEEEEPKNS_9FstHeaderEPKNS_11SymbolTableESF_",
            "__ZNK5kaldi5nnet318ComputationChecker23CheckComputationRewriteEv",
            "__ZNK5kaldi5nnet319BinarySumDescriptor15GetScaleForNodeEi",
            "__ZN7keenasr10RecognizerD1Ev",
            "__ZN5kaldi23SplitStringOnFirstSpaceERKNSt3__112basic_stringIcNS0_11char_traitsIcEENS0_9allocatorIcEEEEPS6_S9_",
            "__ZNK5kaldi5nnet318ComputationRequest14IndexForOutputERKNSt3__112basic_stringIcNS2_11char_traitsIcEENS2_9allocatorIcEEEE",
            "__ZN4onnx9TypeProtoC1ERKS0_",
            "__ZNK4onnx17TrainingInfoProto13IsInitializedEv",
            "__ZN5kaldi18OnlineCacheFeature10ClearCacheEv",
            "__ZN5kaldi5nnet323RepeatedAffineComponentC1ERKS1_",
            "__ZN5kaldi5nnet330NaturalGradientAffineComponentC2ERKNS_12CuMatrixBaseIfEERKNS_12CuVectorBaseIfEE",
            "_utt_synth_tokens",
            "__ZN5kaldi13DeltaFeaturesC1ERKNS_20DeltaFeaturesOptionsE",
            "__ZN4onnx11TensorProto8CopyFromERKS0_",
            "_cmu_postlex",
            "__ZNK5kaldi5nnet330OutputGruNonlinearityComponent10DotProductERKNS0_18UpdatableComponentE",
            "_default_pos_tagger",
            "__ZN5kaldi5nnet321ComputationRenumberer24RemoveUnusedIndexesMultiEv",
            "__ZNK5ngram11NGramOutput13ShowNGramProbENSt3__112basic_stringIcNS1_11char_traitsIcEENS1_9allocatorIcEEEES7_bid",
            "__ZN5kaldi5nnet314InsertCommandsEPNSt3__16vectorINS1_4pairIiNS0_15NnetComputation7CommandEEENS1_9allocatorIS6_EEEEPS4_",
            "_curl_easy_send",
            "__ZN5kaldi5nnet329StatisticsExtractionComponentC2Ev",
            "__ZNK5kaldi13GeneralMatrix7NumRowsEv",
            "__ZN7keenasr22PronunciationEvaluator7AdvanceEPN5kaldi18DecodableInterfaceEi",
            "__ZN5kaldi5nnet321OnlineNaturalGradient22InitOrthonormalSpecialEPNS_12CuMatrixBaseIfEE",
            "__ZN3fst6script15GetFarTokenTypeERKNSt3__112basic_stringIcNS1_11char_traitsIcEENS1_9allocatorIcEEEEPNS_12FarTokenTypeE",
            "__ZNK5kaldi17ArbitraryResample8ResampleERKNS_10VectorBaseIfEEPS2_",
            "_set_cdr",
            "__ZN5kaldi21IvectorExtractorStats5WriteERNSt3__113basic_ostreamIcNS1_11char_traitsIcEEEEb",
            "__ZNK5kaldi5nnet35Index5WriteERNSt3__113basic_ostreamIcNS2_11char_traitsIcEEEEb",
            "__ZN5boost10filesystem6detail15path_algorithms20replace_extension_v3ERNS0_4pathERKS3_",
            "__ZN4onnx14AttributeProto12InternalSwapEPS0_",
            "__ZN7keenasr13DecodingGraph47CreateDecodingGraphFromPhrasesWithTriggerPhraseERKNSt3__16vectorINS1_12basic_stringIcNS1_11char_traitsIcEENS1_9allocatorIcEEEENS6_IS8_EEEERNS2_INS_24AlternativePronunciationENS6_ISD_EEEERKS8_RKNS_12SpeakingTaskERKNS_10RecognizerESI_f",
            "__ZNK5kaldi5nnet323time_height_convolution24ConvolutionComputationIo5WriteERNSt3__113basic_ostreamIcNS3_11char_traitsIcEEEEb",
            "__ZN5kaldi9Semaphore6SignalEv",
            "__ZN5kaldi5nnet330NaturalGradientAffineComponent14InitFromConfigEPNS_10ConfigLineE",
            "__ZN5kaldi5nnet318NonlinearComponent17ConsolidateMemoryEv",
            "__ZNK5kaldi5nnet34Nnet20IsComponentInputNodeEi",
            "__ZN3rtc18webrtc_checks_impl13WriteFatalLogEPKciNSt3__117basic_string_viewIcNS3_11char_traitsIcEEEE",
            "__ZN5kaldi30LatticeIncrementalDeterminizer25InitializeRawLatticeChunkEPN3fst9VectorFstINS1_6ArcTplINS1_16LatticeWeightTplIfEEEENS1_11VectorStateIS6_NSt3__19allocatorIS6_EEEEEEPNS8_13unordered_mapIiiNS8_4hashIiEENS8_8equal_toIiEENS9_INS8_4pairIKiiEEEEEE",
            "__ZN5kaldi5nnet315LinearComponentC2ERKNS_8CuMatrixIfEE",
            "__ZNK4onnx16TensorShapeProto18_InternalSerializeEPhPN6google8protobuf2io19EpsCopyOutputStreamE",
            "__ZNK7keenasr9ASRResult6ToJsonEv",
            "_phone_feature",
            "__ZN4onnx17SparseTensorProtoC2EPN6google8protobuf5ArenaEb",
            "__ZN7G2PEnUsC1Ev",
            "__ZN3cpr21EncodedAuthenticationD0Ev",
            "__ZN5kaldi13GeneralMatrixaSERKNS_16CompressedMatrixE",
            "__ZNK4onnx18TypeProto_Sequence13IsInitializedEv",
            "__ZNK5kaldi5nnet319MaxpoolingComponent9OutputDimEv",
            "__ZN4onnx19TensorProto_SegmentD0Ev",
            "__ZNK5kaldi5nnet34Nnet11IsInputNodeEi",
            "__ZN3fst27CreateILabelInfoSymbolTableERKNSt3__16vectorINS1_IiNS0_9allocatorIiEEEENS2_IS4_EEEERKNS_11SymbolTableENS0_12basic_stringIcNS0_11char_traitsIcEENS2_IcEEEESG_",
            "__ZN5kaldi5nnet323GeneralDropoutComponentC1ERKS1_",
            "__ZNK5kaldi5nnet324ComputationStepsComputer18SplitIntoSubPhasesERKNSt3__16vectorIiNS2_9allocatorIiEEEEPNS3_INS3_INS2_4pairIiNS0_5IndexEEENS4_ISB_EEEENS4_ISD_EEEE",
            "__ZN5kaldi16MinimumBayesRisk12EditDistanceEiiRNS_6VectorIdEERNS_6MatrixIdEES3_",
            "__ZN7keenasr6Device15GetCachedDeviceERKNSt3__112basic_stringIcNS1_11char_traitsIcEENS1_9allocatorIcEEEE",
            "__ZN5kaldi7FullGmm7PerturbEf",
            "__ZN7keenasr9WebRTCVADD2Ev",
            "__ZN4onnx16TypeProto_Tensor9_Internal5shapeEPKS0_",
            "__ZN5kaldi13GeneralMatrix5ClearEv",
            "__ZNK5kaldi5nnet319MaxpoolingComponent5WriteERNSt3__113basic_ostreamIcNS2_11char_traitsIcEEEEb",
            "__ZNK5kaldi5nnet319SimpleSumDescriptor3DimERKNS0_4NnetE",
            "__zf_log_write_mem_aux",
            "__ZN5kaldi13GeneralMatrix4SwapEPS0_",
            "__ZNK4onnx22StringStringEntryProto11GetTypeNameEv",
            "__ZNK5kaldi16IvectorExtractor19GetAcousticAuxfMeanERKNS_30IvectorExtractorUtteranceStatsERKNS_10VectorBaseIdEEPKNS_8SpMatrixIdEE",
            "__ZN3fst15WriteILabelInfoERNSt3__113basic_ostreamIcNS0_11char_traitsIcEEEEbRKNS0_6vectorINS6_IiNS0_9allocatorIiEEEENS7_IS9_EEEE",
            "__ZN5kaldi28OnlineIvectorEstimationStats5ScaleEd",
            "__ZN4onnx18TypeProto_OptionalD0Ev",
            "__ZN7keenasr21AudioQualityEstimatorD1Ev",
            "__ZNK5kaldi5nnet328SpecAugmentTimeMaskComponent8BackpropERKNSt3__112basic_stringIcNS2_11char_traitsIcEENS2_9allocatorIcEEEEPKNS0_27ComponentPrecomputedIndexesERKNS_12CuMatrixBaseIfEESH_SH_PvPNS0_9ComponentEPSF_",
            "__ZN5kaldi15OnlineCmvnStateC2ERKS0_",
            "__ZN4onnx13SequenceProtoD0Ev",
            "_get_sts_frame",
            "__ZN3cpr7Session12OptionsAsyncEv",
            "__ZN5kaldi5nnet318NameMatchesPatternEPKcS2_",
            "_zf_log_set_output_v",
            "__ZN5kaldi11PlpComputer11GetMelBanksEf",
            "__ZN5kaldi20OnlineIvectorFeature18SetAdaptationStateERKNS_37OnlineIvectorExtractorAdaptationStateE",
            "__ZN4onnx26TensorShapeProto_DimensionD2Ev",
            "_cst_wave_load_riff_header",
            "__ZN5kaldi5nnet320BlockAffineComponent5ScaleEf",
            "__ZN5kaldi13GeneralMatrix14SwapFullMatrixEPNS_6MatrixIfEE",
            "_curl_getdate",
            "__ZN5kaldi5nnet321OnlineNaturalGradient4SwapEPS1_",
            "__ZNK5kaldi5nnet318CompositeComponent4CopyEv",
            "__ZN5kaldi5nnet317UtteranceSplitter18InitSplitForLengthEv",
            "__ZN7keenasr10Recognizer12GetBuildTimeEv",
            "__ZNK5kaldi5nnet316SigmoidComponent8BackpropERKNSt3__112basic_stringIcNS2_11char_traitsIcEENS2_9allocatorIcEEEEPKNS0_27ComponentPrecomputedIndexesERKNS_12CuMatrixBaseIfEESH_SH_PvPNS0_9ComponentEPSF_",
            "__ZN5kaldi5nnet321OnlineNaturalGradientC2Ev",
            "_flite_feat_set_string",
            "__ZN5kaldi20OnlineIvectorFeatureD0Ev",
            "__ZN5boost10filesystem6detail10remove_allERKNS0_4pathEPNS_6system10error_codeE",
            "__ZNK3cpr19ProxyAuthentication3hasERKNSt3__112basic_stringIcNS1_11char_traitsIcEENS1_9allocatorIcEEEE",
            "__ZN5kaldi24SumClusterableNormalizerERKNSt3__16vectorIPNS_11ClusterableENS0_9allocatorIS3_EEEE",
            "__ZN5kaldi16MinimumBayesRisk9MbrDecodeEv",
            "_features_val",
            "__ZN5kaldi5nnet327BackpropTruncationComponent9ZeroStatsEv",
            "_curl_formfree",
            "__ZN5kaldi9SemaphoreC2Ei",
            "__ZNK5boost10filesystem4path18lexically_relativeERKS1_",
            "_curl_multi_add_handle",
            "__ZN3cpr7Session9SetOptionERKNS_8RedirectE",
            "__ZN5kaldi21FeatureWindowFunctionC1ERKNS_22FrameExtractionOptionsE",
            "__ZN5kaldi5nnet318CompositeComponent5ScaleEf",
            "__ZNK4onnx18TypeProto_Optional11GetTypeNameEv",
            "__ZN5kaldi5nnet330TimeHeightConvolutionComponent14ComputeDerivedEv",
            "__ZN7keenasr13DecodingGraph20GetDecodingGraphPathERKNSt3__112basic_stringIcNS1_11char_traitsIcEENS1_9allocatorIcEEEERKNS_10RecognizerE",
            "_val_generic",
            "__ZN5kaldi30ClusterEventMapRestrictedByMapERKNS_8EventMapERKNSt3__16vectorINS3_4pairINS4_INS5_IiiEENS3_9allocatorIS6_EEEEPNS_11ClusterableEEENS7_ISC_EEEEfS2_Pi",
            "__ZN5kaldi7RandIntEiiPNS_11RandomStateE",
            "__ZN4onnx8MapProto21CheckTypeAndMergeFromERKN6google8protobuf11MessageLiteE",
            "__ZNK5kaldi5nnet321OnlineNaturalGradient10ComputeWt1EiRKNS_10VectorBaseIfEES5_ffRKNS_10MatrixBaseIfEES5_S5_RKNS_12CuMatrixBaseIfEEPSB_SE_",
            "__ZN4onnx22StringStringEntryProto9MergeFromERKS0_",
            "__ZN4onnx22TypeProto_SparseTensor12InternalSwapEPS0_",
            "__ZN5kaldi8MelBanksC2ERKS0_",
            "__ZNK4onnx14AttributeProto11GetTypeNameEv",
            "__ZNK4onnx19TensorProto_Segment18_InternalSerializeEPhPN6google8protobuf2io19EpsCopyOutputStreamE",
            "__ZN7keenasr21AudioQualityEstimatorC2Eiiii",
            "__ZNK5kaldi17ScalarClusterable7ReadNewERNSt3__113basic_istreamIcNS1_11char_traitsIcEEEEb",
            "__ZN4onnx13FunctionProtoC1EPN6google8protobuf5ArenaEb",
            "__ZN4onnx14AttributeProto5ClearEv",
            "__ZNK5kaldi5nnet317GeneralDescriptor15NormalizeAppendEv",
            "__ZNK5kaldi5nnet327NnetExampleStructureCompareclERKNS0_11NnetExampleES4_",
            "__ZNK5kaldi5nnet38Compiler33CompileForwardFromSubmatLocationsEifRKNSt3__16vectorINS2_4pairIiiEENS2_9allocatorIS5_EEEEPNS0_15NnetComputationE",
            "__ZN4onnx19TensorProto_SegmentC1EPN6google8protobuf5ArenaEb",
            "__ZN5kaldi5nnet318NormalizeComponent4ReadERNSt3__113basic_istreamIcNS2_11char_traitsIcEEEEb",
            "__ZN5ngram11NGramOutput20PerplexityNGramModelERKNSt3__16vectorINS1_10unique_ptrIN3fst9VectorFstINS4_6ArcTplINS4_17TropicalWeightTplIfEEEENS4_11VectorStateIS9_NS1_9allocatorIS9_EEEEEENS1_14default_deleteISE_EEEENSB_ISH_EEEEibPNS1_12basic_stringIcNS1_11char_traitsIcEENSB_IcEEEEdd",
            "__ZNK5kaldi5nnet347StatisticsExtractionComponentPrecomputedIndexes5WriteERNSt3__113basic_ostreamIcNS2_11char_traitsIcEEEEb",
            "__ZN7keenasr10Recognizer48PrepareForListeningWithCustomDecodingGraphAtPathERKNSt3__112basic_stringIcNS1_11char_traitsIcEENS1_9allocatorIcEEEEb",
            "_WebRtcSpl_UpBy2IntToInt",
            "__ZN5kaldi16WordBoundaryInfo4InitERNSt3__113basic_istreamIcNS1_11char_traitsIcEEEE",
            "__ZN5kaldi17BottomUpClusterer11SetDistanceEii",
            "__ZN7keenasr10Recognizer18SpeakerProfilePathEv",
            "__ZN5kaldi5nnet324VariableMergingOptimizerC1ERKNS0_19NnetOptimizeOptionsERKNS0_4NnetEPNS0_15NnetComputationE",
            "_cst_safe_realloc",
            "__ZNK5kaldi5nnet34Nnet17GetComponentIndexERKNSt3__112basic_stringIcNS2_11char_traitsIcEENS2_9allocatorIcEEEE",
            "_hs_regcomp",
            "__ZN5kaldi14ArpaLmCompiler12ReadCompleteEv",
            "__ZN5kaldi29AddWordInsPenToCompactLatticeEfPN3fst9VectorFstINS0_6ArcTplINS0_23CompactLatticeWeightTplINS0_16LatticeWeightTplIfEEiEEEENS0_11VectorStateIS7_NSt3__19allocatorIS7_EEEEEE",
            "__ZN4onnx14AttributeProtoC1EPN6google8protobuf5ArenaEb",
            "__ZN5kaldi5nnet314RecomputeStatsERKNSt3__16vectorINS0_11NnetExampleENS1_9allocatorIS3_EEEEPNS0_4NnetE",
            "__zf_log_write_aux",
            "__ZNK5kaldi5nnet318ComputationRequest13IndexForInputERKNSt3__112basic_stringIcNS2_11char_traitsIcEENS2_9allocatorIcEEEE",
            "__ZN5kaldi17ArbitraryResampleC1EiffRKNS_6VectorIfEEi",
            "__ZN7keenasr10Recognizer11SetLogLevelENS_8LogLevelE",
            "_WebRtcSpl_DownBy2IntToShort",
            "__ZNK5kaldi5nnet320ConvolutionComponent5WriteERNSt3__113basic_ostreamIcNS2_11char_traitsIcEEEEb",
            "__ZN5kaldi21IvectorExtractorStats4ReadERNSt3__113basic_istreamIcNS1_11char_traitsIcEEEEbb",
            "__ZNK5kaldi5nnet321OnlineNaturalGradient8SelfTestEv",
            "__ZNK5kaldi5nnet315NnetComputation13SubMatrixInfoeqERKS2_",
            "__ZNK5kaldi5nnet315NnetComputation10MatrixInfo5WriteERNSt3__113basic_ostreamIcNS3_11char_traitsIcEEEEb",
            "__ZN5kaldi5nnet323ScaleAndOffsetComponent13PerturbParamsEf",
            "__ZN5kaldi5nnet38CompilerC1ERKNSt3__16vectorIPKNS0_18ComputationRequestENS2_9allocatorIS6_EEEERKNS0_4NnetE",
            "__ZN4onnx14ValueInfoProto5ClearEv",
            "_LogLevelToZFLevel",
            "_get_param_float",
            "__ZN3cpr7Session12SetProxyAuthERKNS_19ProxyAuthenticationE",
            "_item_as",
            "__ZNK4onnx16TypeProto_Opaque12ByteSizeLongEv",
            "__ZN3fst17ProjectPropertiesEyb",
            "__ZN20KaldiNNet3Recognizer14StartListeningEv",
            "__ZN5kaldi7DiagGmm14ComputeGconstsEv",
            "__ZN4onnx9TypeProto14_InternalParseEPKcPN6google8protobuf8internal12ParseContextE",
            "__ZNK5ngram11NGramOutput14ShowNGramModelENS0_11ShowBackoffEbbb",
            "_AECBCopyBL",
            "__ZN5kaldi13ReadPosteriorERNSt3__113basic_istreamIcNS0_11char_traitsIcEEEEbPNS0_6vectorINS6_INS0_4pairIifEENS0_9allocatorIS8_EEEENS9_ISB_EEEE",
            "__ZN5kaldi5nnet324ComputeSimpleNnetContextERKNS0_4NnetEPiS4_",
            "__ZN5kaldi14ArpaFileParser4ReadERNSt3__113basic_istreamIcNS1_11char_traitsIcEEEE",
            "__ZN4onnx18OperatorSetIdProto9MergeFromERKS0_",
            "_default_phrasing",
            "__ZN5kaldi5nnet36NnetIoC2ERKNSt3__112basic_stringIcNS2_11char_traitsIcEENS2_9allocatorIcEEEEiRKNS_13GeneralMatrixEi",
            "__ZNK5ngram11NGramOutput20ShowNonPhiPerplexityERKN3fst3FstINS1_6ArcTplINS1_17TropicalWeightTplIfEEEEEEbdiPdPiSB_SB_",
            "_dur_stats_val",
            "_ph_vlng",
            "__ZNK4onnx10GraphProto18_InternalSerializeEPhPN6google8protobuf2io19EpsCopyOutputStreamE",
            "__ZNK5kaldi5nnet317UtteranceSplitter25GetChunkSizesForUtteranceEiPNSt3__16vectorIiNS2_9allocatorIiEEEE",
            "__ZNK5kaldi5nnet338NaturalGradientRepeatedAffineComponent4CopyEv",
            "__ZNK5kaldi21IvectorExtractorStats17UpdateProjectionsERKNS_33IvectorExtractorEstimationOptionsEPNS_16IvectorExtractorE",
            "__ZNK5kaldi5nnet317SumBlockComponent5WriteERNSt3__113basic_ostreamIcNS2_11char_traitsIcEEEEb",
            "__ZN5kaldi15ReadConfigLinesERNSt3__113basic_istreamIcNS0_11char_traitsIcEEEEPNS0_6vectorINS0_12basic_stringIcS3_NS0_9allocatorIcEEEENS8_ISA_EEEE",
            "__ZN3fst21SynchronizePropertiesEy",
            "_cst_wave_save_raw_fd",
            "__ZN4onnx13TypeProto_MapC2EPN6google8protobuf5ArenaEb",
            "_new_rateconv",
            "__ZN3fst18ReweightPropertiesEy",
            "_ph_vc",
            "__ZN7keenasr9ASRResultaSEOS0_",
            "__ZNK5kaldi5nnet318CindexVectorHasherclERKNSt3__16vectorINS2_4pairIiNS0_5IndexEEENS2_9allocatorIS6_EEEE",
            "__ZN5kaldi26ExtractRowRangeWithPaddingERKNS_13GeneralMatrixEiiPS0_",
            "__ZN6google8protobuf5Arena18CreateMaybeMessageIN4onnx13SequenceProtoEJEEEPT_PS1_DpOT0_",
            "__ZN3cpr7Session9SetOptionERKNS_13DebugCallbackE",
            "_zf_log_set_tag_prefix",
            "__ZNK4onnx14ValueInfoProto13SetCachedSizeEi",
            "__ZN4onnx16TensorShapeProto12InternalSwapEPS0_",
            "__ZN5kaldi5nnet317ConstantComponent13PerturbParamsEf",
            "__ZN5kaldi5nnet314MatrixExtender12FixDebugInfoEv",
            "__ZN5kaldi5nnet325LstmNonlinearityComponent3AddEfRKNS0_9ComponentE",
            "_cst_member_string",
            "__ZN5kaldi5nnet320FixedAffineComponent14InitFromConfigEPNS_10ConfigLineE",
            "__ZN5kaldi5nnet313NumParametersERKNS0_4NnetE",
            "__ZNK5kaldi5nnet319ExampleMergingStats10PrintStatsEv",
            "__ZN5kaldi5nnet323ModelUpdateConsolidator22ConsolidateModelUpdateEv",
            "__ZNK5kaldi7FullGmm23LogLikelihoodsPreselectERKNS_10VectorBaseIfEERKNSt3__16vectorIiNS5_9allocatorIiEEEEPNS_6VectorIfEE",
            "__ZN5kaldi5nnet319ComputationExpander22ExpandRowRangesCommandERKNS0_15NnetComputation7CommandEPS3_",
            "__ZN5kaldi12PreemphasizeEPNS_10VectorBaseIfEEf",
            "__ZN5kaldi5nnet318NonlinearComponentC2Ev",
            "_flite_do_synth",
            "_WebRtcVad_GaussianProbability",
            "__ZN4onnx26TensorShapeProto_Dimension21CheckTypeAndMergeFromERKN6google8protobuf11MessageLiteE",
            "__ZN3cpr10ThreadPool6ResumeEv",
            "__ZN5kaldi18ConvertPhnxToPronsERKNSt3__16vectorIiNS0_9allocatorIiEEEES6_iiPNS1_IS4_NS2_IS4_EEEE",
            "__ZN5kaldi5nnet326StatisticsPoolingComponentC1ERKS1_",
            "_AEAudioStreamBasicDescriptionSetChannelsPerFrame",
            "__ZN6google8protobuf5Arena18CreateMaybeMessageIN4onnx11TensorProtoEJEEEPT_PS1_DpOT0_",
            "__ZN5kaldi5nnet317GeneralDescriptor24ParseAppendOrSumOrSwitchERKNSt3__16vectorINS2_12basic_stringIcNS2_11char_traitsIcEENS2_9allocatorIcEEEENS7_IS9_EEEEPPKS9_",
            "_val_wave",
            "__ZNK5kaldi5nnet323RepeatedAffineComponent4InfoEv",
            "__ZNK5kaldi5nnet38Compiler11IsInputStepEi",
            "__ZN7keenasr9ASRResultC1EOS0_",
            "__ZN4onnx18TypeProto_OptionalD1Ev",
            "__ZN5kaldi11HmmTopology5CheckEv",
            "__ZNK5kaldi5nnet324GruNonlinearityComponent5CheckEv",
            "__ZN5kaldi5nnet317SumGroupComponent4InitEii",
            "__ZNK5kaldi5nnet330TimeHeightConvolutionComponent18PrecomputedIndexes5WriteERNSt3__113basic_ostreamIcNS3_11char_traitsIcEEEEb",
            "__ZN5G2PEsC1Ev",
            "__ZN4onnx17TrainingInfoProtoC1EPN6google8protobuf5ArenaEb",
            "__ZN5kaldi5nnet318CompositeComponent14InitFromConfigEPNS_10ConfigLineE",
            "__ZN5kaldi5nnet318BatchNormComponent10StoreStatsERKNS_12CuMatrixBaseIfEES5_Pv",
            "__ZN3cpr10ThreadPoolD2Ev",
            "__ZN5kaldi14PitchFrameInfoC2Ei",
            "__ZN5kaldi5nnet34Nnet12AddComponentERKNSt3__112basic_stringIcNS2_11char_traitsIcEENS2_9allocatorIcEEEEPNS0_9ComponentE",
            "__ZN7Lexicon18GetLexiconFilepathERKNSt3__112basic_stringIcNS0_11char_traitsIcEENS0_9allocatorIcEEEE",
            "__ZN7keenasr9ASRResultD1Ev",
            "__ZN20KaldiNNet3Recognizer11InitDecoderEv",
            "__ZNK5kaldi5nnet323RepeatedAffineComponent10DotProductERKNS0_18UpdatableComponentE",
            "__ZN4onnx18OperatorSetIdProtoD2Ev",
            "_new_item_contents",
            "__ZN5kaldi5nnet323ComputationGraphBuilder5PruneEv",
            "__ZN5kaldi5nnet320DropoutMaskComponentC1ERKS1_",
            "__ZN3cpr7Session7SetBodyEONS_4BodyE",
            "__ZN5kaldi5nnet36NnetIoC1ERKNSt3__112basic_stringIcNS2_11char_traitsIcEENS2_9allocatorIcEEEEiRKNS_10MatrixBaseIfEEi",
            "_item_contents_set",
            "__ZN5kaldi9Semaphore4WaitEv",
            "__ZN5kaldi5Input12OpenInternalERKNSt3__112basic_stringIcNS1_11char_traitsIcEENS1_9allocatorIcEEEEbPb",
            "__ZN5kaldi5nnet339NaturalGradientPerElementScaleComponent21FreezeNaturalGradientEb",
            "__ZN5kaldi11ExpectTokenERNSt3__113basic_istreamIcNS0_11char_traitsIcEEEEbRKNS0_12basic_stringIcS3_NS0_9allocatorIcEEEE",
            "__ZN5kaldi17ScalarClusterable4InfoEv",
            "__ZN4onnx17SparseTensorProto9MergeFromERKS0_",
            "__ZN3cpr7Session13DoEasyPerformEv",
            "__ZNK4onnx13FunctionProto18_InternalSerializeEPhPN6google8protobuf2io19EpsCopyOutputStreamE",
            "_ts_get",
            "__ZN3fst6script7FarInfoERKNSt3__16vectorINS1_12basic_stringIcNS1_11char_traitsIcEENS1_9allocatorIcEEEENS6_IS8_EEEERKS8_SE_SE_b",
            "__ZN5kaldi6OutputD1Ev",
            "__ZNK5kaldi5nnet326SimpleForwardingDescriptor4CopyEv",
            "__ZN5kaldi5nnet312AmNnetSimple4ReadERNSt3__113basic_istreamIcNS2_11char_traitsIcEEEEb",
            "__ZN5kaldi11PlpComputer16GetEqualLoudnessEf",
            "__ZN5boost10filesystem6detail11dir_itr_impD2Ev",
            "__ZNK5kaldi5nnet315LinearComponent4InfoEv",
            "_MlasSymQgemmS8KernelNeon",
            "__ZNK5kaldi5nnet325PerElementOffsetComponent9PropagateEPKNS0_27ComponentPrecomputedIndexesERKNS_12CuMatrixBaseIfEEPS6_",
            "__ZN5kaldi14ArpaFileParser10ShouldWarnEv",
            "__ZN4onnx16TensorAnnotation21CheckTypeAndMergeFromERKN6google8protobuf11MessageLiteE",
            "__ZN5kaldi5nnet324VariableMergingOptimizer11MarkAsDirtyEi",
            "_ph_cplace",
            "__ZN5kaldi16GaussClusterable8AddStatsERKNS_10VectorBaseIfEEf",
            "__ZN4onnx14AttributeProto9_Internal1tEPKS0_",
            "_cst_wave_resample",
            "__ZN5kaldi5nnet323time_height_convolution17AppendInputFramesERKNS1_16ConvolutionModelEPNS1_24ConvolutionComputationIoEPS2_S6_",
            "__ZN5kaldi5nnet318CompositeComponent4ReadERNSt3__113basic_istreamIcNS2_11char_traitsIcEEEEb",
            "__ZN4onnx13SequenceProto12InternalSwapEPS0_",
            "__ZNK4onnx13FunctionProto11GetTypeNameEv",
            "_lexicon_val",
            "__ZNK4onnx14AttributeProto13SetCachedSizeEi",
            "__ZNK5kaldi17VectorClusterable4CopyEv",
            "__ZN5kaldi11ComputeNccfERKNS_10VectorBaseIfEES3_fPS1_",
            "__ZN5kaldi5nnet320ConvolutionComponent5ScaleEf",
            "__ZN5kaldi5nnet325ConstantFunctionComponentC1ERKS1_",
            "__ZN5kaldi13GeneralMatrix4ReadERNSt3__113basic_istreamIcNS1_11char_traitsIcEEEEb",
            "__ZN5boost10filesystem6detail19temp_directory_pathEPNS_6system10error_codeE",
            "__ZN6google8protobuf5Arena18CreateMaybeMessageIN4onnx14ValueInfoProtoEJEEEPT_PS1_DpOT0_",
            "_curl_share_setopt",
            "__zf_log_write_mem_aux_d",
            "__ZN3fst6script15FarPrintStringsERKNSt3__16vectorINS1_12basic_stringIcNS1_11char_traitsIcEENS1_9allocatorIcEEEENS6_IS8_EEEERKS8_NS_12FarEntryTypeENS_12FarTokenTypeESE_SE_bbSE_biSE_SE_",
            "__ZN4onnx13TypeProto_Map12InternalSwapEPS0_",
            "__ZN5kaldi41ClusterEventMapToNClustersRestrictedByMapERKNS_8EventMapERKNSt3__16vectorINS3_4pairINS4_INS5_IiiEENS3_9allocatorIS6_EEEEPNS_11ClusterableEEENS7_ISC_EEEEiS2_Pi",
            "__ZN5kaldi15WriteScriptFileERNSt3__113basic_ostreamIcNS0_11char_traitsIcEEEERKNS0_6vectorINS0_4pairINS0_12basic_stringIcS3_NS0_9allocatorIcEEEESB_EENS9_ISC_EEEE",
            "__ZN3cpr7Cookies8pop_backEv",
            "__ZN5kaldi5nnet314RowOpsSplitter12SplitIndexesEv",
            "__ZN4onnx18OperatorSetIdProto8CopyFromERKS0_",
            "__ZN4onnx10GraphProto9MergeFromERKS0_",
            "_AEAudioBufferListFree",
            "__ZNK5kaldi5nnet311IndexHasherclERKNS0_5IndexE",
            "_flite_file_to_speech",
            "__ZN3fst10AlignInputERNSt3__113basic_istreamIcNS0_11char_traitsIcEEEE",
            "__ZN5kaldi14LinearResample5ResetEv",
            "__ZN7keenasr12NGramBuilder24CreateAugmentationNGramsEPKN3fst11SymbolTableERKNSt3__112basic_stringIcNS5_11char_traitsIcEENS5_9allocatorIcEEEE",
            "__ZN5kaldi14WriteBasicTypeIdEEvRNSt3__113basic_ostreamIcNS1_11char_traitsIcEEEEbT_",
            "__ZNK3cpr5Files3endEv",
            "_concat_units",
            "__ZN7keenasr8CopyFileERKNSt3__112basic_stringIcNS0_11char_traitsIcEENS0_9allocatorIcEEEES8_",
            "__ZNK5kaldi5nnet324ComputationStepsComputer17ConvertToCindexesERKNSt3__16vectorIiNS2_9allocatorIiEEEEPNS3_INS2_4pairIiNS0_5IndexEEENS4_ISB_EEEE",
            "__ZN5boost10filesystem6detail18utf8_codecvt_facetC1Em",
            "__ZN5kaldi5nnet324ComputationStepsComputer20ProcessComponentStepERKNSt3__16vectorINS2_4pairIiNS0_5IndexEEENS2_9allocatorIS6_EEEE",
            "_cst_wave_save_riff",
            "__ZNK5kaldi5nnet321ClipGradientComponent5WriteERNSt3__113basic_ostreamIcNS2_11char_traitsIcEEEEb",
            "_KaldiLogHandler",
            "__ZN5kaldi5nnet319FixedScaleComponent4InitERKNS_12CuVectorBaseIfEE",
            "__ZNK3cpr14Authentication11GetAuthModeEv",
            "__ZNK5kaldi5nnet320ComputationVariables24RecordAccessForSubmatrixEiNS0_10AccessTypeEPNS0_17CommandAttributesE",
            "__ZN4onnx11TensorProto9_Internal7segmentEPKS0_",
            "__ZN7keenasr10Recognizer22AdaptToSpeakerWithNameERKNSt3__112basic_stringIcNS1_11char_traitsIcEENS1_9allocatorIcEEEE",
            "__ZN5kaldi5nnet311SplitRowOpsEPNS0_15NnetComputationE",
            "__ZN7keenasr9ASRResultC1ERKS0_",
            "__ZN4onnx19TensorProto_Segment8CopyFromERKS0_",
            "__ZN5kaldi17GetHmmAsFsaSimpleENSt3__16vectorIiNS0_9allocatorIiEEEERKNS_26ContextDependencyInterfaceERKNS_15TransitionModelEf",
            "__ZN5kaldi5nnet325PerElementOffsetComponent13PerturbParamsEf",
            "__ZN5kaldi5nnet315AffineComponent4InitENSt3__112basic_stringIcNS2_11char_traitsIcEENS2_9allocatorIcEEEE",
            "__ZN5kaldi5nnet329DecodableNnetSimpleLoopedInfoC1ERKNS0_34NnetSimpleLoopedComputationOptionsEPNS0_4NnetE",
            "__ZN5kaldi7FullGmm4ReadERNSt3__113basic_istreamIcNS1_11char_traitsIcEEEEb",
            "_cst_ftell",
            "__ZNK5kaldi5nnet320ComputationVariables20GetMatrixForVariableEi",
            "__ZN7keenasr10FileExistsERKNSt3__112basic_stringIcNS0_11char_traitsIcEENS0_9allocatorIcEEEE",
            "__ZN5kaldi5nnet323RepeatedAffineComponentC2ERKS1_",
            "__ZN5kaldi14PitchFrameInfo12SetBestStateEiRNSt3__16vectorINS1_4pairIifEENS1_9allocatorIS4_EEEE",
            "__ZN3cpr7Cookies5beginEv",
            "__ZN5kaldi5nnet327DecodableAmOnnxLoopedOnline13LogLikelihoodEii",
            "__ZN5kaldi5nnet38Compiler14CreateStepInfoERKNSt3__16vectorIbNS2_9allocatorIbEEEERKNS3_IiNS4_IiEEEEPNS3_ISA_NS4_ISA_EEEEPNS0_15NnetComputationE",
            "__ZN5boost10filesystem6detail15path_algorithms21find_filename_v4_sizeERKNS0_4pathE",
            "__ZN5kaldi5nnet325ConstantFunctionComponent17ConsolidateMemoryEv",
            "__ZNK5ngram11NGramOutput20FindNextStateInModelEPiidiPdS1_S1_S1_PNSt3__112basic_stringIcNS3_11char_traitsIcEENS3_9allocatorIcEEEEbPNS3_6vectorIiNS7_IiEEEE",
            "_cst_regex_init",
            "__ZN5kaldi13FullGmmNormal15CopyFromFullGmmERKNS_7FullGmmE",
            "__ZN5kaldi5nnet314PnormComponent4InitEii",
            "__ZN5kaldi5nnet339NaturalGradientPerElementScaleComponentC2ERKS1_",
            "__ZN7keenasr22PronunciationEvaluator27GetSausagesFromPhoneDecoderEv",
            "__ZNK5kaldi15TransitionModel10SelfLoopOfEi",
            "__ZNK5kaldi5nnet313TdnnComponent18PrecomputedIndexes5WriteERNSt3__113basic_ostreamIcNS3_11char_traitsIcEEEEb",
            "_ts_read",
            "__ZN5kaldi12ReadPhoneMapENSt3__112basic_stringIcNS0_11char_traitsIcEENS0_9allocatorIcEEEEPNS0_6vectorIiNS4_IiEEEE",
            "__ZN5ngram12NGramContext4InitEv",
            "__ZNK5kaldi5nnet319DistributeComponent17PrecomputeIndexesERKNS0_19MiscComputationInfoERKNSt3__16vectorINS0_5IndexENS5_9allocatorIS7_EEEESC_b",
            "__ZN4onnx9TypeProto27set_allocated_optional_typeEPNS_18TypeProto_OptionalE",
            "__ZN7keenasr12NGramBuilder15GetSymsFilenameERKNSt3__112basic_stringIcNS1_11char_traitsIcEENS1_9allocatorIcEEEE",
            "__ZN4onnx10GraphProto5ClearEv",
            "__ZN5kaldi5nnet317SumGroupComponent4InitERKNSt3__16vectorIiNS2_9allocatorIiEEEE",
            "__ZNK4onnx18TypeProto_Sequence12ByteSizeLongEv",
            "__ZN5kaldi5nnet317GeneralDescriptor19ConvertToDescriptorEv",
            "__ZN4onnx17TrainingInfoProto9_Internal9algorithmEPKS0_",
            "__ZN5kaldi5nnet315LinearComponent3AddEfRKNS0_9ComponentE",
            "__ZN5kaldi7FullGmm14ComputeGconstsEv",
            "__ZN5kaldi5nnet313TdnnComponent12GetInputPartERKNS_12CuMatrixBaseIfEEiii",
            "__ZN4onnx16TypeProto_Tensor9MergeFromERKS0_",
            "__ZNK3cpr14Authentication13GetAuthStringEv",
            "__ZN5kaldi5nnet318BatchNormComponent9ZeroStatsEv",
            "__ZNK4onnx22StringStringEntryProto18_InternalSerializeEPhPN6google8protobuf2io19EpsCopyOutputStreamE",
            "__ZN6google8protobuf5Arena18CreateMaybeMessageIN4onnx8MapProtoEJEEEPT_PS1_DpOT0_",
            "__ZN5kaldi5nnet317ConstantComponentC1Ev",
            "__ZNK5kaldi5nnet324RectifiedLinearComponent9PropagateEPKNS0_27ComponentPrecomputedIndexesERKNS_12CuMatrixBaseIfEEPS6_",
            "__ZN5kaldi5nnet321ClipGradientComponent3AddEfRKNS0_9ComponentE",
            "__ZN3fst15UnionPropertiesEyyb",
            "__ZN3cpr7Session13SetParametersERKNS_10ParametersE",
            "__ZN5kaldi12MfccComputer7ComputeEffPNS_10VectorBaseIfEES3_",
            "__ZN5kaldi16ParseConfigLinesERKNSt3__16vectorINS0_12basic_stringIcNS0_11char_traitsIcEENS0_9allocatorIcEEEENS5_IS7_EEEEPNS1_INS_10ConfigLineENS5_ISC_EEEE",
            "__ZNK4onnx14ValueInfoProto12ByteSizeLongEv",
            "__ZN3cpr7Session10SetPayloadERKNS_7PayloadE",
            "__ZN3cpr4util17writeFileFunctionEPcmmPNSt3__114basic_ofstreamIcNS2_11char_traitsIcEEEE",
            "__ZN5kaldi5nnet325LstmNonlinearityComponent14InitFromConfigEPNS_10ConfigLineE",
            "__ZNK4onnx8MapProto11GetTypeNameEv",
            "__ZNK5kaldi5nnet38Compiler15OutputDebugInfoEPNS0_15NnetComputationE",
            "__ZN5kaldi5nnet312NnetComputer11GetPointersEiiPNS_7CuArrayIPfEE",
            "__ZNK5kaldi5nnet328RestrictedAttentionComponent5WriteERNSt3__113basic_ostreamIcNS2_11char_traitsIcEEEEb",
            "__ZNK5kaldi5nnet318NormalizeComponent5WriteERNSt3__113basic_ostreamIcNS2_11char_traitsIcEEEEb",
            "_userdata_val",
            "__ZN3cpr10ThreadPool5PauseEv",
            "__ZN5kaldi20DeleteBuildTreeStatsEPNSt3__16vectorINS0_4pairINS1_INS2_IiiEENS0_9allocatorIS3_EEEEPNS_11ClusterableEEENS4_IS9_EEEE",
            "_WebRtcSpl_DivW32W16",
            "__ZN5kaldi5nnet319ComputationExpander16ComputeDebugInfoEv",
            "__ZN5kaldi5nnet330TimeHeightConvolutionComponentC1Ev",
            "_val_diphone_db",
            "__ZNK5kaldi5nnet319ComputationAnalysis27FirstNontrivialMatrixAccessEi",
            "__ZNK7keenasr18AudioQualityResult6ToJsonEv",
            "__ZN3cpr7Session9SetOptionERKNS_9MultipartE",
            "__ZN5kaldi10OnlineCmvn8SetStateERKNS_15OnlineCmvnStateE",
            "__ZN5kaldi22AddToClustersOptimizedERKNSt3__16vectorIPNS_11ClusterableENS0_9allocatorIS3_EEEERKNS1_IiNS4_IiEEEERKS2_PS6_",
            "__ZN5kaldi5nnet318UpdatableComponent19ReadUpdatableCommonERNSt3__113basic_istreamIcNS2_11char_traitsIcEEEEb",
            "__ZN5kaldi5nnet330CreateLoopedComputationRequestERKNS0_4NnetEiiiiiiPNS0_18ComputationRequestES5_S5_",
            "_val_string",
            "__ZNK5kaldi5nnet321OptionalSumDescriptor3DimERKNS0_4NnetE",
            "__ZN5kaldi5nnet39attention17AttentionBackwardEfRKNS_12CuMatrixBaseIfEES5_S5_S5_S5_PS3_S6_S6_",
            "__ZNK5kaldi5nnet316DropoutComponent4InfoEv",
            "__ZN5kaldi5nnet313CompileLoopedERKNS0_4NnetERKNS0_19NnetOptimizeOptionsERKNS0_18ComputationRequestES9_S9_PNS0_15NnetComputationE",
            "__ZNK5kaldi5nnet318FixedBiasComponent5WriteERNSt3__113basic_ostreamIcNS2_11char_traitsIcEEEEb",
            "__ZNK5kaldi5nnet320ConvolutionComponent9PropagateEPKNS0_27ComponentPrecomputedIndexesERKNS_12CuMatrixBaseIfEEPS6_",
            "__ZNK4onnx13OptionalProto11GetTypeNameEv",
            "_AEAudioBufferListCopy",
            "__ZN4onnx9NodeProto21CheckTypeAndMergeFromERKN6google8protobuf11MessageLiteE",
            "__ZN5kaldi5nnet323UpdateNnetWithMaxChangeERKNS0_4NnetEfffPS1_PNSt3__16vectorIiNS5_9allocatorIiEEEEPi",
            "__ZN5kaldi5SleepEf",
            "__ZN5kaldi5nnet321ComputationRenumberer28RemoveIndexesMultiDuplicatesEv",
            "__ZN7keenasr18AudioQualityResultC2ENSt3__16vectorIdNS1_9allocatorIdEEEEmddddb",
            "__ZN3fst17ReplacePropertiesERKNSt3__16vectorIyNS0_9allocatorIyEEEElbbbbbbbbb",
            "__ZN5kaldi5nnet324GruNonlinearityComponent4ReadERNSt3__113basic_istreamIcNS2_11char_traitsIcEEEEb",
            "__ZN5kaldi15TransitionModel9MleUpdateERKNS_6VectorIdEERKNS_25MleTransitionUpdateConfigEPfS8_",
            "__ZNK5kaldi5nnet319SimpleSumDescriptor15GetDependenciesERKNS0_5IndexEPNSt3__16vectorINS5_4pairIiS2_EENS5_9allocatorIS8_EEEE",
            "__ZN5kaldi5nnet319ComputationExpander17ExpandRowsCommandERKNS0_15NnetComputation7CommandEPS3_",
            "__ZN5kaldi5nnet321DerivativeTimeLimiterC2ERKNS0_4NnetEiiPNS0_15NnetComputationE",
            "__ZN5kaldi5nnet317SumBlockComponent4ReadERNSt3__113basic_istreamIcNS2_11char_traitsIcEEEEb",
            "__ZN7keenasr13DecodingGraph37GetHCLGFilepathForDecodingGraphAtPathERKNSt3__112basic_stringIcNS1_11char_traitsIcEENS1_9allocatorIcEEEE",
            "_new_lpcres",
            "__ZN5kaldi5nnet317UtteranceSplitterD1Ev",
            "__ZN5kaldi8SpMatrixIdE7AddVec2IdEEvdRKNS_10VectorBaseIT_EE",
            "_utt_synth_text2segs",
            "__ZNK5kaldi5nnet323GeneralDropoutComponent4CopyEv",
            "__ZN5kaldi14ReadScriptFileERNSt3__113basic_istreamIcNS0_11char_traitsIcEEEEbPNS0_6vectorINS0_4pairINS0_12basic_stringIcS3_NS0_9allocatorIcEEEESB_EENS9_ISC_EEEE",
            "_cart_val",
            "__ZN7keenasr22PronunciationEvaluator21CreateEditDistanceFstEv",
            "_delete_rateconv",
            "__ZN6google8protobuf5Arena18CreateMaybeMessageIN4onnx16TypeProto_TensorEJEEEPT_PS1_DpOT0_",
            "__ZN5kaldi16CompressedMatrixC2ERKS0_iiiib",
            "__ZN5kaldi25ClusterEventMapGetMappingERKNS_8EventMapERKNSt3__16vectorINS3_4pairINS4_INS5_IiiEENS3_9allocatorIS6_EEEEPNS_11ClusterableEEENS7_ISC_EEEEfPNS4_IPS0_NS7_ISH_EEEE",
            "_item_phoneset",
            "__ZNK5kaldi5nnet312AmNnetSimple4InfoEv",
            "__ZN5kaldi14ArpaLmCompilerD1Ev",
            "__ZN5kaldi9NumFramesExRKNS_22FrameExtractionOptionsEb",
            "_curl_mfprintf",
            "_val_delete_dur_stats",
            "_delete_sts_list",
            "__ZN7keenasr10Recognizer14StartListeningERNSt3__112basic_stringIcNS1_11char_traitsIcEENS1_9allocatorIcEEEE",
            "_rtc_FatalMessage",
            "__ZN7keenasr22PronunciationEvaluator31LoadPhoneDecodingGraphResourcesERKNSt3__112basic_stringIcNS1_11char_traitsIcEENS1_9allocatorIcEEEE",
            "__ZN5kaldi13DeltaFeaturesC2ERKNS_20DeltaFeaturesOptionsE",
            "__ZN5boost10filesystem6detail15path_algorithms19find_root_path_sizeERKNS0_4pathE",
            "_flite_process_output",
            "__ZN4onnx9TypeProtoD1Ev",
            "__ZN5kaldi16GetPdfsForPhonesERKNS_15TransitionModelERKNSt3__16vectorIiNS3_9allocatorIiEEEEPS7_",
            "_val_item",
            "_MlasSymQgemmS8KernelSdotLd64",
            "__ZN5kaldi13FullGmmNormal4RandEPNS_10MatrixBaseIfEE",
            "__ZNK5kaldi5nnet320BlockAffineComponent9VectorizeEPNS_10VectorBaseIfEE",
            "__ZN4onnx13SequenceProto9MergeFromERKS0_",
            "__ZN6google8protobuf5Arena18CreateMaybeMessageIN4onnx13FunctionProtoEJEEEPT_PS1_DpOT0_",
            "__ZN5kaldi5nnet330NaturalGradientAffineComponent3AddEfRKNS0_9ComponentE",
            "__ZN4onnx13OptionalProto9MergeFromERKS0_",
            "__ZNK5kaldi5nnet320ConvolutionComponent9OutputDimEv",
            "__ZN5kaldi5nnet324ComputationStepsComputer17ComputeForSegmentERKNS0_18ComputationRequestERKNSt3__16vectorINS6_IiNS5_9allocatorIiEEEENS7_IS9_EEEE",
            "_AECurrentThreadIsAudioThread",
            "__ZN5kaldi16MinimumBayesRisk26PrepareLatticeAndInitStatsEPN3fst9VectorFstINS1_6ArcTplINS1_23CompactLatticeWeightTplINS1_16LatticeWeightTplIfEEiEEEENS1_11VectorStateIS8_NSt3__19allocatorIS8_EEEEEE",
            "__ZN5kaldi5nnet315SummarizeVectorERKNS_10VectorBaseIfEE",
            "__ZN4onnx8MapProtoC1ERKS0_",
            "_us_text_init",
            "__ZN5kaldi5nnet311PrintCindexERNSt3__113basic_ostreamIcNS1_11char_traitsIcEEEERKNS1_4pairIiNS0_5IndexEEERKNS1_6vectorINS1_12basic_stringIcS4_NS1_9allocatorIcEEEENSE_ISG_EEEE",
            "__ZNK5kaldi5nnet316PermuteComponent4CopyEv",
            "__ZN4onnx18OperatorSetIdProtoD0Ev",
            "__ZNK5kaldi11ConstArpaLm12GetChildInfoEiPiS1_",
            "__ZN4onnx8MapProto8CopyFromERKS0_",
            "__ZN5kaldi26OnlineNnet2FeaturePipelineD1Ev",
            "__ZN5kaldi5nnet318CompositeComponent13SetAsGradientEv",
            "__ZNK3cpr6Cookie9GetDomainEv",
            "__ZN4onnx13TypeProto_MapD0Ev",
            "__ZN4onnx9TypeProto32set_allocated_sparse_tensor_typeEPNS_22TypeProto_SparseTensorE",
            "__ZN5kaldi12ObjfGivenMapERKNSt3__16vectorINS0_4pairINS1_INS2_IiiEENS0_9allocatorIS3_EEEEPNS_11ClusterableEEENS4_IS9_EEEERKNS_8EventMapE",
            "__ZNK5kaldi5nnet38Compiler24AddBackwardStepComponentEiPNS0_15NnetComputationE",
            "__ZNK15KaldiRecognizer25GetKaldiResultFromLatticeERN3fst9VectorFstINS0_6ArcTplINS0_23CompactLatticeWeightTplINS0_16LatticeWeightTplIfEEiEEEENS0_11VectorStateIS7_NSt3__19allocatorIS7_EEEEEEfffb",
            "__ZN4onnx16TypeProto_Opaque8CopyFromERKS0_",
            "_delete_tokenstream",
            "_delete_features",
            "__ZNK5kaldi5nnet328RestrictedAttentionComponent15GetInputIndexesERKNS0_19MiscComputationInfoERKNS0_5IndexEPNSt3__16vectorIS5_NS8_9allocatorIS5_EEEE",
            "_flite_feat_set_float",
            "__ZN5boost10filesystem6detail11dir_itr_impdlEPvm",
            "__ZN5kaldi13SetLogHandlerEPFvRKNS_18LogMessageEnvelopeEPKcE",
            "__ZN3cpr20CancellationCallback19SetProgressCallbackERNS_16ProgressCallbackE",
            "__ZN5kaldi5nnet38Compiler23SetUpPrecomputedIndexesERKNSt3__16vectorIiNS2_9allocatorIiEEEEPNS0_15NnetComputationE",
            "__ZN5kaldi37OnlineIvectorExtractorAdaptationState4ReadERNSt3__113basic_istreamIcNS1_11char_traitsIcEEEEb",
            "__ZN3cpr7Session9SetOptionERKNS_10UnixSocketE",
            "__ZNK4onnx26TensorShapeProto_Dimension18_InternalSerializeEPhPN6google8protobuf2io19EpsCopyOutputStreamE",
            "__ZN5kaldi15OnlineTransformC1ERKNS_10MatrixBaseIfEEPNS_22OnlineFeatureInterfaceE",
            "__ZNK7keenasr9ASRResult4TextEv",
            "__ZN4onnx17TrainingInfoProto9MergeFromERKS0_",
            "__ZN5kaldi22OnlineSilenceWeightingC2ERKNS_15TransitionModelERKNS_28OnlineSilenceWeightingConfigEi",
            "__ZN5kaldi18StringsApproxEqualERKNSt3__112basic_stringIcNS0_11char_traitsIcEENS0_9allocatorIcEEEES8_i",
            "__ZN5kaldi26OnlineNnet2FeaturePipelineD0Ev",
            "__ZN5kaldi5nnet330OutputGruNonlinearityComponent21FreezeNaturalGradientEb",
            "__ZN5kaldi5nnet325PerElementOffsetComponentC2ERKS1_",
            "__ZN4onnx22StringStringEntryProtoC1EPN6google8protobuf5ArenaEb",
            "__ZNK7Lexicon28MakeIncompletePronunciationsERKNSt3__112basic_stringIcNS0_11char_traitsIcEENS0_9allocatorIcEEEE",
            "__ZNK5kaldi5nnet330TimeHeightConvolutionComponent5WriteERNSt3__113basic_ostreamIcNS2_11char_traitsIcEEEEb",
            "_cst_wave_save_raw",
            "__ZNK3cpr6Cookie21IsIncludingSubdomainsEv",
            "__ZNK5kaldi17VectorClusterable5WriteERNSt3__113basic_ostreamIcNS1_11char_traitsIcEEEEb",
            "__ZN5kaldi5nnet318NonlinearComponent3AddEfRKNS0_9ComponentE",
            "__ZN3cpr5Files5beginEv",
            "_item_feat_int",
            "__ZN5kaldi5nnet38IndexSetC2ERKNS0_16ComputationGraphERKNSt3__16vectorINS0_23ComputationGraphBuilder10CindexInfoENS5_9allocatorIS8_EEEEib",
            "_curl_msnprintf",
            "_delete_track",
            "__ZNK5kaldi28OnlineIvectorEstimationStats4ObjfERKNS_10VectorBaseIdEE",
            "__ZNK5kaldi11ConstArpaLm5WriteERNSt3__113basic_ostreamIcNS1_11char_traitsIcEEEEb",
            "__ZN5kaldi5nnet316ComputationCacheC2Ei",
            "__ZN5kaldi5nnet316PermuteComponent4InitERKNSt3__16vectorIiNS2_9allocatorIiEEEE",
            "__ZN5kaldi26GetRandomAlignmentForPhoneERKNS_26ContextDependencyInterfaceERKNS_15TransitionModelERKNSt3__16vectorIiNS6_9allocatorIiEEEEPSA_",
            "__ZN5kaldi5nnet319ComputationExpander25ComputePrecomputedIndexesEv",
            "__ZN7keenasrneERKNS_6DeviceES2_",
            "_register_cmu_us_kal_phon",
            "__ZN5kaldi13MessageLoggerC1ENS_18LogMessageEnvelope8SeverityEPKcS4_i",
            "__ZNK5kaldi11HmmTopology16TopologyForPhoneEi",
            "__ZN3cpr14AcceptEncodingC2ERKSt16initializer_listINS_21AcceptEncodingMethodsEE",
            "__ZN4onnx18TypeProto_Sequence12InternalSwapEPS0_",
            "__ZNK5kaldi11ConstArpaLm10GetLmStateERKNSt3__16vectorIiNS1_9allocatorIiEEEE",
            "__ZNK4onnx26TensorShapeProto_Dimension13IsInitializedEv",
            "__ZN5kaldi7DiagGmm15CopyFromDiagGmmERKS0_",
            "__ZN5kaldi5nnet318CompositeComponent21SetActualLearningRateEf",
            "__ZN5kaldi5nnet316ConvertToIndexesERKNSt3__16vectorINS1_4pairIiiEENS1_9allocatorIS4_EEEEPiPNS2_IiNS5_IiEEEE",
            "__ZN5kaldi5nnet312NnetComputer20GetOutputDestructiveERKNSt3__112basic_stringIcNS2_11char_traitsIcEENS2_9allocatorIcEEEEPNS_8CuMatrixIfEE",
            "_cst_wave_load_riff",
            "_curl_mime_addpart",
            "__ZN5boost10filesystem4path5imbueERKNSt3__16localeE",
            "__ZNK5kaldi5nnet323RepeatedAffineComponent5WriteERNSt3__113basic_ostreamIcNS2_11char_traitsIcEEEEb",
            "__ZN3cpr7Session17SetAcceptEncodingEONS_14AcceptEncodingE",
            "__ZNK5kaldi5nnet328RestrictedAttentionComponent4InfoEv",
            "__ZN20KaldiNNet3RecognizerD1Ev",
            "__ZNK5kaldi5nnet312CindexHasherclERKNSt3__14pairIiNS0_5IndexEEE",
            "__ZN3cpr7Session8DownloadERNSt3__114basic_ofstreamIcNS1_11char_traitsIcEEEE",
            "__ZN4onnx13TypeProto_Map9_Internal10value_typeEPKS0_",
            "__ZNK5ngram12NGramContext10HasContextENSt3__16vectorIiNS1_9allocatorIiEEEEb",
            "_relation_tail",
            "__ZN7keenasr12NGramBuilder22GetFinalCountsFilenameERKNSt3__112basic_stringIcNS1_11char_traitsIcEENS1_9allocatorIcEEEE",
            "__ZNK5kaldi5nnet323time_height_convolution16ConvolutionModel5CheckEbb",
            "__ZN6google8protobuf5Arena18CreateMaybeMessageIN4onnx14AttributeProtoEJEEEPT_PS1_DpOT0_",
            "__ZNK5kaldi5nnet315NnetComputation5WriteERNSt3__113basic_ostreamIcNS2_11char_traitsIcEEEEb",
            "__ZNK7keenasr11ASRResponse9GetDeviceEv",
            "__ZNK5kaldi5nnet323ComputationGraphBuilder33ExplainWhyAllOutputsNotComputableEv",
            "__ZN5kaldi5nnet319PrintParameterStatsERNSt3__119basic_ostringstreamIcNS1_11char_traitsIcEENS1_9allocatorIcEEEERKNS1_12basic_stringIcS4_S6_EERKNS_8CuMatrixIfEEbbbb",
            "__ZN7keenasr13DecodingGraph31CreateDecodingGraphFromArpaFileERKNSt3__112basic_stringIcNS1_11char_traitsIcEENS1_9allocatorIcEEEERNS1_6vectorINS_24AlternativePronunciationENS5_ISB_EEEERKNS_10RecognizerES9_",
            "__ZNK5kaldi5nnet317ConstantComponent8BackpropERKNSt3__112basic_stringIcNS2_11char_traitsIcEENS2_9allocatorIcEEEEPKNS0_27ComponentPrecomputedIndexesERKNS_12CuMatrixBaseIfEESH_SH_PvPNS0_9ComponentEPSF_",
            "__ZNK5kaldi5nnet320ConvolutionComponent4InfoEv",
            "__ZN5kaldi5nnet338NaturalGradientRepeatedAffineComponent17ConsolidateMemoryEv",
            "__ZN4onnx10GraphProtoC1ERKS0_",
            "__ZN5kaldi5nnet324PerElementScaleComponent11UnVectorizeERKNS_10VectorBaseIfEE",
            "__ZNK5kaldi26OnlineNnet2FeaturePipeline11IsLastFrameEi",
            "_AECurrentTimeInHostTicks",
            "__ZN5kaldi5nnet315NnetComputation18ComputeCudaIndexesEv",
            "__ZN7keenasr10Recognizer12GetBuildHashEv",
            "__ZNK5kaldi5nnet320BlockAffineComponent4InfoEv",
            "__ZNK4onnx18TypeProto_Optional13IsInitializedEv",
            "__ZN5kaldi5nnet321DerivativeTimeLimiter22ComputeMatrixPruneInfoEv",
            "__ZN5kaldi8EventMap5WriteERNSt3__113basic_ostreamIcNS1_11char_traitsIcEEEEbPS0_",
            "_phone_feature_string",
            "_cmu_syl_boundary",
            "__ZN5kaldi12ParseOptions16RegisterSpecificERKNSt3__112basic_stringIcNS1_11char_traitsIcEENS1_9allocatorIcEEEES9_PbS9_b",
            "__ZNK7keenasr6Device6ToJsonEv",
            "_get_unit_size",
            "__ZNK5kaldi5nnet320FixedAffineComponent4InfoEv",
            "__ZNK5kaldi5nnet38Compiler25ComputeInputLocationsListEiiPNSt3__16vectorINS3_INS2_4pairIiiEENS2_9allocatorIS5_EEEENS6_IS8_EEEE",
            "__ZN5kaldi12ParseOptions16RegisterSpecificERKNSt3__112basic_stringIcNS1_11char_traitsIcEENS1_9allocatorIcEEEES9_PfS9_b",
            "__ZN3fst8internal15SymbolTableImpl8ReadTextERNSt3__113basic_istreamIcNS2_11char_traitsIcEEEERKNS2_12basic_stringIcS5_NS2_9allocatorIcEEEERKNS_22SymbolTableTextOptionsE",
            "__ZNK3cpr5Files4cendEv",
            "__ZNK5kaldi26OnlineNnet2FeaturePipeline18GetAdaptationStateEPNS_37OnlineIvectorExtractorAdaptationStateE",
            "__ZNK5ngram11NGramOutput14RandNGramModelExb",
            "__ZN5kaldi5nnet315NnetComputeProbC2ERKNS0_22NnetComputeProbOptionsERKNS0_4NnetE",
            "_cst_substr",
            "__ZNK5kaldi5nnet341GeneralDropoutComponentPrecomputedIndexes5WriteERNSt3__113basic_ostreamIcNS2_11char_traitsIcEEEEb",
            "_AEAudioBufferListSetLength",
            "__ZN5kaldi26OnlineNnet2FeaturePipelineC1ERKNS_30OnlineNnet2FeaturePipelineInfoE",
            "_curl_easy_reset",
            "__ZNK5kaldi14ArpaFileParser13LineReferenceEv",
            "_val_append",
            "__ZNK5kaldi5nnet319BinarySumDescriptor19GetNodeDependenciesEPNSt3__16vectorIiNS2_9allocatorIiEEEE",
            "__ZNK5kaldi5nnet318CompositeComponent11IsUpdatableEv",
            "__ZN5kaldi5nnet319ExampleMergingStats12WroteExampleEimi",
            "__ZN5kaldi30LatticeIncrementalDeterminizer12AddArcToClatEiRKN3fst6ArcTplINS1_23CompactLatticeWeightTplINS1_16LatticeWeightTplIfEEiEEEE",
            "__ZNK5kaldi15TransitionModel7IsFinalEi",
            "__ZNK5kaldi5nnet319SimpleSumDescriptor11WriteConfigERNSt3__113basic_ostreamIcNS2_11char_traitsIcEEEERKNS2_6vectorINS2_12basic_stringIcS5_NS2_9allocatorIcEEEENSA_ISC_EEEE",
            "_new_sts_list",
            "_val_breakfunc",
            "__ZN5kaldi5nnet315UnVectorizeNnetERKNS_10VectorBaseIfEEPNS0_4NnetE",
            "__ZNK5kaldi5nnet34Nnet4InfoEv",
            "__ZN5kaldi21IvectorExtractorStats20CommitStatsForWPointERKNS_16IvectorExtractorERKNS_30IvectorExtractorUtteranceStatsERKNS_10VectorBaseIdEEd",
            "__ZN5kaldi5nnet329StatisticsExtractionComponent14InitFromConfigEPNS_10ConfigLineE",
            "__ZNK5kaldi15TransitionModel25TransitionStateToHmmStateEi",
            "__ZNK5kaldi13GeneralMatrix19GetCompressedMatrixEv",
            "__ZNK5kaldi5nnet317SumGroupComponent9PropagateEPKNS0_27ComponentPrecomputedIndexesERKNS_12CuMatrixBaseIfEEPS6_",
            "__Z28dispatch_once_on_main_threadPlU13block_pointerFvvE",
            "__ZN3cpr7Session9SetOptionERKNS_10MultiRangeE",
            "__ZNK5kaldi5nnet326OffsetForwardingDescriptor15GetScaleForNodeEi",
            "__ZN5kaldi5nnet315NnetComputeProbD2Ev",
            "__ZN5kaldi5nnet36NnetIo4ReadERNSt3__113basic_istreamIcNS2_11char_traitsIcEEEEb",
            "_WebRtcSpl_ResetResample8khzTo48khz",
            "__ZN5kaldi15MergePosteriorsERKNSt3__16vectorINS1_INS0_4pairIifEENS0_9allocatorIS3_EEEENS4_IS6_EEEESA_bbPS8_",
            "__ZNK5kaldi5nnet36NnetIoeqERKS1_",
            "__ZN5kaldi30LatticeIncrementalDeterminizer14AddStateToClatEv",
            "_feat_set_string",
            "_feat_int",
            "__ZNK7keenasr11ASRResponse6ToJsonEv",
            "_AEFloatConverterFromFloatBufferList",
            "_val_greater",
            "__ZN5kaldi21IvectorExtractorStats20AccStatsForUtteranceERKNS_16IvectorExtractorERKNS_10MatrixBaseIfEERKNS_7FullGmmE",
            "__ZN4onnx13TypeProto_MapD1Ev",
            "__ZN5kaldi5nnet329StatisticsExtractionComponent4ReadERNSt3__113basic_istreamIcNS2_11char_traitsIcEEEEb",
            "__ZN4onnx22TypeProto_SparseTensorC1EPN6google8protobuf5ArenaEb",
            "__ZN5kaldi5nnet325LstmNonlinearityComponent4InitEibffff",
            "__ZN7keenasr11ASRResponseC1ERKNSt3__112basic_stringIcNS1_11char_traitsIcEENS1_9allocatorIcEEEES9_S9_S9_fb",
            "__ZN5kaldi14ArpaLmCompiler15HeaderAvailableEv",
            "__ZN5kaldi5nnet326EvaluateComputationRequestERKNS0_4NnetERKNS0_18ComputationRequestEPNSt3__16vectorINS8_IbNS7_9allocatorIbEEEENS9_ISB_EEEE",
            "__ZNK3cpr7Proxies3hasERKNSt3__112basic_stringIcNS1_11char_traitsIcEENS1_9allocatorIcEEEE",
            "__Z21CreateDisambigLexiconRKNSt3__14listI12LexiconEntryNS_9allocatorIS1_EEEERS4_RNS_6vectorIiNS2_IiEEEERN3fst11SymbolTableERNS_12basic_stringIcNS_11char_traitsIcEENS2_IcEEEE",
            "__ZN5kaldi27ConstArpaLmDeterministicFstC1ERKNS_11ConstArpaLmE",
            "__ZN5kaldi5nnet316PermuteComponent14InitFromConfigEPNS_10ConfigLineE",
            "__ZNK5kaldi5nnet324ComputationStepsComputer18ConvertToCindexIdsERKNSt3__16vectorINS2_4pairIiNS0_5IndexEEENS2_9allocatorIS6_EEEEPNS3_IiNS7_IiEEEE",
            "__ZNK5kaldi5nnet328SpecAugmentTimeMaskComponent4InfoEv",
            "__ZNK5kaldi5nnet34Nnet9OutputDimERKNSt3__112basic_stringIcNS2_11char_traitsIcEENS2_9allocatorIcEEEE",
            "__ZN5kaldi5nnet315LinearComponent4ReadERNSt3__113basic_istreamIcNS2_11char_traitsIcEEEEb",
            "__ZNK5kaldi5nnet311NnetExample5WriteERNSt3__113basic_ostreamIcNS2_11char_traitsIcEEEEb",
            "__ZN5kaldi13ComputeDeltasERKNS_20DeltaFeaturesOptionsERKNS_10MatrixBaseIfEEPNS_6MatrixIfEE",
            "__ZN5kaldi15TransitionModel15MleUpdateSharedERKNS_6VectorIdEERKNS_25MleTransitionUpdateConfigEPfS8_",
            "__ZNK4onnx18TypeProto_Sequence11GetTypeNameEv",
            "__ZN4onnx18TypeProto_Sequence14_InternalParseEPKcPN6google8protobuf8internal12ParseContextE",
            "__ZN5kaldi12ParseOptionsC2ERKNSt3__112basic_stringIcNS1_11char_traitsIcEENS1_9allocatorIcEEEEPNS_10OptionsItfE",
            "__ZN5kaldi5nnet330TimeHeightConvolutionComponent17ConsolidateMemoryEv",
            "__ZNK7keenasr11ASRResponse13SaveAudioFileERKNSt3__112basic_stringIcNS1_11char_traitsIcEENS1_9allocatorIcEEEE",
            "_cart_intonation",
            "__ZN7keenasr8Uploader6RunnerERKNSt3__112basic_stringIcNS1_11char_traitsIcEENS1_9allocatorIcEEEES9_",
            "__ZNK5kaldi5nnet321ConstantSumDescriptor15GetScaleForNodeEi",
            "__ZNK4onnx16TypeProto_Opaque13IsInitializedEv",
            "__ZN5kaldi21SolveQuadraticProblemIfEET_RKNS_8SpMatrixIS1_EERKNS_10VectorBaseIS1_EERKNS_13SolverOptionsEPS7_",
            "__ZN5kaldi5nnet330OutputGruNonlinearityComponent13PerturbParamsEf",
            "__ZN4onnx13OptionalProtoD2Ev",
            "__ZN5kaldi32MonophoneContextDependencySharedERKNSt3__16vectorINS1_IiNS0_9allocatorIiEEEENS2_IS4_EEEERKS4_",
            "__ZN5kaldi17ClusterKMeansOnceERKNSt3__16vectorIPNS_11ClusterableENS0_9allocatorIS3_EEEEiPS6_PNS1_IiNS4_IiEEEERNS_20ClusterKMeansOptionsE",
            "__ZN4onnx11TensorProtoD2Ev",
            "__ZN7keenasr12NGramBuilder15MergeCountsFstsERN3fst9VectorFstINS1_6ArcTplINS1_17TropicalWeightTplIfEEEENS1_11VectorStateIS6_NSt3__19allocatorIS6_EEEEEEPKNS1_10MutableFstIS6_EE",
            "__ZN5kaldi5nnet313ExampleMergerC1ERKNS0_20ExampleMergingConfigEPNS_11TableWriterINS_17KaldiObjectHolderINS0_11NnetExampleEEEEE",
            "__ZN7keenasr10RecognizerD2Ev",
            "__ZN5kaldi26OnlineNnet2FeaturePipeline12GetCmvnStateEPNS_15OnlineCmvnStateE",
            "__ZN5kaldi7DiagGmm11InterpolateEfRKS0_t",
            "__ZN5boost10filesystem6detail11dir_itr_impdlEPv",
            "__ZN5kaldi13ReadBasicTypeIfEEvRNSt3__113basic_istreamIcNS1_11char_traitsIcEEEEbPT_",
            "__ZNK5kaldi5nnet311NetworkNode3DimERKNS0_4NnetE",
            "__ZN4onnx18OperatorSetIdProtoC2EPN6google8protobuf5ArenaEb",
            "__ZN4onnx9TypeProto5ClearEv",
            "__ZN5kaldi10OnlineCmvn8GetFrameEiPNS_10VectorBaseIfEE",
            "__ZNK5kaldi5nnet328SpecAugmentTimeMaskComponent5WriteERNSt3__113basic_ostreamIcNS2_11char_traitsIcEEEEb",
            "__ZNK3cpr5Files5beginEv",
            "__ZN5kaldi5nnet313TdnnComponent19ModifyComputationIoEPNS0_23time_height_convolution24ConvolutionComputationIoE",
            "__ZNK5kaldi5nnet320ConvolutionComponent9VectorizeEPNS_10VectorBaseIfEE",
            "__ZNK5kaldi5nnet321ClipGradientComponent8BackpropERKNSt3__112basic_stringIcNS2_11char_traitsIcEENS2_9allocatorIcEEEEPKNS0_27ComponentPrecomputedIndexesERKNS_12CuMatrixBaseIfEESH_SH_PvPNS0_9ComponentEPSF_",
            "__ZN5kaldi5nnet38CompilerC2ERKNSt3__16vectorIPKNS0_18ComputationRequestENS2_9allocatorIS6_EEEERKNS0_4NnetE",
            "__ZNK5kaldi5nnet332ReplaceIndexForwardingDescriptor10MapToInputERKNS0_5IndexE",
            "__ZN5kaldi5nnet314MatrixIsUnusedERKNS0_8AnalyzerERKNS0_15NnetComputationEi",
            "__ZN4onnx13OptionalProto9_Internal14sequence_valueEPKS0_",
            "__ZN4onnx19TensorProto_Segment14_InternalParseEPKcPN6google8protobuf8internal12ParseContextE",
            "__ZNK3cpr7Cookies6cbeginEv",
            "__ZNK5kaldi5nnet316ComputationCache5CheckERKNS0_4NnetE",
            "_ffeature_int",
            "__ZN4onnx28TensorProto_DataType_IsValidEi",
            "__ZN7keenasreqERKNS_6DeviceES2_",
            "__ZN5kaldi5nnet327BackpropTruncationComponent4ReadERNSt3__113basic_istreamIcNS2_11char_traitsIcEEEEb",
            "__ZN4onnx18TypeProto_Sequence8CopyFromERKS0_",
            "__ZN5kaldi5nnet313TdnnComponent17ConsolidateMemoryEv",
            "__ZN5kaldi5nnet327ComponentPrecomputedIndexes7ReadNewERNSt3__113basic_istreamIcNS2_11char_traitsIcEEEEb",
            "_cst_fprintf",
            "__ZN5kaldi22ConvertPosteriorToPdfsERKNS_15TransitionModelERKNSt3__16vectorINS4_INS3_4pairIifEENS3_9allocatorIS6_EEEENS7_IS9_EEEEPSB_",
            "__ZN7keenasr12NGramBuilder23CreateNGramFromArpaFileERKNSt3__112basic_stringIcNS1_11char_traitsIcEENS1_9allocatorIcEEEERN3fst11SymbolTableES9_",
            "__ZN5kaldi10VectorBaseIfE6AddVecIfEEvfRKNS0_IT_EE",
            "__ZN5kaldi5nnet345BackpropTruncationComponentPrecomputedIndexes4ReadERNSt3__113basic_istreamIcNS2_11char_traitsIcEEEEb",
            "__ZNK4onnx13FunctionProto12ByteSizeLongEv",
            "_val_reverse",
            "__ZN3cpraNERNS_17PostRedirectFlagsES0_",
            "__ZN7keenasr6DeviceC2ERKNSt3__112basic_stringIcNS1_11char_traitsIcEENS1_9allocatorIcEEEES9_S9_S9_",
            "__ZN4onnx26TensorShapeProto_Dimension12InternalSwapEPS0_",
            "__ZN5kaldi5nnet317GeneralDescriptor10ParseRoundERKNSt3__16vectorINS2_12basic_stringIcNS2_11char_traitsIcEENS2_9allocatorIcEEEENS7_IS9_EEEEPPKS9_",
            "__ZNK5kaldi5nnet319FixedScaleComponent4CopyEv",
            "__ZNK7keenasr11ASRResponse12GetStartTimeEv",
            "_cst_filesize",
            "__ZN4onnx17TrainingInfoProtoC1ERKS0_",
            "_us_text_deinit",
            "__ZN4onnx18OperatorSetIdProto5ClearEv",
            "_WebRtcSpl_DivW32HiLow",
            "_cst_safe_calloc",
            "__ZN5kaldi5nnet320SetBatchnormTestModeEbPNS0_4NnetE",
            "__ZNK5kaldi28OnlineIvectorEstimationStats11DefaultObjfEv",
            "_us_aswd",
            "__ZNK3fst8internal15SymbolTableImpl22MaybeRecomputeCheckSumEv",
            "__ZNK4onnx18TypeProto_Sequence13SetCachedSizeEi",
            "__ZN3fst22SymbolTableTextOptionsC2Eb",
            "__ZN5kaldi18ExtractObjectRangeERKNS_13GeneralMatrixERKNSt3__112basic_stringIcNS3_11char_traitsIcEENS3_9allocatorIcEEEEPS0_",
            "__ZN5kaldi5nnet3lsERNSt3__113basic_ostreamIcNS1_11char_traitsIcEEEERKNS0_23ComputationGraphBuilder14ComputableInfoE",
            "__ZNK5kaldi5nnet317ConstantComponent10DotProductERKNS0_18UpdatableComponentE",
            "__ZN5G2PEs10DivideJoinERKNSt3__112basic_stringIcNS0_11char_traitsIcEENS0_9allocatorIcEEEE",
            "__ZN5kaldi5nnet325LstmNonlinearityComponent13PerturbParamsEf",
            "__ZN7Lexicon8TeardownEv",
            "_ffeature_float",
            "__ZNK5kaldi16IvectorExtractor21GetAcousticAuxfWeightERKNS_30IvectorExtractorUtteranceStatsERKNS_10VectorBaseIdEEPKNS_8SpMatrixIdEE",
            "__ZNK4onnx18TypeProto_Optional18_InternalSerializeEPhPN6google8protobuf2io19EpsCopyOutputStreamE",
            "__ZNK5kaldi5nnet325LstmNonlinearityComponent10DotProductERKNS0_18UpdatableComponentE",
            "__ZN3cpr7Session10SetTimeoutERKNS_7TimeoutE",
            "__ZN5kaldi5nnet327BackpropTruncationComponent14InitFromConfigEPNS_10ConfigLineE",
            "__ZN4onnx9NodeProtoC2EPN6google8protobuf5ArenaEb",
            "__ZN3cpr7Session21GetDownloadFileLengthEv",
            "__ZNK4onnx13SequenceProto12ByteSizeLongEv",
            "__ZN3fst36DeterminizeLatticePhonePrunedWrapperERKN5kaldi15TransitionModelEPNS_10MutableFstINS_6ArcTplINS_16LatticeWeightTplIfEEEEEEdPNS4_INS5_INS_23CompactLatticeWeightTplIS7_iEEEEEENS_36DeterminizeLatticePhonePrunedOptionsE",
            "__ZN4onnx9NodeProto8CopyFromERKS0_",
            "__ZN5kaldi13DiagGmmNormal15CopyFromDiagGmmERKNS_7DiagGmmE",
            "__ZN3cpreoENS_17PostRedirectFlagsES0_",
            "__ZN5boost10filesystem16filesystem_errorC1ERKNSt3__112basic_stringIcNS2_11char_traitsIcEENS2_9allocatorIcEEEERKNS0_4pathENS_6system10error_codeE",
            "__ZNK5kaldi5nnet330TimeHeightConvolutionComponent14ReorderIndexesEPNSt3__16vectorINS0_5IndexENS2_9allocatorIS4_EEEES8_",
            "_flite_path_to_item",
            "_flite_synth_text",
            "__ZNK4onnx14ValueInfoProto13IsInitializedEv",
            "__ZNK5kaldi16IvectorExtractor22GetIvectorDistributionERKNS_30IvectorExtractorUtteranceStatsEPNS_10VectorBaseIdEEPNS_8SpMatrixIdEE",
            "__ZN5kaldi5nnet316WriteIndexVectorERNSt3__113basic_ostreamIcNS1_11char_traitsIcEEEEbRKNS1_6vectorINS0_5IndexENS1_9allocatorIS8_EEEE",
            "_WebRtcVad_Init",
            "__ZN5kaldi5nnet323time_height_convolution24ConvolutionComputationIo4ReadERNSt3__113basic_istreamIcNS3_11char_traitsIcEEEEb",
            "__ZN4onnx32TensorProto_DataLocation_IsValidEi",
            "__ZN5boost10filesystem6detail18utf8_codecvt_facetD2Ev",
            "__ZN5kaldi15RecyclingVectorD1Ev",
            "__ZN3cpr7Session15PrepareDownloadERNSt3__114basic_ofstreamIcNS1_11char_traitsIcEEEE",
            "__ZN5kaldi5nnet317WriteVectorAsCharERNSt3__113basic_ostreamIcNS1_11char_traitsIcEEEEbRKNS_10VectorBaseIfEE",
            "_AEConvertFramesToSeconds",
            "__ZN5kaldi16WordBoundaryInfoC2ERKNS_20WordBoundaryInfoOptsE",
            "__ZN5kaldi5nnet320FixedAffineComponent4ReadERNSt3__113basic_istreamIcNS2_11char_traitsIcEEEEb",
            "__ZN5kaldi5nnet312NnetComputer9GetOutputERKNSt3__112basic_stringIcNS2_11char_traitsIcEENS2_9allocatorIcEEEE",
            "__ZN4onnx13SequenceProtoC2ERKS0_",
            "__ZNK5kaldi8MelBanks7ComputeERKNS_10VectorBaseIfEEPS2_",
            "__ZN4onnx13OptionalProto8CopyFromERKS0_",
            "__ZNK3cpr7Cookies5beginEv",
            "__ZNK4onnx17TrainingInfoProto13SetCachedSizeEi",
            "__ZN5kaldi12MfccComputerC2ERKNS_11MfccOptionsE",
            "__ZN5kaldi14ReadScriptFileERKNSt3__112basic_stringIcNS0_11char_traitsIcEENS0_9allocatorIcEEEEbPNS0_6vectorINS0_4pairIS6_S6_EENS4_ISB_EEEE",
            "__ZN5kaldi14ArpaLmCompiler12ConsumeNGramERKNS_5NGramE",
            "_feat_set_int",
            "__ZN5kaldi29ReadIntegerVectorVectorSimpleERKNSt3__112basic_stringIcNS0_11char_traitsIcEENS0_9allocatorIcEEEEPNS0_6vectorINS9_IiNS4_IiEEEENS4_ISB_EEEE",
            "__ZN5kaldi5nnet319DistributeComponent4InitEii",
            "__ZN5kaldi9NccfToPovEf",
            "_curl_url_strerror",
            "__ZN4onnx18TypeProto_Optional9MergeFromERKS0_",
            "__ZN3cpr5FilesC2ERKSt16initializer_listINSt3__112basic_stringIcNS2_11char_traitsIcEENS2_9allocatorIcEEEEE",
            "__ZN5kaldi5nnet313ExampleMerger14WriteMinibatchERKNSt3__16vectorINS0_11NnetExampleENS2_9allocatorIS4_EEEE",
            "_ts_get_stream_pos",
            "__ZN5kaldi16GaussClusterable3AddERKNS_11ClusterableE",
            "_curl_version",
            "__ZNK5kaldi5nnet315NnetComputeProb8GetDerivEv",
            "_item_append",
            "__ZN5kaldi5nnet315IoSpecification4ReadERNSt3__113basic_istreamIcNS2_11char_traitsIcEEEEb",
            "__ZN7keenasr12NGramBuilder23NormalizeAndSmoothNGramEPN3fst9VectorFstINS1_6ArcTplINS1_17TropicalWeightTplIfEEEENS1_11VectorStateIS6_NSt3__19allocatorIS6_EEEEEE",
            "__ZN5kaldi5nnet316ComputationGraph8RenumberEiRKNSt3__16vectorIbNS2_9allocatorIbEEEE",
            "__ZN5kaldi5nnet3lsERNSt3__113basic_ostreamIcNS1_11char_traitsIcEEEERKNS1_4pairIiNS0_5IndexEEE",
            "__ZN5kaldi5nnet325LstmNonlinearityComponentC2ERKS1_",
            "_AECBPeekContiguous",
            "__ZN4onnx13SequenceProto21CheckTypeAndMergeFromERKN6google8protobuf11MessageLiteE",
            "__ZNK5kaldi12ParseOptions6GetArgEi",
            "__ZN5boost10filesystem6detail32possible_large_file_size_supportEv",
            "__ZN4onnx9NodeProtoD2Ev",
            "_val_string_n",
            "__ZNK5kaldi5nnet319ComputationExpander24GetNewMatrixLocationInfoEii",
            "__ZNK5kaldi5nnet328RoundingForwardingDescriptor11WriteConfigERNSt3__113basic_ostreamIcNS2_11char_traitsIcEEEERKNS2_6vectorINS2_12basic_stringIcS5_NS2_9allocatorIcEEEENSA_ISC_EEEE",
            "__ZN5kaldi18FirstSampleOfFrameEiRKNS_22FrameExtractionOptionsE",
            "__ZN5kaldi5nnet319FixedScaleComponent14InitFromConfigEPNS_10ConfigLineE",
            "__ZN3fst16GetFarTypeStringENS_7FarTypeE",
            "__ZNK5kaldi5nnet325LstmNonlinearityComponent8InputDimEv",
            "__ZN3fst16ConcatPropertiesEyyb",
            "__ZN5kaldi5nnet332PrintVectorPerUpdatableComponentERKNS0_4NnetERKNS_10VectorBaseIfEE",
            "__ZN7keenasr6Device24InitOrCreateWithFiledataERKNSt3__112basic_stringIcNS1_11char_traitsIcEENS1_9allocatorIcEEEES9_S9_S9_S9_Pb",
            "__ZN4onnx9TypeProtoD0Ev",
            "_fsm_transition",
            "__ZN5kaldi21IvectorExtractorStats15CommitStatsForWERKNS_16IvectorExtractorERKNS_30IvectorExtractorUtteranceStatsERKNS_10VectorBaseIdEERKNS_8SpMatrixIdEE",
            "__ZNK5kaldi5nnet329StatisticsExtractionComponent9PropagateEPKNS0_27ComponentPrecomputedIndexesERKNS_12CuMatrixBaseIfEEPS6_",
            "__Z26core_FinalResponseCallbackPKN7keenasr10RecognizerEPNS_11ASRResponseE",
            "__ZN5kaldi5nnet312NnetComputerC1ERKNS0_18NnetComputeOptionsERKNS0_15NnetComputationEPNS0_4NnetES9_",
            "__ZN5boost10filesystem16filesystem_error14get_empty_pathEv",
            "__ZN5kaldi15TransitionModelC1ERKNS_26ContextDependencyInterfaceERKNS_11HmmTopologyE",
            "__ZN3fst8internal14DenseSymbolMap12InsertOrFindERKNSt3__112basic_stringIcNS2_11char_traitsIcEENS2_9allocatorIcEEEE",
            "__ZN5kaldi22TestWordAlignedLatticeERKN3fst9VectorFstINS0_6ArcTplINS0_23CompactLatticeWeightTplINS0_16LatticeWeightTplIfEEiEEEENS0_11VectorStateIS7_NSt3__19allocatorIS7_EEEEEERKNS_15TransitionModelERKNS_16WordBoundaryInfoESF_",
            "__ZN5kaldi5nnet318TarjanSccRecursiveEiRKNSt3__16vectorINS2_IiNS1_9allocatorIiEEEENS3_IS5_EEEEPiPNS2_INS0_10TarjanNodeENS3_ISB_EEEEPS5_PS7_",
            "__ZN3fst10StrToInt64ERKNSt3__112basic_stringIcNS0_11char_traitsIcEENS0_9allocatorIcEEEES8_mbPb",
            "_new_voice",
            "__ZNK5kaldi5nnet328SpecAugmentTimeMaskComponent9PropagateEPKNS0_27ComponentPrecomputedIndexesERKNS_12CuMatrixBaseIfEEPS6_",
            "__ZN5kaldi9ApplyCmvnERKNS_10MatrixBaseIdEEbPNS0_IfEE",
            "__ZN7Lexicon13CreateLexiconERKNSt3__112basic_stringIcNS0_11char_traitsIcEENS0_9allocatorIcEEEE",
            "__ZN5kaldi5nnet326ComputationLoopedOptimizer23ConvertListsToPairListsERKNSt3__16vectorINS3_IiNS2_9allocatorIiEEEENS4_IS6_EEEERKNS3_INS2_4pairIiiEENS4_ISC_EEEEPNS3_ISE_NS4_ISE_EEEE",
            "__ZNK5kaldi5nnet329DecodableNnetLoopedOnlineBase11IsLastFrameEi",
            "__ZNK5ngram11NGramOutput13ShowStringFstERKN3fst3FstINS1_6ArcTplINS1_17TropicalWeightTplIfEEEEEE",
            "_wave_val",
            "__ZN3cpr7Session11SetResolvesERKNSt3__16vectorINS_7ResolveENS1_9allocatorIS3_EEEE",
            "__ZN5kaldi17ComputeKaldiPitchERKNS_22PitchExtractionOptionsERKNS_10VectorBaseIfEEPNS_6MatrixIfEE",
            "__ZN5kaldi5nnet321ComputationRenumberer17CreateRenumberingERKNSt3__16vectorIbNS2_9allocatorIbEEEEPNS3_IiNS4_IiEEEE",
            "_curl_mime_data_cb",
            "__ZN5kaldi37OnlineIvectorExtractorAdaptationStateC2ERKS0_",
            "__ZN5kaldi5nnet320ConvolutionComponent4ReadERNSt3__113basic_istreamIcNS2_11char_traitsIcEEEEb",
            "__ZN3cpr7Session9SetOptionERKNS_9InterfaceE",
            "_curl_strnequal",
            "__ZNK5kaldi5nnet324GruNonlinearityComponent8InputDimEv",
            "__ZN5kaldi28OnlineIvectorEstimationStats8AccStatsERKNS_16IvectorExtractorERKNS_10MatrixBaseIfEERKNSt3__16vectorINS9_INS8_4pairIifEENS8_9allocatorISB_EEEENSC_ISE_EEEE",
            "__ZN5G2PEs19DivideGroupSyllableERKNSt3__112basic_stringIcNS0_11char_traitsIcEENS0_9allocatorIcEEEE",
            "__ZN5kaldi11RandomStateC1Ev",
            "__ZN3cproRERNS_17PostRedirectFlagsES0_",
            "__ZNK5kaldi5nnet315AffineComponent5WriteERNSt3__113basic_ostreamIcNS2_11char_traitsIcEEEEb",
            "__ZN5kaldi5nnet326ComputationLoopedOptimizer17CreateMatrixPairsERKNS0_15NnetComputationEPNSt3__16vectorINS5_4pairIiiEENS5_9allocatorIS8_EEEE",
            "__ZN5kaldi5nnet34Nnet10ReadConfigERNSt3__113basic_istreamIcNS2_11char_traitsIcEEEE",
            "__ZN3cpr8CertInfo3endEv",
            "__ZN7keenasr13DecodingGraph30CreateDecodingGraphFromPhrasesERKNSt3__16vectorINS1_12basic_stringIcNS1_11char_traitsIcEENS1_9allocatorIcEEEENS6_IS8_EEEERNS2_INS_24AlternativePronunciationENS6_ISD_EEEERKNS_12SpeakingTaskERKNS_10RecognizerERKS8_f",
            "__ZN5kaldi5nnet316ComputationCacheD1Ev",
            "__Z10CreateLFstP7LexiconRN3fst9VectorFstINS1_6ArcTplINS1_17TropicalWeightTplIfEEEENS1_11VectorStateIS6_NSt3__19allocatorIS6_EEEEEERNS8_6vectorIiNS9_IiEEEERKNS8_12basic_stringIcNS8_11char_traitsIcEENS9_IcEEEESO_",
            "__ZN5kaldi16ConstantEventMap4ReadERNSt3__113basic_istreamIcNS1_11char_traitsIcEEEEb",
            "__ZN5kaldi5nnet315NnetIsRecurrentERKNS0_4NnetE",
            "__ZN5kaldi5nnet318BatchNormComponent14ComputeDerivedEv",
            "__ZN5kaldi31ClusterEventMapRestrictedByKeysERKNS_8EventMapERKNSt3__16vectorINS3_4pairINS4_INS5_IiiEENS3_9allocatorIS6_EEEEPNS_11ClusterableEEENS7_ISC_EEEEfRKNS4_IiNS7_IiEEEEPi",
            "__ZN4onnx13FunctionProtoC1ERKS0_",
            "__ZN4onnx18TypeProto_SequenceD0Ev",
            "__ZN5kaldi13FbankComputerC1ERKNS_12FbankOptionsE",
            "__ZNK4onnx13TypeProto_Map11GetTypeNameEv",
            "_delete_phoneset",
            "__ZN5kaldi24ComputeAcousticScoresMapERKN3fst9VectorFstINS0_6ArcTplINS0_16LatticeWeightTplIfEEEENS0_11VectorStateIS5_NSt3__19allocatorIS5_EEEEEEPNS7_13unordered_mapINS7_4pairIiiEENSF_IfiEENS_10PairHasherIiiEENS7_8equal_toISG_EENS8_INSF_IKSG_SH_EEEEEE",
            "__ZN5kaldi5nnet315LinearComponent21FreezeNaturalGradientEb",
            "__ZN4onnx26TensorShapeProto_Dimension9MergeFromERKS0_",
            "_curl_multi_assign",
            "__ZN5kaldi5nnet328SpecAugmentTimeMaskComponentC1ERKS1_",
            "__ZN3cpr16GlobalThreadPool12ExitInstanceEv",
            "__ZNK5kaldi13TableEventMap5PruneEv",
            "__ZN5kaldi17BottomUpClusterer8CanMergeEiif",
            "__ZNK4onnx10GraphProto13IsInitializedEv",
            "__ZNK4onnx13TypeProto_Map18_InternalSerializeEPhPN6google8protobuf2io19EpsCopyOutputStreamE",
            "__ZN5kaldi12ParseOptions9SetOptionERKNSt3__112basic_stringIcNS1_11char_traitsIcEENS1_9allocatorIcEEEES9_b",
            "__ZN3cpr14AcceptEncodingC2ERKSt16initializer_listINSt3__112basic_stringIcNS2_11char_traitsIcEENS2_9allocatorIcEEEEE",
            "__ZNK4onnx17TrainingInfoProto18_InternalSerializeEPhPN6google8protobuf2io19EpsCopyOutputStreamE",
            "__ZN5kaldi5nnet313TanhComponent10StoreStatsERKNS_12CuMatrixBaseIfEES5_Pv",
            "__ZN5kaldi5nnet311NnetExample8CompressEv",
            "_val_delete_phoneset",
            "__ZN5kaldi5nnet321OnlineNaturalGradient15SetUpdatePeriodEi",
            "__ZN3fst14FstReadOptionsC2ERKNSt3__112basic_stringIcNS1_11char_traitsIcEENS1_9allocatorIcEEEEPKNS_9FstHeaderEPKNS_11SymbolTableESF_",
            "__ZN5kaldi5nnet325CachingOptimizingCompiler18CompileViaShortcutERKNS0_18ComputationRequestE",
            "__ZN5kaldi21IvectorExtractorStats19CommitStatsForPriorERKNS_10VectorBaseIdEERKNS_8SpMatrixIdEE",
            "__ZN5boost10filesystem6detail15path_algorithms14lex_compare_v3ENS0_11path_detail13path_iteratorERKS4_S4_S6_",
            "__ZN5kaldi5nnet338NaturalGradientRepeatedAffineComponentC2ERKS1_",
            "__ZNK3cpr6Cookie7GetPathEv",
            "__ZN5kaldi5nnet315LinearComponentC1ERKS1_",
            "__ZN5kaldi10RandGauss2EPdS0_PNS_11RandomStateE",
            "__ZN5boost10filesystem6detail15last_write_timeERKNS0_4pathEPNS_6system10error_codeE",
            "__ZNK5kaldi15TransitionModel10CompatibleERKS0_",
            "__ZNK5kaldi5nnet321ClipGradientComponent4InfoEv",
            "__ZNK5kaldi5nnet329StatisticsExtractionComponent12IsComputableERKNS0_19MiscComputationInfoERKNS0_5IndexERKNS0_8IndexSetEPNSt3__16vectorIS5_NSB_9allocatorIS5_EEEE",
            "__ZNK5kaldi5nnet330OutputGruNonlinearityComponent8BackpropERKNSt3__112basic_stringIcNS2_11char_traitsIcEENS2_9allocatorIcEEEEPKNS0_27ComponentPrecomputedIndexesERKNS_12CuMatrixBaseIfEESH_SH_PvPNS0_9ComponentEPSF_",
            "__ZN5kaldi5nnet318NonlinearComponent5ScaleEf",
            "__ZN4onnx16TypeProto_OpaqueC2ERKS0_",
            "__ZN5kaldi11TreeClusterERKNSt3__16vectorIPNS_11ClusterableENS0_9allocatorIS3_EEEEiPS6_PNS1_IiNS4_IiEEEESC_PiNS_18TreeClusterOptionsE",
            "_val_relation",
            "__ZNK5kaldi5nnet332ReplaceIndexForwardingDescriptor4CopyEv",
            "__ZN5kaldi5nnet338NaturalGradientRepeatedAffineComponent25SetNaturalGradientConfigsEv",
            "__ZN3fst9IsSTTableERKNSt3__112basic_stringIcNS0_11char_traitsIcEENS0_9allocatorIcEEEE",
            "__ZN5kaldi5nnet328SpecAugmentTimeMaskComponent4ReadERNSt3__113basic_istreamIcNS2_11char_traitsIcEEEEb",
            "__ZN5kaldi8SumStatsERKNSt3__16vectorINS0_4pairINS1_INS2_IiiEENS0_9allocatorIS3_EEEEPNS_11ClusterableEEENS4_IS9_EEEE",
            "__ZNK5kaldi21IvectorExtractorStats5WriteERNSt3__113basic_ostreamIcNS1_11char_traitsIcEEEEb",
            "__ZN5kaldi5nnet317UtteranceSplitter18DistributeRandomlyEiRKNSt3__16vectorIiNS2_9allocatorIiEEEEPS6_",
            "__ZN5kaldi5nnet328RestrictedAttentionComponent10StoreStatsERKNS_12CuMatrixBaseIfEES5_Pv",
            "__ZN3cpr9MultipartC2ERKSt16initializer_listINS_4PartEE",
            "__ZN4onnx13SequenceProtoD1Ev",
            "__ZNK7keenasr9ASRResult17GetSpeechSegmentsEv",
            "__ZNK4onnx11TensorProto12ByteSizeLongEv",
            "__ZN5boost10filesystem6detail15path_algorithms12decrement_v4ERNS0_11path_detail13path_iteratorE",
            "__ZN7keenasr12NGramBuilder19GetNGramFstFilenameERKNSt3__112basic_stringIcNS1_11char_traitsIcEENS1_9allocatorIcEEEE",
            "_AEAudioControllerAudioDescription",
            "__ZN5kaldi5nnet339NaturalGradientPerElementScaleComponent6UpdateERKNSt3__112basic_stringIcNS2_11char_traitsIcEENS2_9allocatorIcEEEERKNS_12CuMatrixBaseIfEESE_",
            "__ZNK5ngram11NGramOutput15SetInitRandProbEiiPd",
            "_curl_multi_get_handles",
            "__ZN3fst24CastOrConvertToVectorFstEPNS_3FstINS_6ArcTplINS_17TropicalWeightTplIfEEEEEE",
            "_itemfunc_val",
            "__ZN5kaldi5nnet320ConvolutionComponent3AddEfRKNS0_9ComponentE",
            "__ZN3cpr7Session9SetOptionERKNS_14AuthenticationE",
            "__ZN5kaldi5nnet325DecodableNnetLoopedOnline13LogLikelihoodEii",
            "_cst_errmsg",
            "__ZN6google8protobuf5Arena18CreateMaybeMessageIN4onnx16TensorAnnotationEJEEEPT_PS1_DpOT0_",
            "__ZN5kaldi5nnet316ComputationCache4ReadERNSt3__113basic_istreamIcNS2_11char_traitsIcEEEEb",
            "_cst_utf8_explode",
            "__ZN5kaldi12ParseOptions16NormalizeArgNameEPNSt3__112basic_stringIcNS1_11char_traitsIcEENS1_9allocatorIcEEEE",
            "__ZNK5kaldi5nnet329StatisticsExtractionComponent5CheckEv",
            "__ZNK5kaldi5nnet313TanhComponent8BackpropERKNSt3__112basic_stringIcNS2_11char_traitsIcEENS2_9allocatorIcEEEEPKNS0_27ComponentPrecomputedIndexesERKNS_12CuMatrixBaseIfEESH_SH_PvPNS0_9ComponentEPSF_",
            "__ZN5kaldi5nnet319IdentifyIndexesArgsEPNSt3__16vectorINS0_15NnetComputation7CommandENS1_9allocatorIS4_EEEEPNS2_IPiNS5_IS9_EEEE",
            "__ZN5kaldi5nnet39CindexSetC1ERKNS0_16ComputationGraphERKNSt3__16vectorINS0_23ComputationGraphBuilder10CindexInfoENS5_9allocatorIS8_EEEEb",
            "__ZN7keenasr15RemoveDirectoryERKNSt3__112basic_stringIcNS0_11char_traitsIcEENS0_9allocatorIcEEEEb",
            "__ZN7keenasr8MoveFileERKNSt3__112basic_stringIcNS0_11char_traitsIcEENS0_9allocatorIcEEEES8_",
            "__ZNK3fst18GrammarFstPreparer12IsEntryStateEi",
            "__ZN5kaldi5nnet312AmNnetSimple10SetContextEv",
            "_set_car",
            "__ZNK5kaldi7DiagGmm22ComponentLogLikelihoodERKNS_10VectorBaseIfEEi",
            "__ZN4onnx13OptionalProto9_Internal19sparse_tensor_valueEPKS0_",
            "_val_delete_relation",
            "__ZNK5kaldi5nnet320ConvolutionComponent23InderivPatchesToInderivERKNS_8CuMatrixIfEEPNS_12CuMatrixBaseIfEE",
            "__ZN5kaldi5nnet312NnetComputer18DebugBeforeExecuteEiPNS1_16CommandDebugInfoE",
            "__ZN5kaldi6OutputC1ERKNSt3__112basic_stringIcNS1_11char_traitsIcEENS1_9allocatorIcEEEEbb",
            "__ZN5kaldi12MfccComputerC2ERKS0_",
            "_curl_free",
            "__ZNK4onnx8MapProto18_InternalSerializeEPhPN6google8protobuf2io19EpsCopyOutputStreamE",
            "__ZN5kaldi7DiagGmm11InterpolateEfRKNS_7FullGmmEt",
            "__ZN3cpr7Session8CompleteE8CURLcode",
            "__Z20tokenize_utf8_stringPNSt3__112basic_stringIcNS_11char_traitsIcEENS_9allocatorIcEEEES6_",
            "_get_sts_residual",
            "__ZN5kaldi5nnet320FixedAffineComponentC1ERKNS0_15AffineComponentE",
            "__ZNK3fst18GrammarFstPreparer12NeedEpsilonsEi",
            "_curl_mime_filedata",
            "__Z19CreateDecodingGraphP7LexiconRKN3fst9VectorFstINS1_6ArcTplINS1_17TropicalWeightTplIfEEEENS1_11VectorStateIS6_NSt3__19allocatorIS6_EEEEEEPKvRKNS8_12basic_stringIcNS8_11char_traitsIcEENS9_IcEEEESN_SN_",
            "__ZN5kaldi10OnlineCmvnC2ERKNS_17OnlineCmvnOptionsERKNS_15OnlineCmvnStateEPNS_22OnlineFeatureInterfaceE",
            "__ZN5kaldi5nnet324ComputeObjectiveFunctionERKNS_13GeneralMatrixENS0_13ObjectiveTypeERKNSt3__112basic_stringIcNS5_11char_traitsIcEENS5_9allocatorIcEEEEbPNS0_12NnetComputerEPfSG_",
            "__ZN5kaldi5nnet323ComputationGraphBuilder20UpdateComputableInfoEi",
            "__ZN4onnx14AttributeProtoD0Ev",
            "__ZN5kaldi5nnet323ModifyNnetIvectorPeriodEiPNS0_4NnetE",
            "__ZNK5kaldi5nnet315LinearComponent13NumParametersEv",
            "__ZN5G2PEsC2Ev",
            "__ZN5kaldi6Output6StreamEv",
            "_MlasConvSymDepthwiseKernelSize9Arm64U8S8",
            "__ZN5kaldi5nnet324ComputationStepsComputer23ProcessDimRangeSubPhaseERKNSt3__16vectorINS2_4pairIiNS0_5IndexEEENS2_9allocatorIS6_EEEE",
            "__ZN5kaldi5nnet312NnetComputer12AcceptInputsERKNS0_4NnetERKNSt3__16vectorINS0_6NnetIoENS5_9allocatorIS7_EEEE",
            "__ZNK5kaldi21IvectorExtractorStats16UpdateProjectionERKNS_33IvectorExtractorEstimationOptionsEiPNS_16IvectorExtractorE",
            "__ZNK4onnx16TensorAnnotation12ByteSizeLongEv",
            "__ZN7keenasr22PronunciationEvaluator17CreateSausagesFstERKNSt3__16vectorINS2_INS1_4pairIifEENS1_9allocatorIS4_EEEENS5_IS7_EEEE",
            "_ts_open",
            "__ZN7keenasr10Recognizer27ResultContainsTriggerPhraseEPKNS_9ASRResultE",
            "__ZN5kaldi5nnet323time_height_convolution16ConvolutionModel14ComputeDerivedEv",
            "__ZN5boost10filesystem6detail11resize_fileERKNS0_4pathEmPNS_6system10error_codeE",
            "_curl_multi_wait",
            "__ZNK5kaldi5nnet317GeneralDescriptor14NumAppendTermsEv",
            "__ZN4onnx9NodeProto14_InternalParseEPKcPN6google8protobuf8internal12ParseContextE",
            "__ZN5kaldi17BottomUpClusterer19SetInitialDistancesEv",
            "__ZN5kaldi5nnet315AffineComponent9SetParamsERKNS_12CuVectorBaseIfEERKNS_12CuMatrixBaseIfEE",
            "__ZN3cpr7Session9SetOptionERKNS_14AcceptEncodingE",
            "__ZN7keenasr13DecodingGraph44GetRescoringLMFilepathForDecodingGraphAtPathERKNSt3__112basic_stringIcNS1_11char_traitsIcEENS1_9allocatorIcEEEE",
            "__ZNK5kaldi5nnet320ExampleMergingConfig13MinibatchSizeEiib",
            "__ZNK4onnx13SequenceProto13SetCachedSizeEi",
            "__ZN5kaldi5nnet319PrintMatrixAccessesERNSt3__113basic_ostreamIcNS1_11char_traitsIcEEEERKNS1_6vectorINS0_14MatrixAccessesENS1_9allocatorIS8_EEEE",
            "__ZN5kaldi5nnet323RepeatedAffineComponent14InitFromConfigEPNS_10ConfigLineE",
            "__ZN5ngram12NGramContext20ParseContextIntervalERKNSt3__112basic_stringIcNS1_11char_traitsIcEENS1_9allocatorIcEEEEPNS1_6vectorIiNS5_IiEEEESD_",
            "__ZN5kaldi16WordBoundaryInfoC2ERKNS_23WordBoundaryInfoNewOptsE",
            "__ZN5kaldi5nnet315AffineComponent3AddEfRKNS0_9ComponentE",
            "_feat_print_flite",
            "__ZNK5kaldi5nnet318NormalizeComponent9PropagateEPKNS0_27ComponentPrecomputedIndexesERKNS_12CuMatrixBaseIfEEPS6_",
            "__ZN5kaldi10OnlineCmvnC2ERKNS_17OnlineCmvnOptionsEPNS_22OnlineFeatureInterfaceE",
            "__ZNK5kaldi5nnet34Nnet14GetConfigLinesEbPNSt3__16vectorINS2_12basic_stringIcNS2_11char_traitsIcEENS2_9allocatorIcEEEENS7_IS9_EEEE",
            "__ZN5kaldi5nnet323ReplaceRowWithMatrixOpsEPNS0_15NnetComputationE",
            "__ZN5kaldi5nnet323ComputationGraphBuilderC2ERKNS0_4NnetEPNS0_16ComputationGraphE",
            "__ZNK5kaldi5nnet323RepeatedAffineComponent9PropagateEPKNS0_27ComponentPrecomputedIndexesERKNS_12CuMatrixBaseIfEEPS6_",
            "__ZN5kaldi14WriteBasicTypeIfEEvRNSt3__113basic_ostreamIcNS1_11char_traitsIcEEEEbT_",
            "__ZNK5kaldi5nnet318CompositeComponent8BackpropERKNSt3__112basic_stringIcNS2_11char_traitsIcEENS2_9allocatorIcEEEEPKNS0_27ComponentPrecomputedIndexesERKNS_12CuMatrixBaseIfEESH_SH_PvPNS0_9ComponentEPSF_",
            "_val_member",
            "__ZN5kaldi5nnet339NaturalGradientPerElementScaleComponentC1ERKS1_",
            "__ZN5kaldi5nnet319ComputeTopSortOrderERKNSt3__16vectorINS2_IiNS1_9allocatorIiEEEENS3_IS5_EEEEPS5_",
            "__ZN5kaldi5nnet315IoSpecification4SwapEPS1_",
            "__ZN3fst21CompositeWeightWriter8WriteEndEv",
            "__ZN3cpr7Session8DownloadERKNS_13WriteCallbackE",
            "__ZN5kaldi5nnet318FixedBiasComponent4InitERKNS_12CuVectorBaseIfEE",
            "__ZNK4onnx14AttributeProto18_InternalSerializeEPhPN6google8protobuf2io19EpsCopyOutputStreamE",
            "_val_delete_cart",
            "__ZN5kaldi13SplitEventMap5WriteERNSt3__113basic_ostreamIcNS1_11char_traitsIcEEEEb",
            "__ZN5kaldi5nnet327ConvertAdditionToAssignmentERKNS0_4NnetEPNS0_15NnetComputationE",
            "__ZN5kaldi5nnet311NetworkNodeC1ERKS1_",
            "__ZN5kaldi5nnet319ComputationExpander22ExpandRowsMultiCommandERKNS0_15NnetComputation7CommandEPS3_",
            "__ZN5kaldi20ComputeShiftedDeltasERKNS_27ShiftedDeltaFeaturesOptionsERKNS_10MatrixBaseIfEEPNS_6MatrixIfEE",
            "__ZN3cpr7Session12SetLimitRateERKNS_9LimitRateE",
            "__ZN4onnx17TrainingInfoProto21CheckTypeAndMergeFromERKN6google8protobuf11MessageLiteE",
            "__ZNK5kaldi5nnet326StatisticsPoolingComponent5CheckEv",
            "__ZN5kaldi5nnet320ComputationVariables28ComputeVariablesForSubmatrixERKNS0_15NnetComputationE",
            "__ZN5kaldi5nnet317GeneralDescriptor17ParseReplaceIndexERKNSt3__16vectorINS2_12basic_stringIcNS2_11char_traitsIcEENS2_9allocatorIcEEEENS7_IS9_EEEEPPKS9_",
            "_WebRtcSpl_Resample48khzTo8khz",
            "__ZNK5kaldi18OnlinePitchFeature19FrameShiftInSecondsEv",
            "__ZN5kaldi9TraceSpSpERKNS_8SpMatrixIdEES3_",
            "__ZN5kaldi20OnlineIvectorFeatureD1Ev",
            "__ZNK4onnx14AttributeProto12ByteSizeLongEv",
            "__ZN5kaldi5nnet338NaturalGradientRepeatedAffineComponent6UpdateERKNS_12CuMatrixBaseIfEES5_",
            "__ZNK5kaldi5nnet315AffineComponent4CopyEv",
            "__ZN5kaldi13GeneralMatrix20SwapCompressedMatrixEPNS_16CompressedMatrixE",
            "__ZN3fst11IsFstHeaderERNSt3__113basic_istreamIcNS0_11char_traitsIcEEEERKNS0_12basic_stringIcS3_NS0_9allocatorIcEEEE",
            "__ZN15KaldiRecognizerD0Ev",
            "__ZN20KaldiNNet3Recognizer12InitPipelineEv",
            "__ZN3cpr4util9urlEncodeERKNSt3__112basic_stringIcNS1_11char_traitsIcEENS1_9allocatorIcEEEE",
            "__ZN5kaldi5nnet330OutputGruNonlinearityComponentC2ERKS1_",
            "__ZNK5kaldi5nnet320BlockAffineComponent13NumParametersEv",
            "__ZN5kaldi5nnet314MatrixExtender14ExtendMatricesEv",
            "__ZNK4onnx16TypeProto_Opaque11GetTypeNameEv",
            "_flite_init",
            "__ZN5kaldi8WithProbEfPNS_11RandomStateE",
            "__ZNK5kaldi5nnet319FixedScaleComponent8BackpropERKNSt3__112basic_stringIcNS2_11char_traitsIcEENS2_9allocatorIcEEEEPKNS0_27ComponentPrecomputedIndexesERKNS_12CuMatrixBaseIfEESH_SH_PvPNS0_9ComponentEPSF_",
            "__ZN5kaldi25ReadSymbolTableAsIntegersENSt3__112basic_stringIcNS0_11char_traitsIcEENS0_9allocatorIcEEEEbPNS0_6vectorIiNS4_IiEEEE",
            "__ZN5kaldi10OnlineCmvnC1ERKNS_17OnlineCmvnOptionsERKNS_15OnlineCmvnStateEPNS_22OnlineFeatureInterfaceE",
            "__ZN5kaldi17ScalarClusterable4ReadERNSt3__113basic_istreamIcNS1_11char_traitsIcEEEEb",
            "_ph_vfront",
            "_flite_feat_set_int",
            "__ZNK5kaldi22OnlinePitchFeatureImpl11IsLastFrameEi",
            "__ZN6google8protobuf5Arena18CreateMaybeMessageIN4onnx18OperatorSetIdProtoEJEEEPT_PS1_DpOT0_",
            "__Z39ReadCircularBufferSamplesWithoutAdvanceP14CircularBufferPci",
            "_cst_ulaw_to_short",
            "__ZNK5kaldi5nnet318FixedBiasComponent4InfoEv",
            "_flite_voice_select",
            "__ZN5kaldi5nnet317ConstantComponent17ConsolidateMemoryEv",
            "__ZN5kaldi5nnet321ConstantSumDescriptorC1Efi",
            "__ZN5kaldi13GeneralMatrix5ScaleEf",
            "__ZNK5kaldi5nnet320FixedAffineComponent4CopyEv",
            "__ZN5kaldi17VectorClusterable3AddERKNS_11ClusterableE",
            "__ZN5kaldi5nnet317SumBlockComponentC2ERKS1_",
            "__ZNK5kaldi5nnet330TimeHeightConvolutionComponent9OutputDimEv",
            "__ZN5kaldi5nnet327ElementwiseProductComponent4InitEii",
            "__ZNK5kaldi5nnet314MaxChangeStats5PrintERKNS0_4NnetE",
            "__ZNK5kaldi5nnet317UtteranceSplitter12LengthsMatchERKNSt3__112basic_stringIcNS2_11char_traitsIcEENS2_9allocatorIcEEEEiii",
            "__ZN5kaldi5nnet323time_height_convolution22ConvolutionComputation14ComputeDerivedEv",
            "_curl_unescape",
            "__ZN5kaldi20OnlineIvectorFeature8GetFrameEiPNS_10VectorBaseIfEE",
            "__ZN5kaldi5nnet315NnetComputationD2Ev",
            "__ZNK5kaldi5nnet327DecodableAmOnnxLoopedOnline10NumIndicesEv",
            "_item_feat_remove",
            "__ZN4onnx16TypeProto_TensorC2ERKS0_",
            "__ZN4onnx18TypeProto_Optional9_Internal9elem_typeEPKS0_",
            "__ZN5kaldi5nnet330TimeHeightConvolutionComponent21FreezeNaturalGradientEb",
            "__ZN4onnx13TypeProto_Map9MergeFromERKS0_",
            "__Z26core_StopListeningCallbackv",
            "__ZN3cpr7Session10PatchAsyncEv",
            "__ZN5kaldi5nnet324GruNonlinearityComponent13PerturbParamsEf",
            "_val_uttfunc",
            "__ZN5kaldi5nnet324ComputeCommandAttributesERKNS0_4NnetERKNS0_15NnetComputationERKNS0_20ComputationVariablesEPNSt3__16vectorINS0_17CommandAttributesENSA_9allocatorISC_EEEE",
            "__ZN5kaldi30LatticeIncrementalDeterminizer4InitEv",
            "__ZNK5kaldi5nnet319MaxpoolingComponent8BackpropERKNSt3__112basic_stringIcNS2_11char_traitsIcEENS2_9allocatorIcEEEEPKNS0_27ComponentPrecomputedIndexesERKNS_12CuMatrixBaseIfEESH_SH_PvPNS0_9ComponentEPSF_",
            "__ZNK5kaldi5nnet38Compiler31ComputeDerivSubmatLocationsListERKNSt3__16vectorINS3_INS2_4pairIiiEENS2_9allocatorIS5_EEEENS6_IS8_EEEEPSA_",
            "__ZN5kaldi5nnet321ClipGradientComponent5ScaleEf",
            "_utt_wave",
            "__ZN5boost10filesystem6detail9copy_fileERKNS0_4pathES4_NS0_12copy_optionsEPNS_6system10error_codeE",
            "__ZN5kaldi5nnet325LstmNonlinearityComponent4ReadERNSt3__113basic_istreamIcNS2_11char_traitsIcEEEEb",
            "__ZN5kaldi7FullGmm5SplitEifPNSt3__16vectorIiNS1_9allocatorIiEEEE",
            "__ZN4onnx22StringStringEntryProto12InternalSwapEPS0_",
            "_utt_set_input_text",
            "__ZN7keenasr13TempDirectoryC2ERKNSt3__112basic_stringIcNS1_11char_traitsIcEENS1_9allocatorIcEEEE",
            "__ZN3cpr7Session9interceptEv",
            "__ZN3cpr4util18headerUserFunctionEPcmmPKNS_14HeaderCallbackE",
            "__ZNK5kaldi37OnlineIvectorExtractorAdaptationState5WriteERNSt3__113basic_ostreamIcNS1_11char_traitsIcEEEEb",
            "__ZN7keenasr22PronunciationEvaluatorC2EPN5kaldi15TransitionModelE",
            "_item_add_daughter",
            "__ZNK5kaldi5nnet327DecodableAmOnnxLoopedOnline14NumFramesReadyEv",
            "__ZNK5kaldi5nnet315LinearComponent9VectorizeEPNS_10VectorBaseIfEE",
            "__ZN3cpr7Session8SetRangeERKNS_5RangeE",
            "_utt_init",
            "_AEAudioBufferListCreate",
            "__ZN6google8protobuf5Arena18CreateMaybeMessageIN4onnx9TypeProtoEJEEEPT_PS1_DpOT0_",
            "_val_delete_cg_db",
            "__ZN5kaldi5nnet311NnetTrainerC1ERKNS0_18NnetTrainerOptionsEPNS0_4NnetE",
            "__ZN6google8protobuf5Arena18CreateMaybeMessageIN4onnx9NodeProtoEJEEEPT_PS1_DpOT0_",
            "__ZN5kaldi16GetPhonesForPdfsERKNS_15TransitionModelERKNSt3__16vectorIiNS3_9allocatorIiEEEEPS7_",
            "_curl_multi_timeout",
            "__ZN5kaldi22EstimateIvectorsOnlineERKNS_6MatrixIfEERKNSt3__16vectorINS5_INS4_4pairIifEENS4_9allocatorIS7_EEEENS8_ISA_EEEERKNS_16IvectorExtractorEiifPS1_",
            "__ZNK4onnx13FunctionProto13IsInitializedEv",
            "_WebRtcSpl_Resample48khzTo16khz",
            "__ZN5kaldi5nnet315NnetComputationD1Ev",
            "__ZN5kaldi5nnet321ComputationRenumberer19ComputeMatrixIsUsedEv",
            "__ZN5kaldi5nnet323GeneralDropoutComponentC1Ev",
            "__ZN5kaldi5nnet318BatchNormComponentC1ERKS1_",
            "__ZN4onnx16TensorAnnotationD0Ev",
            "_en_exp_real",
            "__ZN7Lexicon45AddIncompleteWordsToAlternativePronunciationsERNSt3__16vectorIN7keenasr24AlternativePronunciationENS0_9allocatorIS3_EEEE",
            "__ZN5kaldi5nnet320DropoutMaskComponent14InitFromConfigEPNS_10ConfigLineE",
            "__ZN5kaldi9Questions8InitRandERKNSt3__16vectorINS1_4pairINS2_INS3_IiiEENS1_9allocatorIS4_EEEEPNS_11ClusterableEEENS5_ISA_EEEEiiNS_11AllKeysTypeE",
            "__ZN5kaldi26CompactLatticeShortestPathERKN3fst9VectorFstINS0_6ArcTplINS0_23CompactLatticeWeightTplINS0_16LatticeWeightTplIfEEiEEEENS0_11VectorStateIS7_NSt3__19allocatorIS7_EEEEEEPSD_",
            "__ZN5kaldi5nnet326ComputationLoopedOptimizer23CheckIdentifiedMatricesERKNS0_15NnetComputationERKNSt3__16vectorIiNS5_9allocatorIiEEEESB_i",
            "_ph_vheight",
            "__ZN5kaldi5nnet312NnetComputerC1ERKNS0_18NnetComputeOptionsERKNS0_15NnetComputationERKNS0_4NnetEPS8_",
            "__ZN5kaldi16CompressedMatrix8DataSizeERKNS0_12GlobalHeaderE",
            "__ZNK5kaldi5nnet323GeneralDropoutComponent9PropagateEPKNS0_27ComponentPrecomputedIndexesERKNS_12CuMatrixBaseIfEEPS6_",
            "__ZN3fst21CompositeWeightReaderC2ERNSt3__113basic_istreamIcNS1_11char_traitsIcEEEE",
            "__ZNK5kaldi15TransitionModel22TransitionStateToPhoneEi",
            "_WebRtcVad_Downsampling",
            "__ZN3cpr5Files9push_backERKNS_4FileE",
            "_new_wave",
            "__ZN3cpr7Session12SetLocalPortERKNS_9LocalPortE",
            "_item_val",
            "__ZNK4onnx8MapProto12ByteSizeLongEv",
            "__ZN5kaldi5nnet34Nnet26RemoveRedundantConfigLinesEiPNSt3__16vectorINS_10ConfigLineENS2_9allocatorIS4_EEEE",
            "__ZN5kaldi12CharToStringERKc",
            "__ZNK5kaldi5nnet319FixedScaleComponent5WriteERNSt3__113basic_ostreamIcNS2_11char_traitsIcEEEEb",
            "__ZNK5kaldi5nnet323time_height_convolution16ConvolutionModel5WriteERNSt3__113basic_ostreamIcNS3_11char_traitsIcEEEEb",
            "__ZNK5kaldi5nnet323ComputationGraphBuilder21ComputeComputableInfoEi",
            "__ZN5kaldi5nnet327DecodableAmOnnxLoopedOnline12AdvanceChunkEv",
            "__ZNK5ngram20NGramExtendedContext10GetContextERKNSt3__16vectorIiNS1_9allocatorIiEEEEb",
            "__ZN5kaldi30OnlineNnet2FeaturePipelineInfoC1ERKNS_32OnlineNnet2FeaturePipelineConfigE",
            "__ZNK5kaldi5nnet328SpecAugmentTimeMaskComponent17PrecomputeIndexesERKNS0_19MiscComputationInfoERKNSt3__16vectorINS0_5IndexENS5_9allocatorIS7_EEEESC_b",
            "__ZNK5kaldi13GeneralMatrix8AddToMatEfPNS_12CuMatrixBaseIfEENS_19MatrixTransposeTypeE",
            "__ZN5kaldi5nnet315NnetComputeProbD1Ev",
            "__ZN5kaldi18ClassifyRxfilenameERKNSt3__112basic_stringIcNS0_11char_traitsIcEENS0_9allocatorIcEEEE",
            "__ZN4onnx19TensorProto_Segment12InternalSwapEPS0_",
            "__ZNK5kaldi17ContextDependency7ComputeERKNSt3__16vectorIiNS1_9allocatorIiEEEEiPi",
            "__ZN5kaldi5nnet317GeneralDescriptor5ParseERKNSt3__16vectorINS2_12basic_stringIcNS2_11char_traitsIcEENS2_9allocatorIcEEEENS7_IS9_EEEEPPKS9_",
            "__ZN4onnx17SparseTensorProto14_InternalParseEPKcPN6google8protobuf8internal12ParseContextE",
            "__ZNK5kaldi14LinearResample10FilterFuncEf",
            "__ZN5kaldi5nnet318CompositeComponent21FreezeNaturalGradientEb",
            "__ZNK5kaldi5nnet318CompositeComponent9OutputDimEv",
            "__ZN5kaldi5nnet312AmNnetSimple7SetNnetERKNS0_4NnetE",
            "__ZN3cpr10ThreadPool9DelThreadENSt3__111__thread_idE",
            "__ZNK5kaldi22OnlinePitchFeatureImpl19FrameShiftInSecondsEv",
            "_val_delete_itemfunc",
            "__ZN5kaldi5nnet317ShiftExampleTimesEiRKNSt3__16vectorINS1_12basic_stringIcNS1_11char_traitsIcEENS1_9allocatorIcEEEENS6_IS8_EEEEPNS0_11NnetExampleE",
            "__ZNK5kaldi17VectorClusterable4ObjfEv",
            "_relation_head",
            "__ZN5kaldi16WordBoundaryInfo10SetOptionsENSt3__112basic_stringIcNS1_11char_traitsIcEENS1_9allocatorIcEEEENS0_9PhoneTypeE",
            "__ZNK5kaldi5nnet315AffineComponent10DotProductERKNS0_18UpdatableComponentE",
            "__ZN5kaldi20DoTableSplitMultipleERKNS_8EventMapERKNSt3__16vectorIiNS3_9allocatorIiEEEERKNS4_INS3_4pairINS4_INSA_IiiEENS5_ISB_EEEEPNS_11ClusterableEEENS5_ISG_EEEEPi",
            "__ZNK4onnx13OptionalProto12ByteSizeLongEv",
            "__ZNK5kaldi15TransitionModel5IsHmmEv",
            "__ZN5kaldi5nnet323ComputeComputationGraphERKNS0_4NnetERKNS0_18ComputationRequestEPNS0_16ComputationGraphE",
            "_item_set",
            "__ZN5kaldi5nnet320ExampleMergingConfig11ParseIntSetERKNSt3__112basic_stringIcNS2_11char_traitsIcEENS2_9allocatorIcEEEEPNS1_6IntSetE",
            "__ZN5kaldi5nnet34Nnet15ResetGeneratorsEv",
            "_ts_close",
            "_curl_easy_pause",
            "__ZN4onnx22TypeProto_SparseTensor14_InternalParseEPKcPN6google8protobuf8internal12ParseContextE",
            "_ph_vrnd",
            "__ZN5kaldi34CompartmentalizedBottomUpClusterer8CanMergeEiiif",
            "__ZN5kaldi5nnet325OptimizeLoopedComputationERKNS0_4NnetEPNS0_15NnetComputationE",
            "__ZN5kaldi10OnlineCmvnD0Ev",
            "__ZN4onnx18OperatorSetIdProto14_InternalParseEPKcPN6google8protobuf8internal12ParseContextE",
            "__ZNK5kaldi5nnet315IoSpecification5WriteERNSt3__113basic_ostreamIcNS2_11char_traitsIcEEEEb",
            "__ZNK5kaldi5nnet34Nnet16GetComponentNameEi",
            "__ZNK5kaldi27OnlineIvectorExtractionInfo18ExpectedFeatureDimEv",
            "__ZNK5kaldi5nnet316ComputationGraph11GetCindexIdERKNSt3__14pairIiNS0_5IndexEEE",
            "__ZNK7keenasr10Recognizer14GetAudioBufferEv",
            "__ZN5kaldi7FullGmm14MergePreselectEiRKNSt3__16vectorINS1_4pairIiiEENS1_9allocatorIS4_EEEE",
            "__ZNK5kaldi5nnet315IoSpecification5PrintERNSt3__113basic_ostreamIcNS2_11char_traitsIcEEEE",
            "__ZN3cpr7Session11SetLowSpeedERKNS_8LowSpeedE",
            "__ZNK5kaldi5nnet319LogSoftmaxComponent8BackpropERKNSt3__112basic_stringIcNS2_11char_traitsIcEENS2_9allocatorIcEEEEPKNS0_27ComponentPrecomputedIndexesERKNS_12CuMatrixBaseIfEESH_SH_PvPNS0_9ComponentEPSF_",
            "__ZNK5kaldi5nnet323ComputationGraphBuilder5CheckEi",
            "__ZN4onnx13FunctionProtoC2EPN6google8protobuf5ArenaEb",
            "__ZN5boost10filesystem4path7codecvtEv",
            "__ZN7keenasr22PronunciationEvaluatorC1EPN5kaldi15TransitionModelE",
            "__ZNK7keenasr10Recognizer11IsTrialModeEv",
            "__ZNK4onnx16TypeProto_Tensor13SetCachedSizeEi",
            "__ZN5kaldi5nnet318ComputationCheckerC1ERKNS0_23CheckComputationOptionsERKNS0_4NnetERKNS0_15NnetComputationE",
            "__ZNK5kaldi5nnet328SpecAugmentTimeMaskComponent7GetMemoERKNS0_46SpecAugmentTimeMaskComponentPrecomputedIndexesE",
            "__ZN5kaldi5nnet321SetRequireDirectInputEbPNS0_4NnetE",
            "__ZN5kaldi5nnet315NnetComputeProb7ComputeERKNS0_11NnetExampleE",
            "__ZN5kaldi13SplitToPhonesERKNS_15TransitionModelERKNSt3__16vectorIiNS3_9allocatorIiEEEEPNS4_IS7_NS5_IS7_EEEE",
            "__ZN7keenasr15AtomicWriteFileERKNSt3__112basic_stringIcNS0_11char_traitsIcEENS0_9allocatorIcEEEEPKcmb",
            "_cst_fgetc",
            "_flite_ffeature",
            "__ZN3fst10MappedFileD2Ev",
            "__ZNK5kaldi5nnet324GruNonlinearityComponent5WriteERNSt3__113basic_ostreamIcNS2_11char_traitsIcEEEEb",
            "__ZN5kaldi5nnet324GruNonlinearityComponent16UpdateParametersERKNS_12CuMatrixBaseIfEES5_",
            "__ZN5kaldi5nnet319MaxpoolingComponent14InitFromConfigEPNS_10ConfigLineE",
            "__ZN4onnx13OptionalProto9_Internal12tensor_valueEPKS0_",
            "__ZN5kaldi5nnet325CachingOptimizingCompilerC1ERKNS0_4NnetERKNS0_19NnetOptimizeOptionsENS0_32CachingOptimizingCompilerOptionsE",
            "__ZN4onnx11TensorProtoC1ERKS0_",
            "__ZN5kaldi18OnlinePitchFeature14AcceptWaveformEfRKNS_10VectorBaseIfEE",
            "__ZN5kaldi5nnet317UtteranceSplitter21GetChunksForUtteranceEiPNSt3__16vectorINS0_13ChunkTimeInfoENS2_9allocatorIS4_EEEE",
            "_cst_fwrite",
            "__ZN5kaldi34CompartmentalizedBottomUpClusterer13MergeClustersEiii",
            "__ZN5boost10filesystem16filesystem_errorC2EPKcRKNS0_4pathES6_NS_6system10error_codeE",
            "_item_feat_float",
            "__ZN4onnx17SparseTensorProtoC2ERKS0_",
            "__ZN3cpr7Session9SetOptionERKNSt3__13mapINS1_12basic_stringIcNS1_11char_traitsIcEENS1_9allocatorIcEEEES8_NS_22CaseInsensitiveCompareENS6_INS1_4pairIKS8_S8_EEEEEE",
            "__ZN7keenasr10Recognizer12SetTrialModeEb",
            "__ZN5kaldi5nnet321RequestIsDecomposableERKNS0_18ComputationRequestEPS1_Pi",
            "__ZN5kaldi5nnet39attention16AttentionForwardEfRKNS_12CuMatrixBaseIfEES5_S5_PS3_S6_",
            "__ZN5kaldi5nnet318BatchNormComponentC2ERKS1_",
            "_curl_formadd",
            "__ZN5kaldi14RescoreLatticeEPNS_18DecodableInterfaceEPN3fst9VectorFstINS2_6ArcTplINS2_16LatticeWeightTplIfEEEENS2_11VectorStateIS7_NSt3__19allocatorIS7_EEEEEE",
            "__ZN7keenasr21AudioQualityEstimator21GetAudioQualityResultERKNSt3__16vectorINS1_5tupleIJffEEENS1_9allocatorIS4_EEEES9_",
            "__ZNK5kaldi5nnet329StatisticsExtractionComponent8BackpropERKNSt3__112basic_stringIcNS2_11char_traitsIcEENS2_9allocatorIcEEEEPKNS0_27ComponentPrecomputedIndexesERKNS_12CuMatrixBaseIfEESH_SH_PvPNS0_9ComponentEPSF_",
            "__ZNK4onnx10ModelProto11GetTypeNameEv",
            "__ZN5boost10filesystem6detail13creation_timeERKNS0_4pathEPNS_6system10error_codeE",
            "__ZNK5kaldi15TransitionModel28TransitionStateToSelfLoopPdfEi",
            "__ZN4onnx16TypeProto_Opaque21CheckTypeAndMergeFromERKN6google8protobuf11MessageLiteE",
            "_curl_share_init",
            "__ZN5kaldi5nnet315AffineComponentC1ERKS1_",
            "__ZNK5kaldi5nnet330TimeHeightConvolutionComponent12IsComputableERKNS0_19MiscComputationInfoERKNS0_5IndexERKNS0_8IndexSetEPNSt3__16vectorIS5_NSB_9allocatorIS5_EEEE",
            "__ZN20KaldiNNet3Recognizer5AdaptEPKN7keenasr9ASRResultE",
            "__ZNK5kaldi15QuestionsForKey5WriteERNSt3__113basic_ostreamIcNS1_11char_traitsIcEEEEb",
            "__ZN7Lexicon13Utf8ToWstringERKNSt3__112basic_stringIcNS0_11char_traitsIcEENS0_9allocatorIcEEEE",
            "_cg_state_pos",
            "__ZN5kaldi28WeightSilencePostDistributedERKNS_15TransitionModelERKNS_15ConstIntegerSetIiEEfPNSt3__16vectorINS8_INS7_4pairIifEENS7_9allocatorISA_EEEENSB_ISD_EEEE",
            "__ZN5kaldi13FbankComputerD1Ev",
            "_cart_duration",
            "__ZN5kaldi5nnet321OnlineNaturalGradient22PreconditionDirectionsEPNS_12CuMatrixBaseIfEEPf",
            "__ZN4onnx13TypeProto_Map14_InternalParseEPKcPN6google8protobuf8internal12ParseContextE",
            "__ZNK5kaldi5nnet323ComputationGraphBuilder23AllOutputsAreComputableEv",
            "__ZN5kaldi5nnet315LinearComponent13PerturbParamsEf",
            "_AEConvertSecondsToFrames",
            "__ZN5kaldi5nnet34NnetaSERKS1_",
            "__ZN7keenasr12NGramBuilder27CreateAugmentationCountsFstERKNSt3__112basic_stringIcNS1_11char_traitsIcEENS1_9allocatorIcEEEES9_",
            "__ZN4onnx18TypeProto_SequenceC1ERKS0_",
            "__ZNK5kaldi5nnet315LinearComponent5WriteERNSt3__113basic_ostreamIcNS2_11char_traitsIcEEEEb",
            "__Z11GetlineSafeRNSt3__113basic_istreamIcNS_11char_traitsIcEEEERNS_12basic_stringIcS2_NS_9allocatorIcEEEE",
            "__ZN4onnx10GraphProtoD0Ev",
            "__ZN5kaldi5nnet320FixedAffineComponentC2ERKNS0_15AffineComponentE",
            "__ZN5kaldi5nnet318FixedBiasComponent14InitFromConfigEPNS_10ConfigLineE",
            "_new_utterance",
            "__ZN5kaldi5nnet316DropoutComponentC1ERKS1_",
            "_phone_dur_stat",
            "__ZN5kaldi5nnet312NnetComputer15ParameterStddevERKNS0_9ComponentE",
            "__ZNK4onnx13TypeProto_Map13IsInitializedEv",
            "__ZN5boost10filesystem16filesystem_errorC2ERKNSt3__112basic_stringIcNS2_11char_traitsIcEENS2_9allocatorIcEEEERKNS0_4pathESD_NS_6system10error_codeE",
            "__ZN7Lexicon30AddMissingPronunciationsViaG2PEv",
            "__ZN5kaldi5nnet325PerElementOffsetComponent14InitFromConfigEPNS_10ConfigLineE",
            "__ZNK5kaldi5nnet339NaturalGradientPerElementScaleComponent4CopyEv",
            "__ZN3fst17ReversePropertiesEyb",
            "__zf_log_write_mem",
            "_AECBPrepareEmptyBL",
            "__ZN5kaldi18OnlineDeltaFeatureC1ERKNS_20DeltaFeaturesOptionsEPNS_22OnlineFeatureInterfaceE",
            "__ZN5kaldi16ConvertAlignmentERKNS_15TransitionModelES2_RKNS_26ContextDependencyInterfaceERKNSt3__16vectorIiNS6_9allocatorIiEEEEibbPSB_PSA_",
            "__ZN20KaldiNNet3Recognizer16EndpointDetectedEv",
            "__ZN5kaldi5nnet317GeneralDescriptor11ParseOffsetERKNSt3__16vectorINS2_12basic_stringIcNS2_11char_traitsIcEENS2_9allocatorIcEEEENS7_IS9_EEEEPPKS9_",
            "__ZN3fst20PrepareForGrammarFstEiPNS_9VectorFstINS_6ArcTplINS_17TropicalWeightTplIfEEEENS_11VectorStateIS4_NSt3__19allocatorIS4_EEEEEE",
            "__ZNK5kaldi5nnet323ModelUpdateConsolidator27AppendDebugInfoForSubmatrixEiPNS0_15NnetComputation15MatrixDebugInfoE",
            "__ZN5boost10filesystem6detail19weakly_canonical_v4ERKNS0_4pathES4_PNS_6system10error_codeE",
            "__ZN5kaldi5nnet325CachingOptimizingCompiler10WriteCacheERNSt3__113basic_ostreamIcNS2_11char_traitsIcEEEEb",
            "_WebRtcVad_Create",
            "_cart_interpret",
            "_cst_strdup",
            "__ZN4onnx18TypeProto_Optional12InternalSwapEPS0_",
            "__ZN5kaldi5nnet318CompositeComponent4InitERKNSt3__16vectorIPNS0_9ComponentENS2_9allocatorIS5_EEEEi",
            "__ZNK5kaldi16IvectorExtractor15GetAcousticAuxfERKNS_30IvectorExtractorUtteranceStatsERKNS_10VectorBaseIdEEPKNS_8SpMatrixIdEE",
            "__ZN4onnx13OptionalProto5ClearEv",
            "__ZN7keenasr10Recognizer50PrepareForListeningWithCustomDecodingGraphWithNameERKNSt3__112basic_stringIcNS1_11char_traitsIcEENS1_9allocatorIcEEEEb",
            "_AEAudioControllerCurrentAudioTimestamp",
            "__ZN5kaldi14PitchFrameInfo17ComputeBacktracesERKNS_22PitchExtractionOptionsERKNS_10VectorBaseIfEES7_S7_PNSt3__16vectorINS8_4pairIiiEENS8_9allocatorISB_EEEEPS5_",
            "__ZN4onnx14ValueInfoProtoC1EPN6google8protobuf5ArenaEb",
            "_WebRtcSpl_Resample8khzTo48khz",
            "__ZNK5kaldi13GeneralMatrix4TypeEv",
            "_curl_easy_cleanup",
            "__ZN5kaldi16BuildConstArpaLmERKNS_16ArpaParseOptionsERKNSt3__112basic_stringIcNS3_11char_traitsIcEENS3_9allocatorIcEEEESB_",
            "__ZN3fst6script10GetFarTypeERKNSt3__112basic_stringIcNS1_11char_traitsIcEENS1_9allocatorIcEEEE",
            "__ZN5kaldi27ComputeAndProcessKaldiPitchERKNS_22PitchExtractionOptionsERKNS_19ProcessPitchOptionsERKNS_10VectorBaseIfEEPNS_6MatrixIfEE",
            "__ZN5kaldi17EventTypeToStringERKNSt3__16vectorINS0_4pairIiiEENS0_9allocatorIS3_EEEE",
            "__ZN5kaldi11PlpComputerC2ERKS0_",
            "__ZN5kaldi5nnet317UtteranceSplitterC2ERKNS0_23ExampleGenerationConfigE",
            "__ZN3cpr7Session6SetUrlERKNS_3UrlE",
            "__ZN5boost10filesystem4path16replace_filenameERKS1_",
            "__ZNK5kaldi5nnet38Compiler19AddForwardStepInputEiPNS0_15NnetComputationE",
            "_default_lexical_insertion",
            "__ZN5kaldi6Output4OpenERKNSt3__112basic_stringIcNS1_11char_traitsIcEENS1_9allocatorIcEEEEbb",
            "_get_param_int",
            "__ZN5kaldi24CompactLatticeStateTimesERKN3fst9VectorFstINS0_6ArcTplINS0_23CompactLatticeWeightTplINS0_16LatticeWeightTplIfEEiEEEENS0_11VectorStateIS7_NSt3__19allocatorIS7_EEEEEEPNS9_6vectorIiNSA_IiEEEE",
            "__ZN7keenasr22PronunciationEvaluator16CreateOrtSessionERKNSt3__112basic_stringIcNS1_11char_traitsIcEENS1_9allocatorIcEEEE",
            "_MlasGemmS8S8KernelNeon",
            "__ZN3cpr7Session17SetHeaderCallbackERKNS_14HeaderCallbackE",
            "__ZN4onnx13SequenceProtoD2Ev",
            "__ZN3cpr7Session8GetAsyncEv",
            "__ZNK4onnx14AttributeProto13IsInitializedEv",
            "__ZN7keenasr21AudioQualityEstimatorD2Ev",
            "__ZN5kaldi5nnet317SumGroupComponent4ReadERNSt3__113basic_istreamIcNS2_11char_traitsIcEEEEb",
            "__ZNK3cpr8CertInfo4cendEv",
            "__ZN4onnx16TensorAnnotation12InternalSwapEPS0_",
            "__ZN5boost10filesystem6detail15path_algorithms22find_extension_v4_sizeERKNS0_4pathE",
            "__ZNK5kaldi5nnet323ScaleAndOffsetComponent4InfoEv",
            "__ZN4onnx13OptionalProto21CheckTypeAndMergeFromERKN6google8protobuf11MessageLiteE",
            "__ZNK5kaldi13TableEventMap9MapValuesERKNSt3__113unordered_setIiNS1_4hashIiEENS1_8equal_toIiEENS1_9allocatorIiEEEERKNS1_13unordered_mapIiiS4_S6_NS7_INS1_4pairIKiiEEEEEE",
            "__ZN5kaldi5nnet320BlockAffineComponentC1ERKS1_",
            "__ZNK3cpr10UnixSocket19GetUnixSocketStringEv",
            "_curl_mime_name",
            "__ZN5kaldi10VectorBaseIdE6AddVecIdEEvdRKNS0_IT_EE",
            "__ZNK4onnx17SparseTensorProto12ByteSizeLongEv",
            "__ZN5kaldi13FullGmmNormal13CopyToFullGmmEPNS_7FullGmmEt",
            "__ZN5kaldi5nnet316DropoutComponent14InitFromConfigEPNS_10ConfigLineE",
            "__ZN3cpr7Session5PatchEv",
            "__ZN5kaldi14LinearResample8ResampleERKNS_10VectorBaseIfEEbPNS_6VectorIfEE",
            "_utt_relation",
            "__ZN5kaldirsERNSt3__113basic_istreamIcNS0_11char_traitsIcEEEERNS_7DiagGmmE",
            "__ZNK5kaldi5nnet321OnlineNaturalGradient8UpdatingEv",
            "__ZNK5kaldi16GaussClusterable7ReadNewERNSt3__113basic_istreamIcNS1_11char_traitsIcEEEEb",
            "_MlasSgemmKernelZero",
            "__ZN4onnx18TypeProto_SequenceD2Ev",
            "__ZNK5kaldi5nnet332ReplaceIndexForwardingDescriptor19GetNodeDependenciesEPNSt3__16vectorIiNS2_9allocatorIiEEEE"
          ],
          "weak": [
            "__ZNK5kaldi10VectorBaseIdE3DimEv",
            "__ZNK5kaldi10MatrixBaseIfE16MinSingularValueEv",
            "__ZN5kaldi23LatticeFasterDecoderTplIN3fst13GrammarFstTplINS1_9VectorFstINS1_6ArcTplINS1_17TropicalWeightTplIfEEEENS1_11VectorStateIS7_NSt3__19allocatorIS7_EEEEEEEENS_7decoder8StdTokenEE6DecodeEPNS_18DecodableInterfaceE",
            "__ZN5kaldi10VectorBaseIfE15CopyDiagFromMatERKNS_10MatrixBaseIfEE",
            "__ZN5kaldi12PackedMatrixIdEC1ERKS1_",
            "__ZN5kaldi8CuVectorIdEC2Ev",
            "__ZNK5kaldi10MatrixBaseIdE9AddToRowsEdPKiPS1_",
            "__ZN5kaldi10MatrixBaseIfE8CopyRowsERKS1_PKi",
            "__ZN5kaldi10MatrixBaseIdE10AddSmatMatEdRKNS_12SparseMatrixIdEENS_19MatrixTransposeTypeERKS1_d",
            "__ZN5kaldi12CuMatrixBaseIdE14DiffGroupPnormERKS1_S3_S3_d",
            "__ZN5kaldi12PackedMatrixIdEC1Ev",
            "__ZN5kaldi12CuMatrixBaseIdE18DiffParametricReluERKS1_S3_RKNS_12CuVectorBaseIdEES7_",
            "__ZN5kaldi23LatticeFasterDecoderTplIN3fst9VectorFstINS1_6ArcTplINS1_17TropicalWeightTplIfEEEENS1_11VectorStateIS6_NSt3__19allocatorIS6_EEEEEENS_7decoder16BackpointerTokenEE9TokenListC1Ev",
            "__ZN5kaldi12CuVectorBaseIfE12ApplySoftMaxEv",
            "__ZN5kaldi8TpMatrixIfEC2ERKS1_",
            "__ZN5kaldi10MatrixBaseIdEC1Ev",
            "__ZNK5kaldi12CuMatrixBaseIdE8ColRangeEii",
            "__ZN3fst9VectorFstINS_6ArcTplINS_12LogWeightTplIfEEEENS_11VectorStateIS4_NSt3__19allocatorIS4_EEEEE4ReadERNS6_13basic_istreamIcNS6_11char_traitsIcEEEERKNS_14FstReadOptionsE",
            "__ZNK5kaldi28LatticeIncrementalDecoderTplIN3fst13GrammarFstTplIKNS1_8ConstFstINS1_6ArcTplINS1_17TropicalWeightTplIfEEEEjEEEENS_7decoder8StdTokenEE16NumFramesDecodedEv",
            "__ZN5kaldi8CuMatrixIdEC2Ev",
            "__ZN5kaldi23EigenvalueDecompositionIdE1HEii",
            "__ZN5kaldi10VectorBaseIdE15CopyRowsFromMatERKNS_10MatrixBaseIdEE",
            "__ZN5kaldi10CuSpMatrixIdE10CopyFromSpERKNS_8SpMatrixIdEE",
            "__ZN5kaldi28LatticeIncrementalDecoderTplIN3fst13GrammarFstTplINS1_9VectorFstINS1_6ArcTplINS1_17TropicalWeightTplIfEEEENS1_11VectorStateIS7_NSt3__19allocatorIS7_EEEEEEEENS_7decoder16BackpointerTokenEE6DecodeEPNS_18DecodableInterfaceE",
            "__ZN5kaldi9VecMatVecIdEET_RKNS_10VectorBaseIS1_EERKNS_10MatrixBaseIS1_EES5_",
            "__ZN5kaldi23LatticeFasterDecoderTplIN3fst8ConstFstINS1_6ArcTplINS1_17TropicalWeightTplIfEEEEjEENS_7decoder8StdTokenEED2Ev",
            "__ZNK5kaldi12CuMatrixBaseIfE10CopyToRowsERKNS_11CuArrayBaseIPfEE",
            "__ZN5kaldi10MatrixBaseIdE8ApplyExpEv",
            "__ZNK5kaldi24OnlineGenericBaseFeatureINS_11PlpComputerEE14NumFramesReadyEv",
            "__ZN5kaldi14CuSparseMatrixIdE4SwapEPS1_",
            "__ZN5kaldi29LatticeFasterOnlineDecoderTplIN3fst13GrammarFstTplINS1_9VectorFstINS1_6ArcTplINS1_17TropicalWeightTplIfEEEENS1_11VectorStateIS7_NSt3__19allocatorIS7_EEEEEEEEEC1ERKSE_RKNS_26LatticeFasterDecoderConfigE",
            "__ZN5kaldi6MatrixIfE6ResizeEiiNS_16MatrixResizeTypeENS_16MatrixStrideTypeE",
            "__ZN5kaldi23LatticeFasterDecoderTplIN3fst9VectorFstINS1_6ArcTplINS1_17TropicalWeightTplIfEEEENS1_11VectorStateIS6_NSt3__19allocatorIS6_EEEEEENS_7decoder16BackpointerTokenEE15ProcessEmittingEPNS_18DecodableInterfaceE",
            "__ZNK5kaldi28LatticeIncrementalDecoderTplIN3fst9VectorFstINS1_6ArcTplINS1_17TropicalWeightTplIfEEEENS1_11VectorStateIS6_NSt3__19allocatorIS6_EEEEEENS_7decoder8StdTokenEE16NumFramesDecodedEv",
            "__ZN5kaldi34LatticeIncrementalOnlineDecoderTplIN3fst13GrammarFstTplINS1_9VectorFstINS1_6ArcTplINS1_17TropicalWeightTplIfEEEENS1_11VectorStateIS7_NSt3__19allocatorIS7_EEEEEEEEEC1ERKNS_31LatticeIncrementalDecoderConfigEPSE_RKNS_15TransitionModelE",
            "__ZN5kaldi10CuSpMatrixIfEC2Ev",
            "__ZNK5kaldi29LatticeFasterOnlineDecoderTplIN3fst13GrammarFstTplINS1_9VectorFstINS1_6ArcTplINS1_17TropicalWeightTplIfEEEENS1_11VectorStateIS7_NSt3__19allocatorIS7_EEEEEEEEE11BestPathEndEbPf",
            "__ZN3fst6script9FarCreateINS_6ArcTplINS_12LogWeightTplIfEEEEEEvPNS0_13FarCreateArgsE",
            "__ZN5kaldi23LatticeFasterDecoderTplIN3fst13GrammarFstTplINS1_9VectorFstINS1_6ArcTplINS1_17TropicalWeightTplIfEEEENS1_11VectorStateIS7_NSt3__19allocatorIS7_EEEEEEEENS_7decoder16BackpointerTokenEE17PruneForwardLinksEiPbSI_f",
            "__ZN5kaldi22OnlineSilenceWeighting23ComputeCurrentTracebackIN3fst13GrammarFstTplIKNS2_8ConstFstINS2_6ArcTplINS2_17TropicalWeightTplIfEEEEjEEEEEEvRKNS_29LatticeFasterOnlineDecoderTplIT_EEb",
            "__ZN5kaldi6MatrixIdED1Ev",
            "__ZN5kaldi10MatrixBaseIdEC1EPdiii",
            "__ZN5kaldi12CuVectorBaseIfE12AddRowSumMatEfRKNS_12CuMatrixBaseIfEEf",
            "__ZN5kaldi10MatrixBaseIfE10MulRowsVecERKNS_10VectorBaseIfEE",
            "__ZN5kaldi23LatticeFasterDecoderTplIN3fst13GrammarFstTplIKNS1_8ConstFstINS1_6ArcTplINS1_17TropicalWeightTplIfEEEEjEEEENS_7decoder16BackpointerTokenEE17ClearActiveTokensEv",
            "__ZN5kaldi23LatticeFasterDecoderTplIN3fst9VectorFstINS1_6ArcTplINS1_17TropicalWeightTplIfEEEENS1_11VectorStateIS6_NSt3__19allocatorIS6_EEEEEENS_7decoder8StdTokenEE15ProcessEmittingEPNS_18DecodableInterfaceE",
            "__ZN5kaldi2cu13EnsureNonzeroIdEEvRKNS_12CuVectorBaseIT_EES3_PS4_",
            "__ZN5kaldi10MatrixBaseIdE10ApplyFloorEd",
            "__ZNK5kaldi29LatticeFasterOnlineDecoderTplIN3fst13GrammarFstTplIKNS1_8ConstFstINS1_6ArcTplINS1_17TropicalWeightTplIfEEEEjEEEEE11GetBestPathEPNS1_9VectorFstINS4_INS1_16LatticeWeightTplIfEEEENS1_11VectorStateISF_NSt3__19allocatorISF_EEEEEEb",
            "__ZN5kaldi12SparseMatrixIdE4ReadERNSt3__113basic_istreamIcNS2_11char_traitsIcEEEEb",
            "__ZNK5kaldi14CuPackedMatrixIfE7NumColsEv",
            "__ZN5kaldi23LatticeFasterDecoderTplIN3fst9VectorFstINS1_6ArcTplINS1_17TropicalWeightTplIfEEEENS1_11VectorStateIS6_NSt3__19allocatorIS6_EEEEEENS_7decoder8StdTokenEE11DeleteElemsEPNS_8HashListIiPSE_E4ElemE",
            "__ZNK3fst13GrammarFstTplINS_9VectorFstINS_6ArcTplINS_17TropicalWeightTplIfEEEENS_11VectorStateIS5_NSt3__19allocatorIS5_EEEEEEE16NumInputEpsilonsEx",
            "__ZN5kaldi10MatrixBaseIfE12InvertDoubleEPfS2_b",
            "__ZNK5kaldi8SpMatrixIfE6IsZeroEf",
            "__ZN5kaldi12CuVectorBaseIfE10ApplyFloorEfPi",
            "__ZN5kaldi23LatticeFasterDecoderTplIN3fst9VectorFstINS1_6ArcTplINS1_17TropicalWeightTplIfEEEENS1_11VectorStateIS6_NSt3__19allocatorIS6_EEEEEENS_7decoder8StdTokenEE12InitDecodingEv",
            "__ZN5kaldi12CuMatrixBaseIdE11CopyFromMatIfEEvRKNS0_IT_EENS_19MatrixTransposeTypeE",
            "__ZN5kaldi10MatrixBaseIdE17AddMatMatElementsEdRKS1_S3_d",
            "__ZN5kaldi12CuMatrixBaseIdE8AddMatSpEdRKS1_NS_19MatrixTransposeTypeERKNS_10CuSpMatrixIdEEd",
            "__ZN5kaldi29LatticeFasterOnlineDecoderTplIN3fst13GrammarFstTplINS1_9VectorFstINS1_6ArcTplINS1_17TropicalWeightTplIfEEEENS1_11VectorStateIS7_NSt3__19allocatorIS7_EEEEEEEEEC2ERKNS_26LatticeFasterDecoderConfigEPSE_",
            "__ZN5kaldi24OnlineGenericBaseFeatureINS_13FbankComputerEE14AcceptWaveformEfRKNS_10VectorBaseIfEE",
            "__ZN5kaldi28LatticeIncrementalDecoderTplIN3fst3FstINS1_6ArcTplINS1_17TropicalWeightTplIfEEEEEENS_7decoder8StdTokenEEC1ERKNS_31LatticeIncrementalDecoderConfigEPS7_RKNS_15TransitionModelE",
            "__ZN5kaldi8SpMatrixIfE9PrintEigsEPKc",
            "__ZN5kaldi24OnlineGenericBaseFeatureINS_12MfccComputerEEC1ERKNS_11MfccOptionsE",
            "__ZN5kaldi2cu13EnsureNonzeroIdEEvRKNS_12CuMatrixBaseIT_EES3_PS4_",
            "__ZNK5kaldi28LatticeIncrementalDecoderTplIN3fst3FstINS1_6ArcTplINS1_17TropicalWeightTplIfEEEEEENS_7decoder8StdTokenEE12ReachedFinalEv",
            "__ZNK5kaldi24OnlineGenericBaseFeatureINS_12MfccComputerEE11IsLastFrameEi",
            "__ZNK3fst13GrammarFstTplIKNS_8ConstFstINS_6ArcTplINS_17TropicalWeightTplIfEEEEjEEE5WriteERNSt3__113basic_ostreamIcNS9_11char_traitsIcEEEEb",
            "__ZN5kaldi13CuBlockMatrixIdED2Ev",
            "__ZN5kaldi23LatticeFasterDecoderTplIN3fst13GrammarFstTplINS1_9VectorFstINS1_6ArcTplINS1_17TropicalWeightTplIfEEEENS1_11VectorStateIS7_NSt3__19allocatorIS7_EEEEEEEENS_7decoder16BackpointerTokenEE16FinalizeDecodingEv",
            "__ZN5kaldi23LatticeFasterDecoderTplIN3fst13GrammarFstTplINS1_9VectorFstINS1_6ArcTplINS1_17TropicalWeightTplIfEEEENS1_11VectorStateIS7_NSt3__19allocatorIS7_EEEEEEEENS_7decoder16BackpointerTokenEE13TopSortTokensEPSG_PNS9_6vectorISI_NSA_ISI_EEEE",
            "__ZN5kaldi23LatticeFasterDecoderTplIN3fst13GrammarFstTplIKNS1_8ConstFstINS1_6ArcTplINS1_17TropicalWeightTplIfEEEEjEEEENS_7decoder8StdTokenEE19PruneTokensForFrameEi",
            "__ZN5kaldi23LatticeFasterDecoderTplIN3fst13GrammarFstTplINS1_9VectorFstINS1_6ArcTplINS1_17TropicalWeightTplIfEEEENS1_11VectorStateIS7_NSt3__19allocatorIS7_EEEEEEEENS_7decoder8StdTokenEE19PruneTokensForFrameEi",
            "__ZN5kaldi14CuSparseMatrixIdE8SetRandnEf",
            "__ZN5kaldi28LatticeIncrementalDecoderTplIN3fst9VectorFstINS1_6ArcTplINS1_17TropicalWeightTplIfEEEENS1_11VectorStateIS6_NSt3__19allocatorIS6_EEEEEENS_7decoder16BackpointerTokenEEC1ERKSC_RKNS_15TransitionModelERKNS_31LatticeIncrementalDecoderConfigE",
            "__ZN3fst13GrammarFstTplIKNS_8ConstFstINS_6ArcTplINS_17TropicalWeightTplIfEEEEjEEE16GetExpandedStateEii",
            "__ZN5kaldi12CuMatrixBaseIdE10DivRowsVecERKNS_12CuVectorBaseIdEE",
            "__ZN5kaldi28LatticeIncrementalDecoderTplIN3fst13GrammarFstTplIKNS1_8ConstFstINS1_6ArcTplINS1_17TropicalWeightTplIfEEEEjEEEENS_7decoder8StdTokenEE18GetNumToksForFrameEi",
            "__ZNK5kaldi28LatticeIncrementalDecoderTplIN3fst3FstINS1_6ArcTplINS1_17TropicalWeightTplIfEEEEEENS_7decoder8StdTokenEE10GetOptionsEv",
            "__ZNK5kaldi12CuMatrixBaseIfE9CopyToMatIdEEvPNS_10MatrixBaseIT_EENS_19MatrixTransposeTypeE",
            "__ZN5kaldi10CuSpMatrixIdE5AddSpEdRKS1_",
            "__ZN5kaldi12CuMatrixBaseIfEC2Ev",
            "__ZN5kaldi12SparseVectorIdE6ResizeEiNS_16MatrixResizeTypeE",
            "__ZN5kaldi23LatticeFasterDecoderTplIN3fst3FstINS1_6ArcTplINS1_17TropicalWeightTplIfEEEEEENS_7decoder8StdTokenEE18PossiblyResizeHashEm",
            "__ZNK5kaldi20SplitRadixComplexFftIdE17BitReversePermuteEPdi",
            "__ZNK5kaldi23LatticeFasterDecoderTplIN3fst13GrammarFstTplIKNS1_8ConstFstINS1_6ArcTplINS1_17TropicalWeightTplIfEEEEjEEEENS_7decoder8StdTokenEE10GetOptionsEv",
            "__ZN5kaldi28LatticeIncrementalDecoderTplIN3fst9VectorFstINS1_6ArcTplINS1_17TropicalWeightTplIfEEEENS1_11VectorStateIS6_NSt3__19allocatorIS6_EEEEEENS_7decoder8StdTokenEE28UpdateLatticeDeterminizationEv",
            "__ZN5kaldi10CuSpMatrixIdEC1EiNS_16MatrixResizeTypeE",
            "__ZN5kaldi12CuVectorBaseIfE18CopyDiagFromPackedERKNS_14CuPackedMatrixIfEE",
            "__ZN5kaldi12SparseVectorIfEC1EiRKNSt3__16vectorINS2_4pairIifEENS2_9allocatorIS5_EEEE",
            "__ZN5kaldi6VectorIdEC1EiNS_16MatrixResizeTypeE",
            "__ZN5kaldi28LatticeIncrementalDecoderTplIN3fst8ConstFstINS1_6ArcTplINS1_17TropicalWeightTplIfEEEEjEENS_7decoder8StdTokenEE21AllocateNewTokenLabelEv",
            "__ZNK5kaldi16CompressedMatrix12CopyRowToVecIdEEviPNS_10VectorBaseIT_EE",
            "__ZN5kaldi23LatticeFasterDecoderTplIN3fst13GrammarFstTplINS1_9VectorFstINS1_6ArcTplINS1_17TropicalWeightTplIfEEEENS1_11VectorStateIS7_NSt3__19allocatorIS7_EEEEEEEENS_7decoder8StdTokenEE17ClearActiveTokensEv",
            "__ZN5kaldi8CuMatrixIfEC1ERKS1_NS_19MatrixTransposeTypeE",
            "__ZN5kaldi12CuVectorBaseIfE3PowERKS1_f",
            "__ZN5kaldi12SparseMatrixIfEC2ERKNS_10MatrixBaseIfEE",
            "__ZN5kaldi10VectorBaseIdE8SetRandnEv",
            "__ZN5kaldi12PackedMatrixIfE14CopyFromPackedIfEEvRKNS0_IT_EE",
            "__ZN5kaldi13OptimizeLbfgsIfE7RestartERKNS_10VectorBaseIfEEfS5_",
            "__ZN5kaldi12PackedMatrixIdE14CopyFromPackedIdEEvRKNS0_IT_EE",
            "__ZN5kaldi8CuMatrixIdED1Ev",
            "__ZN5kaldi16CompressedMatrix11CopyFromMatIfEEvRKNS_10MatrixBaseIT_EENS_17CompressionMethodE",
            "__ZN5kaldi10VectorBaseIfE8ApplyPowEf",
            "__ZN5kaldi14CuSparseMatrixIfE12CopyFromSmatERKS1_NS_19MatrixTransposeTypeE",
            "__ZN5kaldi34LatticeIncrementalOnlineDecoderTplIN3fst8ConstFstINS1_6ArcTplINS1_17TropicalWeightTplIfEEEEjEEE16BestPathIterator4DoneEv",
            "__ZN5kaldi12CuVectorBaseIfE14SetRandUniformEv",
            "__ZNK5kaldi20SplitRadixComplexFftIdE7ComputeEPdbPNSt3__16vectorIdNS3_9allocatorIdEEEE",
            "__ZN5kaldi28LatticeIncrementalDecoderTplIN3fst13GrammarFstTplIKNS1_8ConstFstINS1_6ArcTplINS1_17TropicalWeightTplIfEEEEjEEEENS_7decoder16BackpointerTokenEE28UpdateLatticeDeterminizationEv",
            "__ZN5kaldi23LatticeFasterDecoderTplIN3fst13GrammarFstTplINS1_9VectorFstINS1_6ArcTplINS1_17TropicalWeightTplIfEEEENS1_11VectorStateIS7_NSt3__19allocatorIS7_EEEEEEEENS_7decoder16BackpointerTokenEEC1ERKNS_26LatticeFasterDecoderConfigEPSE_",
            "__ZN5kaldi13OptimizeLbfgsIfE1SEi",
            "__ZN5kaldi8TpMatrixIdE11CopyFromMatERKNS_10MatrixBaseIdEENS_19MatrixTransposeTypeE",
            "__ZN5kaldi23LatticeFasterDecoderTplIN3fst3FstINS1_6ArcTplINS1_17TropicalWeightTplIfEEEEEENS_7decoder16BackpointerTokenEE10SetOptionsERKNS_26LatticeFasterDecoderConfigE",
            "__ZN5kaldi10VectorBaseIdE8AddSpVecEdRKNS_8SpMatrixIdEERKS1_d",
            "__ZN5kaldi23EigenvalueDecompositionIdE4cdivEddddPdS2_",
            "__ZNK5kaldi12CuVectorBaseIfE3MinEv",
            "__ZN5kaldi9LinearCgdIfEEiRKNS_16LinearCgdOptionsERKNS_8SpMatrixIT_EERKNS_10VectorBaseIS5_EEPSA_",
            "__ZN5kaldi10CuSpMatrixIfE3MatEv",
            "__ZNK5kaldi23LatticeFasterDecoderTplIN3fst13GrammarFstTplINS1_9VectorFstINS1_6ArcTplINS1_17TropicalWeightTplIfEEEENS1_11VectorStateIS7_NSt3__19allocatorIS7_EEEEEEEENS_7decoder16BackpointerTokenEE16NumFramesDecodedEv",
            "__ZN5kaldi20SplitRadixComplexFftIdED1Ev",
            "__ZN5kaldi12CuVectorBaseIfE11MulElementsERKS1_",
            "__ZN5kaldi12CuMatrixBaseIfE10MulRowsVecERKNS_12CuVectorBaseIfEE",
            "__ZN5kaldi14CuSparseMatrixIdE7DestroyEv",
            "__ZNK5kaldi29LatticeFasterOnlineDecoderTplIN3fst13GrammarFstTplIKNS1_8ConstFstINS1_6ArcTplINS1_17TropicalWeightTplIfEEEEjEEEEE16BestPathIterator4DoneEv",
            "__ZN5kaldi6MatrixIfE4InitEiiNS_16MatrixStrideTypeE",
            "__ZN5kaldi10MatrixBaseIdEC2EPdiii",
            "__ZN5kaldi6VectorIfE7DestroyEv",
            "__ZN5kaldi23LatticeFasterDecoderTplIN3fst8ConstFstINS1_6ArcTplINS1_17TropicalWeightTplIfEEEEjEENS_7decoder16BackpointerTokenEED1Ev",
            "__ZN5kaldi10MatrixBaseIfE8AddSpMatEfRKNS_8SpMatrixIfEERKS1_NS_19MatrixTransposeTypeEf",
            "__ZN5kaldi12CuMatrixBaseIfE8AddSpMatEfRKNS_10CuSpMatrixIfEERKS1_NS_19MatrixTransposeTypeEf",
            "__ZN5kaldi28LatticeIncrementalDecoderTplIN3fst8ConstFstINS1_6ArcTplINS1_17TropicalWeightTplIfEEEEjEENS_7decoder8StdTokenEE19PruneTokensForFrameEi",
            "__ZN5kaldilsIfEERNSt3__113basic_ostreamIcNS1_11char_traitsIcEEEES6_RKNS_14CuPackedMatrixIT_EE",
            "__ZN5kaldi12SparseVectorIfEC2ERKNS_10VectorBaseIfEE",
            "__ZN5kaldi10MatrixBaseIfE8AddTpMatEfRKNS_8TpMatrixIfEENS_19MatrixTransposeTypeERKS1_S6_f",
            "__ZN5kaldi10MatrixBaseIfED1Ev",
            "__ZN5kaldi28LatticeIncrementalDecoderTplIN3fst3FstINS1_6ArcTplINS1_17TropicalWeightTplIfEEEEEENS_7decoder8StdTokenEE16FinalizeDecodingEv",
            "__ZN5kaldi28LatticeIncrementalDecoderTplIN3fst9VectorFstINS1_6ArcTplINS1_17TropicalWeightTplIfEEEENS1_11VectorStateIS6_NSt3__19allocatorIS6_EEEEEENS_7decoder8StdTokenEED2Ev",
            "__ZNK5kaldi12PackedMatrixIfE7NumColsEv",
            "__ZNK5kaldi23LatticeFasterDecoderTplIN3fst9VectorFstINS1_6ArcTplINS1_17TropicalWeightTplIfEEEENS1_11VectorStateIS6_NSt3__19allocatorIS6_EEEEEENS_7decoder8StdTokenEE17ComputeFinalCostsEPNS8_13unordered_mapIPSE_fNS8_4hashISH_EENS8_8equal_toISH_EENS9_INS8_4pairIKSH_fEEEEEEPfSS_",
            "__ZN5kaldi28LatticeIncrementalDecoderTplIN3fst3FstINS1_6ArcTplINS1_17TropicalWeightTplIfEEEEEENS_7decoder8StdTokenEE28UpdateLatticeDeterminizationEv",
            "__ZN5kaldi12CuMatrixBaseIfE12ApplyCeilingEf",
            "__ZNK5kaldi10MatrixBaseIdE8RowRangeEii",
            "__ZN5kaldi11WriteSphinxIdEEbRNSt3__113basic_ostreamIcNS1_11char_traitsIcEEEERKNS_10MatrixBaseIT_EE",
            "__ZN5kaldi2cu12RegularizeL1IfEEvPNS_12CuMatrixBaseIT_EES5_S3_S3_",
            "__ZNK5kaldi34LatticeIncrementalOnlineDecoderTplIN3fst13GrammarFstTplINS1_9VectorFstINS1_6ArcTplINS1_17TropicalWeightTplIfEEEENS1_11VectorStateIS7_NSt3__19allocatorIS7_EEEEEEEEE11BestPathEndEbPf",
            "__ZN5kaldi10MatrixBaseIdEclEii",
            "__ZN5kaldi28LatticeIncrementalDecoderTplIN3fst13GrammarFstTplINS1_9VectorFstINS1_6ArcTplINS1_17TropicalWeightTplIfEEEENS1_11VectorStateIS7_NSt3__19allocatorIS7_EEEEEEEENS_7decoder16BackpointerTokenEE12InitDecodingEv",
            "__ZN5kaldi6VectorIfEC2ERKS1_",
            "__ZNK5kaldi12CuMatrixBaseIfE5TraceEb",
            "__ZN5kaldi28LatticeIncrementalDecoderTplIN3fst3FstINS1_6ArcTplINS1_17TropicalWeightTplIfEEEEEENS_7decoder8StdTokenEE17PruneForwardLinksEiPbSB_f",
            "__ZN5kaldi10CuSpMatrixIfE7AddMat2EfRKNS_12CuMatrixBaseIfEENS_19MatrixTransposeTypeEf",
            "__ZN5kaldi13OptimizeLbfgsIdE6DoStepEdRKNS_10VectorBaseIdEES5_",
            "__ZN5kaldi12CuMatrixBaseIdE15ApplyExpSpecialEv",
            "__ZN5kaldi8SpMatrixIfEC2Ev",
            "__ZN5kaldi10VectorBaseIdE11DivElementsIfEEvRKNS0_IT_EE",
            "__ZN5kaldi16FilterMatrixRowsIfEEvRKNS_6MatrixIT_EERKNSt3__16vectorIbNS6_9allocatorIbEEEEPS3_",
            "__ZN5kaldi12SparseMatrixIdE10SelectRowsERKNSt3__16vectorIiNS2_9allocatorIiEEEERKS1_",
            "__ZNK5kaldi14CuSparseMatrixIdE6CsrValEv",
            "__ZNK5kaldi24OnlineGenericBaseFeatureINS_13FbankComputerEE3DimEv",
            "__ZN5kaldi10MatrixBaseIdE11CopyFromMatIfEEvRKNS0_IT_EENS_19MatrixTransposeTypeE",
            "__ZN5kaldi12PackedMatrixIfE7SetUnitEv",
            "__ZN5kaldi28LatticeIncrementalDecoderTplIN3fst13GrammarFstTplINS1_9VectorFstINS1_6ArcTplINS1_17TropicalWeightTplIfEEEENS1_11VectorStateIS7_NSt3__19allocatorIS7_EEEEEEEENS_7decoder16BackpointerTokenEE10SetOptionsERKNS_31LatticeIncrementalDecoderConfigE",
            "__ZN5kaldi8TpMatrixIdEclEii",
            "__ZNK5kaldi12CuMatrixBaseIdE3MatEv",
            "__ZN5kaldi10MatrixBaseIdE15CopyDiagFromVecERKNS_10VectorBaseIdEE",
            "__ZN5kaldi23LatticeFasterDecoderTplIN3fst13GrammarFstTplINS1_9VectorFstINS1_6ArcTplINS1_17TropicalWeightTplIfEEEENS1_11VectorStateIS7_NSt3__19allocatorIS7_EEEEEEEENS_7decoder8StdTokenEED2Ev",
            "__ZN5kaldi10VectorBaseIfE13CopyRowFromSpIdEEvRKNS_8SpMatrixIT_EEi",
            "__ZN5kaldi10MatrixBaseIfE10CopyFromTpIfEEvRKNS_8TpMatrixIT_EENS_19MatrixTransposeTypeE",
            "__ZN5kaldi12CuVectorBaseIdE18CopyDiagFromPackedERKNS_14CuPackedMatrixIdEE",
            "__ZNK5kaldi12CuMatrixBaseIfE9CopyToMatIfEEvPNS_10MatrixBaseIT_EENS_19MatrixTransposeTypeE",
            "__ZNK5kaldi28LatticeIncrementalDecoderTplIN3fst13GrammarFstTplINS1_9VectorFstINS1_6ArcTplINS1_17TropicalWeightTplIfEEEENS1_11VectorStateIS7_NSt3__19allocatorIS7_EEEEEEEENS_7decoder16BackpointerTokenEE10GetOptionsEv",
            "__ZN5kaldi10MatrixBaseIdE7AddSpSpEdRKNS_8SpMatrixIdEES5_d",
            "__ZN5kaldi10MatrixBaseIfE15ApplyExpSpecialEv",
            "__ZN5kaldi10VectorBaseIfE6AddVecIdEEvfRKNS0_IT_EE",
            "__ZN5kaldi29LatticeFasterOnlineDecoderTplIN3fst13GrammarFstTplIKNS1_8ConstFstINS1_6ArcTplINS1_17TropicalWeightTplIfEEEEjEEEEEC1ERKSA_RKNS_26LatticeFasterDecoderConfigE",
            "__ZN5kaldi12CuMatrixBaseIdE15SymInvertPosDefEv",
            "__ZN5kaldi8SpMatrixIdE10CopyFromSpERKS1_",
            "__ZN5kaldi13OptimizeLbfgsIdE1MEv",
            "__ZN5kaldi12CuMatrixBaseIdE8CopyRowsERKNS_11CuArrayBaseIPKdEE",
            "__ZNK5kaldi28LatticeIncrementalDecoderTplIN3fst3FstINS1_6ArcTplINS1_17TropicalWeightTplIfEEEEEENS_7decoder16BackpointerTokenEE10GetOptionsEv",
            "__ZNK5kaldi12SparseVectorIdE5WriteERNSt3__113basic_ostreamIcNS2_11char_traitsIcEEEEb",
            "__ZN5kaldi28LatticeIncrementalDecoderTplIN3fst3FstINS1_6ArcTplINS1_17TropicalWeightTplIfEEEEEENS_7decoder16BackpointerTokenEE9TokenListC2Ev",
            "__ZN5kaldi28LatticeIncrementalDecoderTplIN3fst13GrammarFstTplIKNS1_8ConstFstINS1_6ArcTplINS1_17TropicalWeightTplIfEEEEjEEEENS_7decoder16BackpointerTokenEE10SetOptionsERKNS_31LatticeIncrementalDecoderConfigE",
            "__ZN5kaldi12PackedMatrixIfE5ScaleEf",
            "__ZN5kaldi20SplitRadixComplexFftIfE13ComputeTablesEv",
            "__ZN5kaldi8SpMatrixIfE14TridiagonalizeEPNS_10MatrixBaseIfEE",
            "__ZN5kaldi23LatticeFasterDecoderTplIN3fst8ConstFstINS1_6ArcTplINS1_17TropicalWeightTplIfEEEEjEENS_7decoder8StdTokenEE17PruneForwardLinksEiPbSB_f",
            "__ZN5kaldi12CuMatrixBaseIfE3MatEv",
            "__ZN5kaldi12CuMatrixBaseIfE13AddDiagVecMatEfRKNS_12CuVectorBaseIfEERKS1_NS_19MatrixTransposeTypeEf",
            "__ZN5kaldi14CuPackedMatrixIfE9ScaleDiagEf",
            "__ZNK5kaldi23LatticeFasterDecoderTplIN3fst3FstINS1_6ArcTplINS1_17TropicalWeightTplIfEEEEEENS_7decoder8StdTokenEE11GetBestPathEPNS1_9VectorFstINS3_INS1_16LatticeWeightTplIfEEEENS1_11VectorStateISE_NSt3__19allocatorISE_EEEEEEb",
            "__ZN5kaldi23LatticeFasterDecoderTplIN3fst13GrammarFstTplIKNS1_8ConstFstINS1_6ArcTplINS1_17TropicalWeightTplIfEEEEjEEEENS_7decoder16BackpointerTokenEE22PruneForwardLinksFinalEv",
            "__ZN5kaldi28LatticeIncrementalDecoderTplIN3fst13GrammarFstTplINS1_9VectorFstINS1_6ArcTplINS1_17TropicalWeightTplIfEEEENS1_11VectorStateIS7_NSt3__19allocatorIS7_EEEEEEEENS_7decoder16BackpointerTokenEE9TokenListC1Ev",
            "__ZN5kaldi23LatticeFasterDecoderTplIN3fst13GrammarFstTplIKNS1_8ConstFstINS1_6ArcTplINS1_17TropicalWeightTplIfEEEEjEEEENS_7decoder8StdTokenEE9TokenListC2Ev",
            "__ZNK5kaldi28LatticeIncrementalDecoderTplIN3fst13GrammarFstTplIKNS1_8ConstFstINS1_6ArcTplINS1_17TropicalWeightTplIfEEEEjEEEENS_7decoder16BackpointerTokenEE17ComputeFinalCostsEPNSt3__113unordered_mapIPSC_fNSE_4hashISG_EENSE_8equal_toISG_EENSE_9allocatorINSE_4pairIKSG_fEEEEEEPfSS_",
            "__ZN5kaldi16AddMatMatBatchedIdEEvT_RNSt3__16vectorIPNS_11CuSubMatrixIS1_EENS2_9allocatorIS6_EEEERKS9_NS_19MatrixTransposeTypeESC_SD_S1_",
            "__ZN5kaldi28LatticeIncrementalDecoderTplIN3fst13GrammarFstTplIKNS1_8ConstFstINS1_6ArcTplINS1_17TropicalWeightTplIfEEEEjEEEENS_7decoder16BackpointerTokenEE18GetNumToksForFrameEi",
            "__ZN5kaldi23LatticeFasterDecoderTplIN3fst13GrammarFstTplINS1_9VectorFstINS1_6ArcTplINS1_17TropicalWeightTplIfEEEENS1_11VectorStateIS7_NSt3__19allocatorIS7_EEEEEEEENS_7decoder16BackpointerTokenEE18ProcessNonemittingEf",
            "__ZN5kaldi23LatticeFasterDecoderTplIN3fst13GrammarFstTplIKNS1_8ConstFstINS1_6ArcTplINS1_17TropicalWeightTplIfEEEEjEEEENS_7decoder8StdTokenEE15AdvanceDecodingEPNS_18DecodableInterfaceEi",
            "__ZN5kaldi12CuMatrixBaseIdE10SymAddMat2EdRKS1_NS_19MatrixTransposeTypeEd",
            "__ZN5kaldi23LatticeFasterDecoderTplIN3fst8ConstFstINS1_6ArcTplINS1_17TropicalWeightTplIfEEEEjEENS_7decoder16BackpointerTokenEEC2ERKNS_26LatticeFasterDecoderConfigEPS7_",
            "__ZNK5kaldi10MatrixBaseIfE9AddToRowsEfPKiPS1_",
            "__ZN5kaldi23LatticeFasterDecoderTplIN3fst3FstINS1_6ArcTplINS1_17TropicalWeightTplIfEEEEEENS_7decoder8StdTokenEE18DeleteForwardLinksEPS9_",
            "__ZN5kaldi10MatrixBaseIdE10AddMatSmatEdRKS1_RKNS_12SparseMatrixIdEENS_19MatrixTransposeTypeEd",
            "__ZNK5kaldi20SplitRadixComplexFftIdE7ComputeEPdS2_b",
            "__ZN5kaldi12CuMatrixBaseIdE8CopyColsERKS1_RKNS_11CuArrayBaseIiEE",
            "__ZN5kaldi12CuMatrixBaseIdE6AddMatEdRKS1_NS_19MatrixTransposeTypeE",
            "__ZN5kaldi8SpMatrixIfE8AddTp2SpEfRKNS_8TpMatrixIfEENS_19MatrixTransposeTypeERKS1_f",
            "__ZN5kaldi23LatticeFasterDecoderTplIN3fst13GrammarFstTplIKNS1_8ConstFstINS1_6ArcTplINS1_17TropicalWeightTplIfEEEEjEEEENS_7decoder8StdTokenEE18PossiblyResizeHashEm",
            "__ZN5kaldi14CuPackedMatrixIdEC1ERKNS_12PackedMatrixIdEE",
            "__ZNK5kaldi10VectorBaseIfE6SumLogEv",
            "__ZN5kaldi12ParseOptions16RegisterStandardIdEEvRKNSt3__112basic_stringIcNS2_11char_traitsIcEENS2_9allocatorIcEEEEPT_SA_",
            "__ZN5kaldi6CuRandIfE12RandGaussianEPNS_12CuVectorBaseIfEE",
            "__ZN5kaldi10VectorBaseIdE14CopyColFromMatIfEEvRKNS_10MatrixBaseIT_EEi",
            "__ZNK5kaldi10MatrixBaseIdE8ColRangeEii",
            "__ZN5kaldi28LatticeIncrementalDecoderTplIN3fst13GrammarFstTplIKNS1_8ConstFstINS1_6ArcTplINS1_17TropicalWeightTplIfEEEEjEEEENS_7decoder16BackpointerTokenEE6DecodeEPNS_18DecodableInterfaceE",
            "__ZN5kaldi8WriteHtkIfEEbRNSt3__113basic_ostreamIcNS1_11char_traitsIcEEEERKNS_10MatrixBaseIT_EENS_9HtkHeaderE",
            "__ZN5kaldi12CuMatrixBaseIdE13GroupMaxDerivERKS1_S3_",
            "__ZNK5kaldi12PackedMatrixIdE3MaxEv",
            "__ZNK5kaldi23LatticeFasterDecoderTplIN3fst8ConstFstINS1_6ArcTplINS1_17TropicalWeightTplIfEEEEjEENS_7decoder8StdTokenEE17ComputeFinalCostsEPNSt3__113unordered_mapIPS9_fNSB_4hashISD_EENSB_8equal_toISD_EENSB_9allocatorINSB_4pairIKSD_fEEEEEEPfSP_",
            "__ZN5kaldi23LatticeFasterDecoderTplIN3fst9VectorFstINS1_6ArcTplINS1_17TropicalWeightTplIfEEEENS1_11VectorStateIS6_NSt3__19allocatorIS6_EEEEEENS_7decoder16BackpointerTokenEED1Ev",
            "__ZNK5kaldi29LatticeFasterOnlineDecoderTplIN3fst13GrammarFstTplINS1_9VectorFstINS1_6ArcTplINS1_17TropicalWeightTplIfEEEENS1_11VectorStateIS7_NSt3__19allocatorIS7_EEEEEEEEE19GetRawLatticePrunedEPNS3_INS4_INS1_16LatticeWeightTplIfEEEENS8_ISI_NSA_ISI_EEEEEEbf",
            "__ZN5kaldi12CuMatrixBaseIfE16CopyLowerToUpperEv",
            "__ZNK5kaldi23LatticeFasterDecoderTplIN3fst13GrammarFstTplIKNS1_8ConstFstINS1_6ArcTplINS1_17TropicalWeightTplIfEEEEjEEEENS_7decoder16BackpointerTokenEE17FinalRelativeCostEv",
            "__ZN5kaldi9TraceSpSpIfdEET_RKNS_10CuSpMatrixIS1_EERKNS2_IT0_EE",
            "__ZNK5kaldi29LatticeFasterOnlineDecoderTplIN3fst9VectorFstINS1_6ArcTplINS1_17TropicalWeightTplIfEEEENS1_11VectorStateIS6_NSt3__19allocatorIS6_EEEEEEE11GetBestPathEPNS2_INS3_INS1_16LatticeWeightTplIfEEEENS7_ISG_NS9_ISG_EEEEEEb",
            "__ZN5kaldi23LatticeFasterDecoderTplIN3fst13GrammarFstTplIKNS1_8ConstFstINS1_6ArcTplINS1_17TropicalWeightTplIfEEEEjEEEENS_7decoder16BackpointerTokenEE13TopSortTokensEPSC_PNSt3__16vectorISE_NSF_9allocatorISE_EEEE",
            "__ZN5kaldi28LatticeIncrementalDecoderTplIN3fst8ConstFstINS1_6ArcTplINS1_17TropicalWeightTplIfEEEEjEENS_7decoder8StdTokenEE9TokenListC2Ev",
            "__ZN5kaldi14CuSparseMatrixIfE9CsrColIdxEv",
            "__ZN5kaldi6VectorIfEC2Ev",
            "__ZN5kaldi14CuSparseMatrixIdEC1ERKS1_NS_19MatrixTransposeTypeE",
            "__ZN5kaldi12PackedMatrixIdEclEii",
            "__ZN5kaldi28LatticeIncrementalDecoderTplIN3fst8ConstFstINS1_6ArcTplINS1_17TropicalWeightTplIfEEEEjEENS_7decoder8StdTokenEE15AdvanceDecodingEPNS_18DecodableInterfaceEi",
            "__ZN5kaldi24OnlineGenericBaseFeatureINS_13FbankComputerEE8GetFrameEiPNS_10VectorBaseIfEE",
            "__ZNK5kaldi10VectorBaseIfE11ApproxEqualERKS1_f",
            "__ZN5kaldi23LatticeFasterDecoderTplIN3fst3FstINS1_6ArcTplINS1_17TropicalWeightTplIfEEEEEENS_7decoder16BackpointerTokenEE6DecodeEPNS_18DecodableInterfaceE",
            "__ZNK5kaldi29LatticeFasterOnlineDecoderTplIN3fst8ConstFstINS1_6ArcTplINS1_17TropicalWeightTplIfEEEEjEEE19GetRawLatticePrunedEPNS1_9VectorFstINS3_INS1_16LatticeWeightTplIfEEEENS1_11VectorStateISC_NSt3__19allocatorISC_EEEEEEbf",
            "__ZN5kaldi13TaskSequencerINS_33IvectorExtractorUpdateWeightClassEE7RunTaskEPNS2_15RunTaskArgsListE",
            "__ZN5kaldi28LatticeIncrementalDecoderTplIN3fst13GrammarFstTplINS1_9VectorFstINS1_6ArcTplINS1_17TropicalWeightTplIfEEEENS1_11VectorStateIS7_NSt3__19allocatorIS7_EEEEEEEENS_7decoder16BackpointerTokenEEC1ERKNS_31LatticeIncrementalDecoderConfigEPSE_RKNS_15TransitionModelE",
            "__ZNK5kaldi23LatticeFasterDecoderTplIN3fst8ConstFstINS1_6ArcTplINS1_17TropicalWeightTplIfEEEEjEENS_7decoder8StdTokenEE12ReachedFinalEv",
            "__ZN5kaldi8TpMatrixIdEC2ERKS1_",
            "__ZN5kaldi12ParseOptions12RegisterTmplIfEEvRKNSt3__112basic_stringIcNS2_11char_traitsIcEENS2_9allocatorIcEEEEPT_SA_",
            "__ZN5kaldi12PackedMatrixIdEC2Ev",
            "__ZN5kaldi10VectorBaseIfE12AddRowSumMatEfRKNS_10MatrixBaseIfEEf",
            "__ZN5kaldi23LatticeFasterDecoderTplIN3fst13GrammarFstTplINS1_9VectorFstINS1_6ArcTplINS1_17TropicalWeightTplIfEEEENS1_11VectorStateIS7_NSt3__19allocatorIS7_EEEEEEEENS_7decoder8StdTokenEE18ProcessNonemittingEf",
            "__ZN5kaldi8CuMatrixIfEC1ERKNS_13CuBlockMatrixIfEENS_19MatrixTransposeTypeE",
            "__ZN5kaldi12CuMatrixBaseIdE7MulRowsERKS1_RKNS_11CuArrayBaseIiEE",
            "__ZN5kaldi10MatrixBaseIfE5IndexEii",
            "__ZN5kaldi6VecVecIfdEET_RKNS_12CuVectorBaseIS1_EERKNS2_IT0_EE",
            "__ZN5kaldi8CuMatrixIdEC1IfEERKNS_10MatrixBaseIT_EENS_19MatrixTransposeTypeE",
            "__ZN5kaldi12CuMatrixBaseIdE13SoftMaxPerRowERKS1_",
            "__ZN5kaldi7ReadHtkIfEEbRNSt3__113basic_istreamIcNS1_11char_traitsIcEEEEPNS_6MatrixIT_EEPNS_9HtkHeaderE",
            "__ZN5kaldi28LatticeIncrementalDecoderTplIN3fst9VectorFstINS1_6ArcTplINS1_17TropicalWeightTplIfEEEENS1_11VectorStateIS6_NSt3__19allocatorIS6_EEEEEENS_7decoder8StdTokenEE9TokenListC1Ev",
            "__ZN5kaldi10MatrixBaseIdE3LogERKS1_",
            "__ZN5kaldi10MatrixBaseIdE8ApplyLogEv",
            "__ZN5kaldi10MatrixBaseIdE10AddMatSmatEdRKS1_NS_19MatrixTransposeTypeES3_S4_d",
            "__ZN5kaldi22OnlineSilenceWeighting23ComputeCurrentTracebackIN3fst3FstINS2_6ArcTplINS2_17TropicalWeightTplIfEEEEEEEEvRKNS_29LatticeFasterOnlineDecoderTplIT_EEb",
            "__ZN5kaldi28LatticeIncrementalDecoderTplIN3fst13GrammarFstTplINS1_9VectorFstINS1_6ArcTplINS1_17TropicalWeightTplIfEEEENS1_11VectorStateIS7_NSt3__19allocatorIS7_EEEEEEEENS_7decoder8StdTokenEE10GetLatticeEib",
            "__ZNK5kaldi12SparseMatrixIdE7NumRowsEv",
            "__ZNK5kaldi34LatticeIncrementalOnlineDecoderTplIN3fst8ConstFstINS1_6ArcTplINS1_17TropicalWeightTplIfEEEEjEEE11GetBestPathEPNS1_9VectorFstINS3_INS1_16LatticeWeightTplIfEEEENS1_11VectorStateISC_NSt3__19allocatorISC_EEEEEEb",
            "__ZN3fst13GrammarFstTplINS_9VectorFstINS_6ArcTplINS_17TropicalWeightTplIfEEEENS_11VectorStateIS5_NSt3__19allocatorIS5_EEEEEEE11CombineArcsERKS5_SE_fPS5_",
            "__ZN5kaldi8CuVectorIdE6ResizeEiNS_16MatrixResizeTypeE",
            "__ZN5kaldi23LatticeFasterDecoderTplIN3fst13GrammarFstTplINS1_9VectorFstINS1_6ArcTplINS1_17TropicalWeightTplIfEEEENS1_11VectorStateIS7_NSt3__19allocatorIS7_EEEEEEEENS_7decoder16BackpointerTokenEEC2ERKNS_26LatticeFasterDecoderConfigEPSE_",
            "__ZN5kaldi24OnlineGenericBaseFeatureINS_12MfccComputerEE15ComputeFeaturesEv",
            "__ZN5kaldi28LatticeIncrementalDecoderTplIN3fst13GrammarFstTplINS1_9VectorFstINS1_6ArcTplINS1_17TropicalWeightTplIfEEEENS1_11VectorStateIS7_NSt3__19allocatorIS7_EEEEEEEENS_7decoder8StdTokenEED2Ev",
            "__ZN5kaldi13CuBlockMatrixIfEC2ERKS1_",
            "__ZNK5kaldi10MatrixBaseIfE13FrobeniusNormEv",
            "__ZN5kaldi12CuVectorBaseIdE3VecEv",
            "__ZN5kaldi12SparseMatrixIfE6ResizeEiiNS_16MatrixResizeTypeE",
            "__ZN5kaldi10VectorBaseIfE15CopyColsFromMatERKNS_10MatrixBaseIfEE",
            "__ZN5kaldi10MatrixBaseIdE16CopyUpperToLowerEv",
            "__ZN5kaldi6MatrixIdE7DestroyEv",
            "__ZN5kaldi8CuMatrixIfEC1ERKNS_12CuMatrixBaseIfEENS_19MatrixTransposeTypeE",
            "__ZN5kaldi12CuMatrixBaseIfE17AddMatMatElementsEfRKS1_S3_f",
            "__ZN5kaldi6CuRandIfE11RandUniformEPNS_8CuMatrixIfEE",
            "__ZN5kaldi23LatticeFasterDecoderTplIN3fst3FstINS1_6ArcTplINS1_17TropicalWeightTplIfEEEEEENS_7decoder16BackpointerTokenEE9TokenListC2Ev",
            "__ZN5kaldi13CuBlockMatrixIdE12FreeCudaDataEv",
            "__ZN5kaldi23LatticeFasterDecoderTplIN3fst13GrammarFstTplINS1_9VectorFstINS1_6ArcTplINS1_17TropicalWeightTplIfEEEENS1_11VectorStateIS7_NSt3__19allocatorIS7_EEEEEEEENS_7decoder16BackpointerTokenEE18DeleteForwardLinksEPSG_",
            "__ZN5kaldi10MatrixBaseIdE14SetRandUniformEv",
            "__ZNK5kaldi12CuVectorBaseIdEclEi",
            "__ZN5kaldi12CuMatrixBaseIfE7CeilingERKS1_f",
            "__ZN5kaldi12CuVectorBaseIdE8ApplyExpEv",
            "__ZN5kaldi14CuSparseMatrixIdEC1ERKNS_12SparseMatrixIdEE",
            "__ZN3fst6script17FarCompileStringsINS_6ArcTplINS_17TropicalWeightTplIfEEEEEEvPNS0_21FarCompileStringsArgsE",
            "__ZN5kaldi10VectorBaseIdE5ScaleEd",
            "__ZNK5kaldi29LatticeFasterOnlineDecoderTplIN3fst3FstINS1_6ArcTplINS1_17TropicalWeightTplIfEEEEEEE17TraceBackBestPathENS8_16BestPathIteratorEPNS3_INS1_16LatticeWeightTplIfEEEE",
            "__ZN5kaldi10MatrixBaseIfE9AddVecVecIdEEvfRKNS_10VectorBaseIT_EES7_",
            "__ZN5kaldi12CuVectorBaseIdE5RangeEii",
            "__ZN5kaldi12CuVectorBaseIfE15CopyRowsFromMatERKNS_12CuMatrixBaseIfEE",
            "__ZN5kaldi14CuPackedMatrixIfE7SetZeroEv",
            "__ZNK5kaldi23LatticeFasterDecoderTplIN3fst9VectorFstINS1_6ArcTplINS1_17TropicalWeightTplIfEEEENS1_11VectorStateIS6_NSt3__19allocatorIS6_EEEEEENS_7decoder8StdTokenEE10GetOptionsEv",
            "__ZN5kaldi14CuSparseMatrixIdED2Ev",
            "__ZN5kaldi28LatticeIncrementalDecoderTplIN3fst13GrammarFstTplINS1_9VectorFstINS1_6ArcTplINS1_17TropicalWeightTplIfEEEENS1_11VectorStateIS7_NSt3__19allocatorIS7_EEEEEEEENS_7decoder16BackpointerTokenEE21AllocateNewTokenLabelEv",
            "__ZN5kaldi12CuMatrixBaseIdEclEii",
            "__ZN5kaldi10VectorBaseIfEclEi",
            "__ZN5kaldi12CuMatrixBaseIdE15MulRowsGroupMatERKS1_",
            "__ZN5kaldi8CuMatrixIfE4ReadERNSt3__113basic_istreamIcNS2_11char_traitsIcEEEEb",
            "__ZNK5kaldi12SparseMatrixIdE7NumColsEv",
            "__ZNK5kaldi12SparseVectorIdE11NumElementsEv",
            "__ZN5kaldi12CuMatrixBaseIdE8AddSpMatEdRKNS_10CuSpMatrixIdEERKS1_NS_19MatrixTransposeTypeEd",
            "__ZN5kaldi28LatticeIncrementalDecoderTplIN3fst9VectorFstINS1_6ArcTplINS1_17TropicalWeightTplIfEEEENS1_11VectorStateIS6_NSt3__19allocatorIS6_EEEEEENS_7decoder16BackpointerTokenEEC1ERKNS_31LatticeIncrementalDecoderConfigEPSC_RKNS_15TransitionModelE",
            "__ZN5kaldi8CuVectorIdEC2EiNS_16MatrixResizeTypeE",
            "__ZN5kaldi6CuRandIdE13BinarizeProbsERKNS_8CuMatrixIdEEPS3_",
            "__ZN5kaldi10VectorBaseIfE11AddDiagMat2EfRKNS_10MatrixBaseIfEENS_19MatrixTransposeTypeEf",
            "_ABReceiverPortIsConnected",
            "__ZN5kaldi12SparseVectorIfE12CopyFromSvecIdEEvRKNS0_IT_EE",
            "__ZN5kaldi10MatrixBaseIfE16SymPosSemiDefEigEPNS_10VectorBaseIfEEPS1_f",
            "__ZN5kaldi12CuVectorBaseIfE12ApplyCeilingEfPi",
            "__ZN5kaldi10MatrixBaseIfE3SetEf",
            "__ZN5kaldi28LatticeIncrementalDecoderTplIN3fst8ConstFstINS1_6ArcTplINS1_17TropicalWeightTplIfEEEEjEENS_7decoder16BackpointerTokenEE17PruneForwardLinksEiPbSB_f",
            "__ZN5kaldi13TaskSequencerINS_37IvectorExtractorUpdateProjectionClassEE7RunTaskEPNS2_15RunTaskArgsListE",
            "__ZN5kaldi12CuMatrixBaseIfE3ExpERKS1_",
            "__ZN5kaldi13OptimizeLbfgsIdEC2ERKNS_10VectorBaseIdEERKNS_12LbfgsOptionsE",
            "__ZN5kaldi12CuMatrixBaseIdE20DiffLogSoftmaxPerRowERKS1_S3_",
            "__ZN5kaldi23EigenvalueDecompositionIfE18GetImagEigenvaluesEPNS_10VectorBaseIfEE",
            "__ZN5kaldi28LatticeIncrementalDecoderTplIN3fst8ConstFstINS1_6ArcTplINS1_17TropicalWeightTplIfEEEEjEENS_7decoder16BackpointerTokenEEC1ERKNS_31LatticeIncrementalDecoderConfigEPS7_RKNS_15TransitionModelE",
            "__ZNK5kaldi23LatticeFasterDecoderTplIN3fst9VectorFstINS1_6ArcTplINS1_17TropicalWeightTplIfEEEENS1_11VectorStateIS6_NSt3__19allocatorIS6_EEEEEENS_7decoder8StdTokenEE10GetLatticeEPNS2_INS3_INS1_23CompactLatticeWeightTplINS1_16LatticeWeightTplIfEEiEEEENS7_ISK_NS9_ISK_EEEEEEb",
            "__ZN5kaldi12ParseOptions16RegisterStandardIfEEvRKNSt3__112basic_stringIcNS2_11char_traitsIcEENS2_9allocatorIcEEEEPT_SA_",
            "__ZN5kaldi28LatticeIncrementalDecoderTplIN3fst13GrammarFstTplINS1_9VectorFstINS1_6ArcTplINS1_17TropicalWeightTplIfEEEENS1_11VectorStateIS7_NSt3__19allocatorIS7_EEEEEEEENS_7decoder8StdTokenEE17PruneActiveTokensEf",
            "__ZN5kaldi8CuMatrixIfEC1Ev",
            "__ZN5kaldi12CuVectorBaseIdE11CopyFromVecIdEEvRKNS_10VectorBaseIT_EE",
            "__ZNK5kaldi23LatticeFasterDecoderTplIN3fst3FstINS1_6ArcTplINS1_17TropicalWeightTplIfEEEEEENS_7decoder16BackpointerTokenEE17ComputeFinalCostsEPNSt3__113unordered_mapIPS9_fNSB_4hashISD_EENSB_8equal_toISD_EENSB_9allocatorINSB_4pairIKSD_fEEEEEEPfSP_",
            "__ZN5kaldi8CuVectorIdEC1ERKS1_",
            "__ZN3fst6script10FarExtractINS_6ArcTplINS_12LogWeightTplIfEEEEEEvPNS0_4args7PackageIRKNSt3__16vectorINS8_12basic_stringIcNS8_11char_traitsIcEENS8_9allocatorIcEEEENSD_ISF_EEEEiRKSF_SL_SL_SL_SL_NS6_9none_typeESM_EE",
            "__ZN3fst6script15FarPrintStringsINS_6ArcTplINS_17TropicalWeightTplIfEEEEEEvPNS0_19FarPrintStringsArgsE",
            "__ZN5kaldi28LatticeIncrementalDecoderTplIN3fst8ConstFstINS1_6ArcTplINS1_17TropicalWeightTplIfEEEEjEENS_7decoder8StdTokenEE10GetLatticeEib",
            "__ZN5kaldi10VectorBaseIdE12AddVecDivVecEdRKS1_S3_d",
            "__ZN5kaldi28LatticeIncrementalDecoderTplIN3fst13GrammarFstTplIKNS1_8ConstFstINS1_6ArcTplINS1_17TropicalWeightTplIfEEEEjEEEENS_7decoder8StdTokenEE9TokenListC2Ev",
            "__ZN5kaldi28LatticeIncrementalDecoderTplIN3fst13GrammarFstTplIKNS1_8ConstFstINS1_6ArcTplINS1_17TropicalWeightTplIfEEEEjEEEENS_7decoder16BackpointerTokenEED2Ev",
            "__ZN5kaldi10MatrixBaseIfEclEii",
            "__ZN5kaldi10VectorBaseIfE5MulTpERKNS_8TpMatrixIfEENS_19MatrixTransposeTypeE",
            "__ZN5kaldi28LatticeIncrementalDecoderTplIN3fst8ConstFstINS1_6ArcTplINS1_17TropicalWeightTplIfEEEEjEENS_7decoder16BackpointerTokenEEC1ERKS7_RKNS_15TransitionModelERKNS_31LatticeIncrementalDecoderConfigE",
            "__ZN5kaldi28LatticeIncrementalDecoderTplIN3fst3FstINS1_6ArcTplINS1_17TropicalWeightTplIfEEEEEENS_7decoder16BackpointerTokenEE28UpdateLatticeDeterminizationEv",
            "__ZN5kaldi12CuVectorBaseIdE7SetZeroEv",
            "__ZN5kaldi22OnlineSilenceWeighting23ComputeCurrentTracebackIN3fst13GrammarFstTplINS2_9VectorFstINS2_6ArcTplINS2_17TropicalWeightTplIfEEEENS2_11VectorStateIS8_NSt3__19allocatorIS8_EEEEEEEEEEvRKNS_34LatticeIncrementalOnlineDecoderTplIT_EEb",
            "__ZN5kaldi10MatrixBaseIfE9TransposeEv",
            "__ZN5kaldi12CuVectorBaseIfE4NormEf",
            "__ZNK5kaldi10CuSpMatrixIdE11ApproxEqualERKS1_d",
            "__ZN3fst13GrammarFstTplIKNS_8ConstFstINS_6ArcTplINS_17TropicalWeightTplIfEEEEjEEE18InitNonterminalMapEv",
            "__ZN5kaldi10MatrixBaseIdE3PowERKS1_d",
            "__ZN5kaldi28LatticeIncrementalDecoderTplIN3fst13GrammarFstTplINS1_9VectorFstINS1_6ArcTplINS1_17TropicalWeightTplIfEEEENS1_11VectorStateIS7_NSt3__19allocatorIS7_EEEEEEEENS_7decoder16BackpointerTokenEE18GetNumToksForFrameEi",
            "__ZN5kaldi10VectorBaseIfE11MulElementsERKS1_",
            "__ZN5kaldi8SpMatrixIdE10AddMat2VecEdRKNS_10MatrixBaseIdEENS_19MatrixTransposeTypeERKNS_10VectorBaseIdEEd",
            "__ZN3fst13FstRegistererINS_10CompactFstINS_6ArcTplINS_12LogWeightTplIfEEEENS_23WeightedStringCompactorIS5_EEjNS_19DefaultCompactStoreINSt3__14pairIiS4_EEjEENS_17DefaultCacheStoreIS5_EEEEE7ConvertERKNS_3FstIS5_EE",
            "__ZNK5kaldi23LatticeFasterDecoderTplIN3fst3FstINS1_6ArcTplINS1_17TropicalWeightTplIfEEEEEENS_7decoder16BackpointerTokenEE12ReachedFinalEv",
            "__ZN5kaldi10MatrixBaseIfE12AddMatMatMatEfRKS1_NS_19MatrixTransposeTypeES3_S4_S3_S4_f",
            "__ZN5kaldi12CuVectorBaseIfE15CopyRowsFromMatERKNS_10MatrixBaseIfEE",
            "__ZNK5kaldi14CuPackedMatrixIdE11SizeInBytesEv",
            "__ZN5kaldi12CuMatrixBaseIfE8ApplyLogEv",
            "__ZN5kaldi28LatticeIncrementalDecoderTplIN3fst9VectorFstINS1_6ArcTplINS1_17TropicalWeightTplIfEEEENS1_11VectorStateIS6_NSt3__19allocatorIS6_EEEEEENS_7decoder16BackpointerTokenEED1Ev",
            "__ZN3cpr4util20progressUserFunctionINS_20CancellationCallbackEEEiPKT_llll",
            "__ZN5kaldi12ParseOptions16RegisterStandardIjEEvRKNSt3__112basic_stringIcNS2_11char_traitsIcEENS2_9allocatorIcEEEEPT_SA_",
            "__ZN5kaldi10CuSpMatrixIfED2Ev",
            "__ZN5kaldi12CuMatrixBaseIfE9SoftHingeERKS1_",
            "__ZN5kaldi14CuSparseMatrixIfEC1Ev",
            "__ZN5kaldi29LatticeFasterOnlineDecoderTplIN3fst13GrammarFstTplINS1_9VectorFstINS1_6ArcTplINS1_17TropicalWeightTplIfEEEENS1_11VectorStateIS7_NSt3__19allocatorIS7_EEEEEEEEEC1ERKNS_26LatticeFasterDecoderConfigEPSE_",
            "__ZN5kaldi10VectorBaseIdE13CopyRowFromSpIfEEvRKNS_8SpMatrixIT_EEi",
            "__ZN5kaldi12CuMatrixBaseIdE11AddMatBlockEdRKS1_NS_19MatrixTransposeTypeERKNS_13CuBlockMatrixIdEES4_d",
            "__ZN5kaldi28LatticeIncrementalDecoderTplIN3fst8ConstFstINS1_6ArcTplINS1_17TropicalWeightTplIfEEEEjEENS_7decoder8StdTokenEE18GetNumToksForFrameEi",
            "__ZN5kaldi8CuVectorIdEC2ERKS1_",
            "__ZN5kaldi14CuPackedMatrixIfED2Ev",
            "__ZNK5kaldi10MatrixBaseIdE15Data_workaroundEv",
            "__ZN5kaldi23LatticeFasterDecoderTplIN3fst9VectorFstINS1_6ArcTplINS1_17TropicalWeightTplIfEEEENS1_11VectorStateIS6_NSt3__19allocatorIS6_EEEEEENS_7decoder8StdTokenEE18ProcessNonemittingEf",
            "__ZN5kaldi10VectorBaseIdE15CopyDiagFromMatERKNS_10MatrixBaseIdEE",
            "__ZN5kaldi6MatrixIfE4SwapEPS1_",
            "__ZN5kaldi10MatrixBaseIfE5FloorERKS1_f",
            "__ZN5kaldi12TraceMatSmatIdEET_RKNS_10MatrixBaseIS1_EERKNS_12SparseMatrixIS1_EENS_19MatrixTransposeTypeE",
            "__ZN3fst10CompactFstINS_6ArcTplINS_17TropicalWeightTplIfEEEENS_27UnweightedAcceptorCompactorIS4_EEjNS_19DefaultCompactStoreINSt3__14pairIiiEEjEENS_17DefaultCacheStoreIS4_EEE4ReadERNS8_13basic_istreamIcNS8_11char_traitsIcEEEERKNS_14FstReadOptionsE",
            "__ZN5kaldi10MatrixBaseIdE8DiffTanhERKS1_S3_",
            "__ZNK5kaldi23LatticeFasterDecoderTplIN3fst8ConstFstINS1_6ArcTplINS1_17TropicalWeightTplIfEEEEjEENS_7decoder16BackpointerTokenEE16NumFramesDecodedEv",
            "__ZN5kaldi8SpMatrixIfE10AddDiagVecIdEEvfRKNS_10VectorBaseIT_EE",
            "__ZN5kaldi10MatrixBaseIdE5FloorERKS1_d",
            "__ZN5kaldi23LatticeFasterDecoderTplIN3fst3FstINS1_6ArcTplINS1_17TropicalWeightTplIfEEEEEENS_7decoder16BackpointerTokenEE18PossiblyResizeHashEm",
            "__ZN5kaldi14TraceSpSpLowerIfEET_RKNS_8SpMatrixIS1_EES5_",
            "__ZN5kaldi14CuPackedMatrixIfEC2EiNS_16MatrixResizeTypeE",
            "__ZN5kaldi23LatticeFasterDecoderTplIN3fst9VectorFstINS1_6ArcTplINS1_17TropicalWeightTplIfEEEENS1_11VectorStateIS6_NSt3__19allocatorIS6_EEEEEENS_7decoder8StdTokenEE22PruneForwardLinksFinalEv",
            "__ZN5kaldi23LatticeFasterDecoderTplIN3fst9VectorFstINS1_6ArcTplINS1_17TropicalWeightTplIfEEEENS1_11VectorStateIS6_NSt3__19allocatorIS6_EEEEEENS_7decoder16BackpointerTokenEE13TopSortTokensEPSE_PNS8_6vectorISG_NS9_ISG_EEEE",
            "__ZNK5kaldi13CuBlockMatrixIfE7NumRowsEv",
            "__ZN5kaldi12CuMatrixBaseIdE7RowDataEi",
            "__ZN5kaldi13CuBlockMatrixIfEC2Ev",
            "__ZN5kaldi12SparseVectorIdEC1Ei",
            "__ZN5kaldi23LatticeFasterDecoderTplIN3fst13GrammarFstTplINS1_9VectorFstINS1_6ArcTplINS1_17TropicalWeightTplIfEEEENS1_11VectorStateIS7_NSt3__19allocatorIS7_EEEEEEEENS_7decoder16BackpointerTokenEEC1ERKSE_RKNS_26LatticeFasterDecoderConfigE",
            "__ZN5kaldi23LatticeFasterDecoderTplIN3fst9VectorFstINS1_6ArcTplINS1_17TropicalWeightTplIfEEEENS1_11VectorStateIS6_NSt3__19allocatorIS6_EEEEEENS_7decoder8StdTokenEEC2ERKNS_26LatticeFasterDecoderConfigEPSC_",
            "__ZN5kaldi12SparseMatrixIfEC2ERKNSt3__16vectorIiNS2_9allocatorIiEEEERKNS_10VectorBaseIfEEiNS_19MatrixTransposeTypeE",
            "__ZN5kaldi10MatrixBaseIfE11CopyFromMatERKNS_16CompressedMatrixE",
            "__ZN5kaldi10MatrixBaseIdE3ExpERKS1_",
            "__ZN5kaldi23LatticeFasterDecoderTplIN3fst13GrammarFstTplINS1_9VectorFstINS1_6ArcTplINS1_17TropicalWeightTplIfEEEENS1_11VectorStateIS7_NSt3__19allocatorIS7_EEEEEEEENS_7decoder16BackpointerTokenEE12InitDecodingEv",
            "__ZN5kaldi12CuVectorBaseIfE5MulTpERKNS_10CuTpMatrixIfEENS_19MatrixTransposeTypeE",
            "__ZN5kaldi12SparseVectorIdE12CopyFromSvecIfEEvRKNS0_IT_EE",
            "__ZN5kaldi12SparseVectorIdE12CopyFromSvecIdEEvRKNS0_IT_EE",
            "__ZN3fst24DeterminizeLatticePrunedINS_16LatticeWeightTplIfEEiEEbRKNS_11ExpandedFstINS_6ArcTplIT_EEEEdPNS_10MutableFstINS4_INS_23CompactLatticeWeightTplIS5_T0_EEEEEENS_31DeterminizeLatticePrunedOptionsE",
            "__ZN5kaldi14CuPackedMatrixIfEC1ERKNS_12PackedMatrixIfEE",
            "__ZN5kaldi23LatticeFasterDecoderTplIN3fst9VectorFstINS1_6ArcTplINS1_17TropicalWeightTplIfEEEENS1_11VectorStateIS6_NSt3__19allocatorIS6_EEEEEENS_7decoder8StdTokenEE10SetOptionsERKNS_26LatticeFasterDecoderConfigE",
            "__ZN5kaldi10CuSpMatrixIfE6ResizeEiNS_16MatrixResizeTypeE",
            "__ZNK5kaldi16CompressedMatrix12CopyColToVecIdEEviPNS_10VectorBaseIT_EE",
            "__ZN5kaldi28LatticeIncrementalDecoderTplIN3fst9VectorFstINS1_6ArcTplINS1_17TropicalWeightTplIfEEEENS1_11VectorStateIS6_NSt3__19allocatorIS6_EEEEEENS_7decoder8StdTokenEEC2ERKNS_31LatticeIncrementalDecoderConfigEPSC_RKNS_15TransitionModelE",
            "__ZN5kaldi12CuVectorBaseIfE11CopyFromVecIfEEvRKNS_10VectorBaseIT_EE",
            "__ZN5kaldi23LatticeFasterDecoderTplIN3fst13GrammarFstTplINS1_9VectorFstINS1_6ArcTplINS1_17TropicalWeightTplIfEEEENS1_11VectorStateIS7_NSt3__19allocatorIS7_EEEEEEEENS_7decoder8StdTokenEE14FindOrAddTokenExifPSG_Pb",
            "__ZN5kaldi28LatticeIncrementalDecoderTplIN3fst3FstINS1_6ArcTplINS1_17TropicalWeightTplIfEEEEEENS_7decoder8StdTokenEE18DeleteForwardLinksEPS9_",
            "__ZN5kaldi8CuMatrixIdEC2ERKNS_10CuSpMatrixIdEE",
            "__ZN5kaldi10MatrixBaseIdE8CopyRowsERKS1_PKi",
            "__ZN5kaldi28LatticeIncrementalDecoderTplIN3fst13GrammarFstTplIKNS1_8ConstFstINS1_6ArcTplINS1_17TropicalWeightTplIfEEEEjEEEENS_7decoder16BackpointerTokenEE17PruneForwardLinksEiPbSE_f",
            "__ZN5kaldi23LatticeFasterDecoderTplIN3fst3FstINS1_6ArcTplINS1_17TropicalWeightTplIfEEEEEENS_7decoder8StdTokenEEC1ERKS7_RKNS_26LatticeFasterDecoderConfigE",
            "__ZN5kaldi6MatrixIdEC2EiiNS_16MatrixResizeTypeENS_16MatrixStrideTypeE",
            "__ZN5kaldi12PackedMatrixIfE7SetDiagEf",
            "__ZN5kaldi34LatticeIncrementalOnlineDecoderTplIN3fst9VectorFstINS1_6ArcTplINS1_17TropicalWeightTplIfEEEENS1_11VectorStateIS6_NSt3__19allocatorIS6_EEEEEEEC1ERKSC_RKNS_15TransitionModelERKNS_31LatticeIncrementalDecoderConfigE",
            "__ZN3fst25PushCompactLatticeWeightsINS_16LatticeWeightTplIfEEiEEbPNS_10MutableFstINS_6ArcTplINS_23CompactLatticeWeightTplIT_T0_EEEEEE",
            "__ZN5kaldi12CuMatrixBaseIfE15CopyColsFromVecERKNS_12CuVectorBaseIfEE",
            "__ZN5kaldi28LatticeIncrementalDecoderTplIN3fst8ConstFstINS1_6ArcTplINS1_17TropicalWeightTplIfEEEEjEENS_7decoder8StdTokenEE15ProcessEmittingEPNS_18DecodableInterfaceE",
            "__ZNK5kaldi14CuSparseMatrixIfE9CopyToMatIfEEvPNS_12CuMatrixBaseIT_EENS_19MatrixTransposeTypeE",
            "__ZN5kaldi28LatticeIncrementalDecoderTplIN3fst9VectorFstINS1_6ArcTplINS1_17TropicalWeightTplIfEEEENS1_11VectorStateIS6_NSt3__19allocatorIS6_EEEEEENS_7decoder16BackpointerTokenEE10SetOptionsERKNS_31LatticeIncrementalDecoderConfigE",
            "__ZN5kaldi12CuMatrixBaseIfE11DivElementsERKS1_",
            "__ZN5kaldi23LatticeFasterDecoderTplIN3fst8ConstFstINS1_6ArcTplINS1_17TropicalWeightTplIfEEEEjEENS_7decoder8StdTokenEE18DeleteForwardLinksEPS9_",
            "__ZNK5kaldi12PackedMatrixIfE3MaxEv",
            "__ZN5kaldi10VectorBaseIdE14CopyColFromMatIdEEvRKNS_10MatrixBaseIT_EEi",
            "__ZNK5kaldi10MatrixBaseIfE7NumColsEv",
            "__ZN3fst13GrammarFstTplINS_9VectorFstINS_6ArcTplINS_17TropicalWeightTplIfEEEENS_11VectorStateIS5_NSt3__19allocatorIS5_EEEEEEE22InitEntryOrReentryArcsERSB_iiPNS7_13unordered_mapIiiNS7_4hashIiEENS7_8equal_toIiEENS8_INS7_4pairIKiiEEEEEE",
            "__ZN5kaldi28LatticeIncrementalDecoderTplIN3fst13GrammarFstTplINS1_9VectorFstINS1_6ArcTplINS1_17TropicalWeightTplIfEEEENS1_11VectorStateIS7_NSt3__19allocatorIS7_EEEEEEEENS_7decoder8StdTokenEE18ProcessNonemittingEf",
            "__ZN5kaldi28LatticeIncrementalDecoderTplIN3fst13GrammarFstTplINS1_9VectorFstINS1_6ArcTplINS1_17TropicalWeightTplIfEEEENS1_11VectorStateIS7_NSt3__19allocatorIS7_EEEEEEEENS_7decoder8StdTokenEE17PruneForwardLinksEiPbSI_f",
            "__ZN5kaldi34LatticeIncrementalOnlineDecoderTplIN3fst13GrammarFstTplINS1_9VectorFstINS1_6ArcTplINS1_17TropicalWeightTplIfEEEENS1_11VectorStateIS7_NSt3__19allocatorIS7_EEEEEEEEE16BestPathIterator4DoneEv",
            "__ZN5kaldi23LatticeFasterDecoderTplIN3fst3FstINS1_6ArcTplINS1_17TropicalWeightTplIfEEEEEENS_7decoder16BackpointerTokenEE12InitDecodingEv",
            "__ZN5kaldi28LatticeIncrementalDecoderTplIN3fst13GrammarFstTplIKNS1_8ConstFstINS1_6ArcTplINS1_17TropicalWeightTplIfEEEEjEEEENS_7decoder8StdTokenEE12InitDecodingEv",
            "__ZN5kaldi9SubMatrixIfEC1ERKNS_10MatrixBaseIfEEiiii",
            "__ZN5kaldi10MatrixBaseIfE10ApplyFloorEf",
            "__ZN3fst11ArcIteratorINS_13GrammarFstTplIKNS_8ConstFstINS_6ArcTplINS_17TropicalWeightTplIfEEEEjEEEEE13CopyArcToTempEv",
            "__ZN5kaldi10MatrixBaseIfE10SymAddMat2EfRKS1_NS_19MatrixTransposeTypeEf",
            "__ZN5kaldi14CuSparseMatrixIfE4SmatEv",
            "__ZN5kaldi12CuMatrixBaseIdE8SetRandnEv",
            "__ZN5kaldi8SpMatrixIfE6AddTp2EfRKNS_8TpMatrixIfEENS_19MatrixTransposeTypeEf",
            "__ZNK5kaldi12CuVectorBaseIfE5RangeEii",
            "__ZN5kaldi10VectorBaseIfE14CopyFromPackedIfEEvRKNS_12PackedMatrixIT_EE",
            "__ZN5kaldi12PackedMatrixIdE9ScaleDiagEd",
            "__ZN5kaldi12CuVectorBaseIfE7CeilingERKS1_fPi",
            "__ZN5kaldi8CuMatrixIdE4SwapEPS1_",
            "__ZN5kaldi10MatrixBaseIfE8AddMatTpEfRKS1_NS_19MatrixTransposeTypeERKNS_8TpMatrixIfEES4_f",
            "__ZN5kaldi12CuVectorBaseIdE7CeilingERKS1_dPi",
            "__ZN5kaldi10MatrixBaseIdE15ApplyExpSpecialEv",
            "__ZN5kaldi10VectorBaseIdE12ReplaceValueEdd",
            "__ZNK5kaldi12CuVectorBaseIfE11ApproxEqualERKS1_f",
            "__ZN5kaldi12CuMatrixBaseIfE18CopyFromGeneralMatERKNS_13GeneralMatrixENS_19MatrixTransposeTypeE",
            "__ZN5kaldi12SparseMatrixIfE12CopyFromSmatIfEEvRKNS0_IT_EENS_19MatrixTransposeTypeE",
            "__ZN5kaldi28LatticeIncrementalDecoderTplIN3fst3FstINS1_6ArcTplINS1_17TropicalWeightTplIfEEEEEENS_7decoder8StdTokenEE10GetLatticeEib",
            "__ZN5kaldi10VectorBaseIdE11MulElementsIfEEvRKNS0_IT_EE",
            "__ZN5kaldi8CuMatrixIfE4SwapEPNS_6MatrixIfEE",
            "__ZNK5kaldi14CuSparseMatrixIfE11NumElementsEv",
            "__ZN5kaldi2cu26CpuComputeLstmNonlinearityIdEEvRKNS_10MatrixBaseIT_EES6_PS4_",
            "__ZN3fst6script15FarPrintStringsINS_6ArcTplINS_12LogWeightTplIfEEEEEEvPNS0_19FarPrintStringsArgsE",
            "__ZNK5kaldi12CuMatrixBaseIfE7NumRowsEv",
            "__ZN5kaldi12CuVectorBaseIfE8SetRandnEv",
            "__ZN5kaldi13OptimizeLbfgsIdE10AcceptStepEdRKNS_10VectorBaseIdEE",
            "__ZNK3fst13GrammarFstTplINS_9VectorFstINS_6ArcTplINS_17TropicalWeightTplIfEEEENS_11VectorStateIS5_NSt3__19allocatorIS5_EEEEEEE5WriteERNS7_13basic_ostreamIcNS7_11char_traitsIcEEEEb",
            "__ZN5kaldi12CuMatrixBaseIfE8ApplyPowEf",
            "__ZN5kaldi23LatticeFasterDecoderTplIN3fst8ConstFstINS1_6ArcTplINS1_17TropicalWeightTplIfEEEEjEENS_7decoder8StdTokenEE15AdvanceDecodingEPNS_18DecodableInterfaceEi",
            "__ZN5kaldi17TraceMatMatMatMatIdEET_RKNS_10MatrixBaseIS1_EENS_19MatrixTransposeTypeES5_S6_S5_S6_S5_S6_",
            "__ZN5kaldi6VectorIfEC1ERKS1_",
            "__ZN5kaldi10MatrixBaseIdE6InvertEPdS2_b",
            "__ZN5kaldi29LatticeFasterOnlineDecoderTplIN3fst8ConstFstINS1_6ArcTplINS1_17TropicalWeightTplIfEEEEjEEEC1ERKNS_26LatticeFasterDecoderConfigEPS7_",
            "__ZN5kaldi12CuVectorBaseIdE4DataEv",
            "__ZNK5kaldi23LatticeFasterDecoderTplIN3fst13GrammarFstTplIKNS1_8ConstFstINS1_6ArcTplINS1_17TropicalWeightTplIfEEEEjEEEENS_7decoder16BackpointerTokenEE10GetOptionsEv",
            "__ZN5kaldi34LatticeIncrementalOnlineDecoderTplIN3fst9VectorFstINS1_6ArcTplINS1_17TropicalWeightTplIfEEEENS1_11VectorStateIS6_NSt3__19allocatorIS6_EEEEEEE16BestPathIteratorC2EPvi",
            "__ZN5kaldi23LatticeFasterDecoderTplIN3fst13GrammarFstTplINS1_9VectorFstINS1_6ArcTplINS1_17TropicalWeightTplIfEEEENS1_11VectorStateIS7_NSt3__19allocatorIS7_EEEEEEEENS_7decoder8StdTokenEEC1ERKSE_RKNS_26LatticeFasterDecoderConfigE",
            "__ZNK5kaldi12SparseVectorIfE3SumEv",
            "__ZN5kaldi12SparseVectorIfEC2EiRKNSt3__16vectorINS2_4pairIifEENS2_9allocatorIS5_EEEE",
            "__ZNK5kaldi28LatticeIncrementalDecoderTplIN3fst8ConstFstINS1_6ArcTplINS1_17TropicalWeightTplIfEEEEjEENS_7decoder8StdTokenEE17ComputeFinalCostsEPNSt3__113unordered_mapIPS9_fNSB_4hashISD_EENSB_8equal_toISD_EENSB_9allocatorINSB_4pairIKSD_fEEEEEEPfSP_",
            "__ZN5kaldi10MatrixBaseIdE14CopyColFromVecERKNS_10VectorBaseIdEEi",
            "__ZN5kaldi12CuMatrixBaseIfEC2EPfiii",
            "__ZN5kaldi34LatticeIncrementalOnlineDecoderTplIN3fst9VectorFstINS1_6ArcTplINS1_17TropicalWeightTplIfEEEENS1_11VectorStateIS6_NSt3__19allocatorIS6_EEEEEEEC1ERKNS_31LatticeIncrementalDecoderConfigEPSC_RKNS_15TransitionModelE",
            "__ZN5kaldi10MatrixBaseIdE15CopyRowsFromVecERKNS_10VectorBaseIdEE",
            "__ZN3fst6script8FarEqualINS_6ArcTplINS_12LogWeightTplIfEEEEEEvPNS0_4args15WithReturnValueIbNS6_7PackageIRKNSt3__112basic_stringIcNS9_11char_traitsIcEENS9_9allocatorIcEEEESH_fSH_SH_NS6_9none_typeESI_SI_SI_EEEE",
            "__ZNK5kaldi8SpMatrixIdEclEii",
            "__ZN5kaldi10MatrixBaseIfE8ApplyPowEf",
            "__ZNK5kaldi14CuPackedMatrixIdEclEii",
            "__ZNK5kaldi14CuPackedMatrixIdE4DataEv",
            "__ZN5kaldi6VectorIfE4InitEi",
            "__ZNK5kaldi12SparseVectorIfE4DataEv",
            "__ZN5kaldi14CuSparseMatrixIfEC2ERKNS_7CuArrayIiEERKNS_12CuVectorBaseIfEEiNS_19MatrixTransposeTypeE",
            "__ZN5kaldi28LatticeIncrementalDecoderTplIN3fst9VectorFstINS1_6ArcTplINS1_17TropicalWeightTplIfEEEENS1_11VectorStateIS6_NSt3__19allocatorIS6_EEEEEENS_7decoder8StdTokenEE18PossiblyResizeHashEm",
            "__ZN5kaldi14CuPackedMatrixIdED1Ev",
            "__ZN5kaldi10VectorBaseIfE13AddDiagMatMatEfRKNS_10MatrixBaseIfEENS_19MatrixTransposeTypeES5_S6_f",
            "__ZN5kaldi23LatticeFasterDecoderTplIN3fst13GrammarFstTplIKNS1_8ConstFstINS1_6ArcTplINS1_17TropicalWeightTplIfEEEEjEEEENS_7decoder16BackpointerTokenEE18PossiblyResizeHashEm",
            "__ZN5kaldi23LatticeFasterDecoderTplIN3fst13GrammarFstTplIKNS1_8ConstFstINS1_6ArcTplINS1_17TropicalWeightTplIfEEEEjEEEENS_7decoder8StdTokenEEC2ERKSA_RKNS_26LatticeFasterDecoderConfigE",
            "__ZN3fst13GrammarFstTplIKNS_8ConstFstINS_6ArcTplINS_17TropicalWeightTplIfEEEEjEEE14ExpandStateEndEii",
            "__ZNK5kaldi29LatticeFasterOnlineDecoderTplIN3fst8ConstFstINS1_6ArcTplINS1_17TropicalWeightTplIfEEEEjEEE17TraceBackBestPathENS8_16BestPathIteratorEPNS3_INS1_16LatticeWeightTplIfEEEE",
            "__ZN5kaldi20SplitRadixComplexFftIfEC1ERKS1_",
            "__ZNK5kaldi10MatrixBaseIdE6IsZeroEd",
            "__ZNK5kaldi10MatrixBaseIdE3RowEi",
            "__ZN5kaldi13OptimizeLbfgsIfE16RecordStepLengthEf",
            "__ZNK5kaldi10CuSpMatrixIdE8CopyToSpEPNS_8SpMatrixIdEE",
            "__ZN5kaldi10VectorBaseIfE7AddVec2EfRKS1_",
            "__ZN5kaldi6MatrixIfEaSERKS1_",
            "__ZNK5kaldi14CuSparseMatrixIdE9CopyToMatIdEEvPNS_12CuMatrixBaseIT_EENS_19MatrixTransposeTypeE",
            "__ZN5kaldi8SpMatrixIfEC2ERKNS_10MatrixBaseIfEENS_10SpCopyTypeE",
            "__ZN5kaldi28LatticeIncrementalDecoderTplIN3fst9VectorFstINS1_6ArcTplINS1_17TropicalWeightTplIfEEEENS1_11VectorStateIS6_NSt3__19allocatorIS6_EEEEEENS_7decoder16BackpointerTokenEE9GetCutoffEPNS_8HashListIiPSE_E4ElemEPmPfPSK_",
            "__ZN5kaldi8TpMatrixIfEaSERKS1_",
            "__ZN3fst6script15FarPrintStringsINS_6ArcTplINS_12LogWeightTplIdEEEEEEvPNS0_19FarPrintStringsArgsE",
            "__ZN5kaldi12CuMatrixBaseIfE8AddTpMatEfRKNS_10CuTpMatrixIfEENS_19MatrixTransposeTypeERKS1_S6_f",
            "__ZN5kaldi20PosteriorToPdfMatrixIdEEvRKNSt3__16vectorINS2_INS1_4pairIifEENS1_9allocatorIS4_EEEENS5_IS7_EEEERKNS_15TransitionModelEPNS_6MatrixIT_EE",
            "__ZNK5kaldi12CuVectorBaseIfEclEi",
            "__ZN5kaldi28LatticeIncrementalDecoderTplIN3fst3FstINS1_6ArcTplINS1_17TropicalWeightTplIfEEEEEENS_7decoder8StdTokenEE22PruneForwardLinksFinalEv",
            "__ZN3fst15CopyToVectorFstINS_9VectorFstINS_6ArcTplINS_17TropicalWeightTplIfEEEENS_11VectorStateIS5_NSt3__19allocatorIS5_EEEEEEEEvPNS_13GrammarFstTplIT_EEPSB_",
            "__ZN3fst13GrammarFstTplINS_9VectorFstINS_6ArcTplINS_17TropicalWeightTplIfEEEENS_11VectorStateIS5_NSt3__19allocatorIS5_EEEEEEE17GetPhoneSymbolForENS_17NonterminalValuesE",
            "__ZN5kaldi20SplitRadixComplexFftIfEC1Ei",
            "__ZN5kaldi8CuMatrixIdE4ReadERNSt3__113basic_istreamIcNS2_11char_traitsIcEEEEb",
            "__ZN5kaldi28LatticeIncrementalDecoderTplIN3fst8ConstFstINS1_6ArcTplINS1_17TropicalWeightTplIfEEEEjEENS_7decoder16BackpointerTokenEE18PossiblyResizeHashEm",
            "__ZN3fst13FstRegistererINS_8ConstFstINS_6ArcTplINS_12LogWeightTplIdEEEEjEEE7ConvertERKNS_3FstIS5_EE",
            "__ZN5kaldi12CuMatrixBaseIfE15ApplyExpLimitedEff",
            "__ZN5kaldi23LatticeFasterDecoderTplIN3fst9VectorFstINS1_6ArcTplINS1_17TropicalWeightTplIfEEEENS1_11VectorStateIS6_NSt3__19allocatorIS6_EEEEEENS_7decoder8StdTokenEE17PruneActiveTokensEf",
            "__ZN5kaldi23LatticeFasterDecoderTplIN3fst13GrammarFstTplINS1_9VectorFstINS1_6ArcTplINS1_17TropicalWeightTplIfEEEENS1_11VectorStateIS7_NSt3__19allocatorIS7_EEEEEEEENS_7decoder16BackpointerTokenEE17ClearActiveTokensEv",
            "__ZN5kaldi34LatticeIncrementalOnlineDecoderTplIN3fst8ConstFstINS1_6ArcTplINS1_17TropicalWeightTplIfEEEEjEEEC1ERKNS_31LatticeIncrementalDecoderConfigEPS7_RKNS_15TransitionModelE",
            "__ZN5kaldi23LatticeFasterDecoderTplIN3fst13GrammarFstTplIKNS1_8ConstFstINS1_6ArcTplINS1_17TropicalWeightTplIfEEEEjEEEENS_7decoder16BackpointerTokenEE15AdvanceDecodingEPNS_18DecodableInterfaceEi",
            "__ZNK5kaldi24OnlineGenericBaseFeatureINS_13FbankComputerEE11IsLastFrameEi",
            "__ZN5kaldi10MatrixBaseIfE3AddEf",
            "__ZN5kaldi8CuVectorIdED1Ev",
            "__ZN5kaldi10MatrixBaseIfE11LapackGesvdEPNS_10VectorBaseIfEEPS1_S5_",
            "__ZN5kaldi10MatrixBaseIdED2Ev",
            "__ZN5kaldi12PackedMatrixIdED1Ev",
            "__ZN5kaldi8SpMatrixIdE4SwapEPS1_",
            "__ZNK5kaldi14CuSparseMatrixIdE9CopyToMatIfEEvPNS_12CuMatrixBaseIT_EENS_19MatrixTransposeTypeE",
            "__ZNK5kaldi14CuSparseMatrixIdE9CsrRowPtrEv",
            "__ZN5kaldi10MatrixBaseIfE10AddSpMatSpEfRKNS_8SpMatrixIfEERKS1_NS_19MatrixTransposeTypeES5_f",
            "__ZN5kaldi17PosteriorToMatrixIfEEvRKNSt3__16vectorINS2_INS1_4pairIifEENS1_9allocatorIS4_EEEENS5_IS7_EEEEiPNS_6MatrixIT_EE",
            "__ZNK5kaldi29LatticeFasterOnlineDecoderTplIN3fst13GrammarFstTplINS1_9VectorFstINS1_6ArcTplINS1_17TropicalWeightTplIfEEEENS1_11VectorStateIS7_NSt3__19allocatorIS7_EEEEEEEEE17TraceBackBestPathENSF_16BestPathIteratorEPNS4_INS1_16LatticeWeightTplIfEEEE",
            "__ZN5kaldi10CuSpMatrixIfEC2ERKNS_8SpMatrixIfEE",
            "__ZN5kaldi9SubMatrixIfEC1EPfiii",
            "__ZNK5kaldi8SpMatrixIdE12LogPosDefDetEv",
            "__ZN5kaldi6VecVecIfEET_RKNS_12CuVectorBaseIS1_EES5_",
            "__ZN5kaldi12SparseMatrixIfEC1Ev",
            "__ZN5kaldi14CuSparseMatrixIdEaSERKNS_12SparseMatrixIdEE",
            "__ZN5kaldi10VectorBaseIfE14CopyFromPackedIdEEvRKNS_12PackedMatrixIT_EE",
            "__ZNK5kaldi29LatticeFasterOnlineDecoderTplIN3fst8ConstFstINS1_6ArcTplINS1_17TropicalWeightTplIfEEEEjEEE15TestGetBestPathEb",
            "__ZN5kaldi12CuMatrixBaseIdE8DiffTanhERKS1_S3_",
            "__ZN5kaldi8SpMatrixIfE7AddMat2EfRKNS_10MatrixBaseIfEENS_19MatrixTransposeTypeEf",
            "__ZN5kaldi10MatrixBaseIfE7AddRowsEfPKPKf",
            "__ZN5kaldi28LatticeIncrementalDecoderTplIN3fst9VectorFstINS1_6ArcTplINS1_17TropicalWeightTplIfEEEENS1_11VectorStateIS6_NSt3__19allocatorIS6_EEEEEENS_7decoder8StdTokenEE9TokenListC2Ev",
            "__ZNK5kaldi10MatrixBaseIfE6IsUnitEf",
            "__ZN5kaldi12CuMatrixBaseIdE10CopyFromTpIfEEvRKNS_10CuTpMatrixIT_EENS_19MatrixTransposeTypeE",
            "__ZN3fst8ConstFstINS_6ArcTplINS_17TropicalWeightTplIfEEEEjE4ReadERNSt3__113basic_istreamIcNS6_11char_traitsIcEEEERKNS_14FstReadOptionsE",
            "__ZNK5kaldi23LatticeFasterDecoderTplIN3fst8ConstFstINS1_6ArcTplINS1_17TropicalWeightTplIfEEEEjEENS_7decoder16BackpointerTokenEE17ComputeFinalCostsEPNSt3__113unordered_mapIPS9_fNSB_4hashISD_EENSB_8equal_toISD_EENSB_9allocatorINSB_4pairIKSD_fEEEEEEPfSP_",
            "__ZN5kaldi8CuMatrixIdEC2IfEERKNS_10MatrixBaseIT_EENS_19MatrixTransposeTypeE",
            "__ZN5kaldi23LatticeFasterDecoderTplIN3fst13GrammarFstTplINS1_9VectorFstINS1_6ArcTplINS1_17TropicalWeightTplIfEEEENS1_11VectorStateIS7_NSt3__19allocatorIS7_EEEEEEEENS_7decoder8StdTokenEED1Ev",
            "__ZN5kaldi24OnlineGenericBaseFeatureINS_13FbankComputerEEC1ERKNS_12FbankOptionsE",
            "__ZN5kaldi14CuSparseMatrixIfE4ReadERNSt3__113basic_istreamIcNS2_11char_traitsIcEEEEb",
            "__ZNK5kaldi13CuBlockMatrixIfE7NumColsEv",
            "__ZN5kaldi29LatticeFasterOnlineDecoderTplIN3fst9VectorFstINS1_6ArcTplINS1_17TropicalWeightTplIfEEEENS1_11VectorStateIS6_NSt3__19allocatorIS6_EEEEEEE16BestPathIteratorC1EPvi",
            "__ZN5kaldi23LatticeFasterDecoderTplIN3fst13GrammarFstTplIKNS1_8ConstFstINS1_6ArcTplINS1_17TropicalWeightTplIfEEEEjEEEENS_7decoder16BackpointerTokenEED1Ev",
            "__ZN3fst11ArcIteratorINS_13GrammarFstTplIKNS_8ConstFstINS_6ArcTplINS_17TropicalWeightTplIfEEEEjEEEEEC2ERKS9_x",
            "__ZN5kaldi20SplitRadixComplexFftIfEC2Ei",
            "__ZN3fst11ArcIteratorINS_13GrammarFstTplINS_9VectorFstINS_6ArcTplINS_17TropicalWeightTplIfEEEENS_11VectorStateIS6_NSt3__19allocatorIS6_EEEEEEEEE13CopyArcToTempEv",
            "__ZN5kaldi12SparseVectorIdEC1EiRKNSt3__16vectorINS2_4pairIidEENS2_9allocatorIS5_EEEE",
            "__ZN5kaldi12PackedMatrixIdE4SwapEPS1_",
            "__ZN5kaldi10CuSpMatrixIfEC1EiNS_16MatrixResizeTypeE",
            "__ZN5kaldi22OnlineSilenceWeighting23ComputeCurrentTracebackIN3fst3FstINS2_6ArcTplINS2_17TropicalWeightTplIfEEEEEEEEvRKNS_34LatticeIncrementalOnlineDecoderTplIT_EEb",
            "__ZN5kaldi33SolveDoubleQuadraticMatrixProblemIdEET_RKNS_10MatrixBaseIS1_EERKNS_8SpMatrixIS1_EES9_S9_S9_RKNS_13SolverOptionsEPS3_",
            "__ZNK5kaldi23LatticeFasterDecoderTplIN3fst8ConstFstINS1_6ArcTplINS1_17TropicalWeightTplIfEEEEjEENS_7decoder8StdTokenEE16NumFramesDecodedEv",
            "__ZNK5kaldi8SpMatrixIdE8IsPosDefEv",
            "__ZN5kaldi23LatticeFasterDecoderTplIN3fst9VectorFstINS1_6ArcTplINS1_17TropicalWeightTplIfEEEENS1_11VectorStateIS6_NSt3__19allocatorIS6_EEEEEENS_7decoder16BackpointerTokenEED2Ev",
            "__ZNK5kaldi29LatticeFasterOnlineDecoderTplIN3fst8ConstFstINS1_6ArcTplINS1_17TropicalWeightTplIfEEEEjEEE11GetBestPathEPNS1_9VectorFstINS3_INS1_16LatticeWeightTplIfEEEENS1_11VectorStateISC_NSt3__19allocatorISC_EEEEEEb",
            "__ZNK5kaldi29LatticeFasterOnlineDecoderTplIN3fst13GrammarFstTplINS1_9VectorFstINS1_6ArcTplINS1_17TropicalWeightTplIfEEEENS1_11VectorStateIS7_NSt3__19allocatorIS7_EEEEEEEEE16BestPathIterator4DoneEv",
            "__ZN5kaldi12CuMatrixBaseIfE11ApplyPowAbsEfb",
            "__ZN5kaldi13CuBlockMatrixIfEC2ERKNSt3__16vectorINS_8CuMatrixIfEENS2_9allocatorIS5_EEEE",
            "__ZN5kaldi8CuVectorIfEC1ERKNS_12CuVectorBaseIfEE",
            "__ZN5kaldi12CuMatrixBaseIfE10AddMatSmatEfRKS1_RKNS_14CuSparseMatrixIfEENS_19MatrixTransposeTypeEf",
            "__ZN5kaldi8SpMatrixIdE10AddDiagVecIdEEvdRKNS_10VectorBaseIT_EE",
            "__ZNK5kaldi23LatticeFasterDecoderTplIN3fst8ConstFstINS1_6ArcTplINS1_17TropicalWeightTplIfEEEEjEENS_7decoder16BackpointerTokenEE10GetOptionsEv",
            "__ZN5kaldi29LatticeFasterOnlineDecoderTplIN3fst3FstINS1_6ArcTplINS1_17TropicalWeightTplIfEEEEEEEC2ERKNS_26LatticeFasterDecoderConfigEPS7_",
            "__ZN5kaldi34LatticeIncrementalOnlineDecoderTplIN3fst8ConstFstINS1_6ArcTplINS1_17TropicalWeightTplIfEEEEjEEEC1ERKS7_RKNS_15TransitionModelERKNS_31LatticeIncrementalDecoderConfigE",
            "__ZNK5kaldi10CuSpMatrixIfE3MatEv",
            "__ZN5kaldi10MatrixBaseIdE15CopyRowsFromVecIfEEvRKNS_10VectorBaseIT_EE",
            "__ZN5kaldi12CuVectorBaseIdE14InvertElementsEv",
            "__ZN5kaldi12SparseVectorIdEC1Ev",
            "__ZN5kaldi10MatrixBaseIdE8AddSpMatEdRKNS_8SpMatrixIdEERKS1_NS_19MatrixTransposeTypeEd",
            "__ZN5kaldi14CuPackedMatrixIdE8SetRandnEv",
            "__ZN5kaldi12CuMatrixBaseIfE7AddSmatEfRKNS_14CuSparseMatrixIfEENS_19MatrixTransposeTypeE",
            "__ZN5kaldi10VectorBaseIfE9AddMatVecEfRKNS_10MatrixBaseIfEENS_19MatrixTransposeTypeERKS1_f",
            "__ZNK5kaldi12CuMatrixBaseIfE11SizeInBytesEv",
            "__ZN5kaldi28LatticeIncrementalDecoderTplIN3fst13GrammarFstTplIKNS1_8ConstFstINS1_6ArcTplINS1_17TropicalWeightTplIfEEEEjEEEENS_7decoder16BackpointerTokenEEC1ERKSA_RKNS_15TransitionModelERKNS_31LatticeIncrementalDecoderConfigE",
            "__ZNK5kaldi28LatticeIncrementalDecoderTplIN3fst8ConstFstINS1_6ArcTplINS1_17TropicalWeightTplIfEEEEjEENS_7decoder8StdTokenEE10GetOptionsEv",
            "__ZN5kaldi34LatticeIncrementalOnlineDecoderTplIN3fst8ConstFstINS1_6ArcTplINS1_17TropicalWeightTplIfEEEEjEEE16BestPathIteratorC1EPvi",
            "__ZNK5kaldi24OnlineGenericBaseFeatureINS_11PlpComputerEE3DimEv",
            "__ZN5kaldi12SparseMatrixIfEC2ERKNSt3__16vectorIiNS2_9allocatorIiEEEEiNS_19MatrixTransposeTypeE",
            "__ZN5kaldi28LatticeIncrementalDecoderTplIN3fst8ConstFstINS1_6ArcTplINS1_17TropicalWeightTplIfEEEEjEENS_7decoder8StdTokenEE28UpdateLatticeDeterminizationEv",
            "__ZN5kaldi28LatticeIncrementalDecoderTplIN3fst13GrammarFstTplIKNS1_8ConstFstINS1_6ArcTplINS1_17TropicalWeightTplIfEEEEjEEEENS_7decoder8StdTokenEE17ClearActiveTokensEv",
            "__ZN5kaldi12CuVectorBaseIdE15ApplyLogSoftMaxEv",
            "__ZN5kaldi8CuMatrixIfED1Ev",
            "__ZN5kaldi28LatticeIncrementalDecoderTplIN3fst9VectorFstINS1_6ArcTplINS1_17TropicalWeightTplIfEEEENS1_11VectorStateIS6_NSt3__19allocatorIS6_EEEEEENS_7decoder16BackpointerTokenEEC2ERKNS_31LatticeIncrementalDecoderConfigEPSC_RKNS_15TransitionModelE",
            "__ZN5kaldi6MatrixIdE4InitEiiNS_16MatrixStrideTypeE",
            "__ZN5kaldi10MatrixBaseIdE15CopyColsFromVecERKNS_10VectorBaseIdEE",
            "__ZN5kaldi28LatticeIncrementalDecoderTplIN3fst8ConstFstINS1_6ArcTplINS1_17TropicalWeightTplIfEEEEjEENS_7decoder8StdTokenEEC1ERKNS_31LatticeIncrementalDecoderConfigEPS7_RKNS_15TransitionModelE",
            "__ZN3fst10CompactFstINS_6ArcTplINS_12LogWeightTplIfEEEENS_27UnweightedAcceptorCompactorIS4_EEjNS_19DefaultCompactStoreINSt3__14pairIiiEEjEENS_17DefaultCacheStoreIS4_EEE4ReadERNS8_13basic_istreamIcNS8_11char_traitsIcEEEERKNS_14FstReadOptionsE",
            "__ZNK5kaldi10MatrixBaseIfE3SumEv",
            "__ZNK5kaldi14CuSparseMatrixIfE10CopyToSmatIfEEvPNS_12SparseMatrixIT_EE",
            "__ZN5kaldi13CuBlockMatrixIdEC2ERKS1_",
            "__ZN5kaldi13OptimizeLbfgsIfE16ComputeHifNeededERKNS_10VectorBaseIfEE",
            "__ZNK5kaldi8SpMatrixIfE16SymPosSemiDefEigEPNS_10VectorBaseIfEEPNS_10MatrixBaseIfEEf",
            "__ZN5kaldi23LatticeFasterDecoderTplIN3fst13GrammarFstTplINS1_9VectorFstINS1_6ArcTplINS1_17TropicalWeightTplIfEEEENS1_11VectorStateIS7_NSt3__19allocatorIS7_EEEEEEEENS_7decoder8StdTokenEE17PruneActiveTokensEf",
            "__ZNK5kaldi8CuMatrixIfE3MatEv",
            "__ZN5kaldi14CuPackedMatrixIfEC2ERKS1_",
            "__ZN3fst13GrammarFstTplIKNS_8ConstFstINS_6ArcTplINS_17TropicalWeightTplIfEEEEjEEEC1EiNSt3__110shared_ptrIS7_EERKNS9_6vectorINS9_4pairIiSB_EENS9_9allocatorISE_EEEE",
            "__ZN5kaldi12CuMatrixBaseIdE15ApplyExpLimitedEdd",
            "__ZN5kaldi12SparseMatrixIdEC1ERKNSt3__16vectorIiNS2_9allocatorIiEEEERKNS_10VectorBaseIdEEiNS_19MatrixTransposeTypeE",
            "__ZNK5kaldi34LatticeIncrementalOnlineDecoderTplIN3fst13GrammarFstTplINS1_9VectorFstINS1_6ArcTplINS1_17TropicalWeightTplIfEEEENS1_11VectorStateIS7_NSt3__19allocatorIS7_EEEEEEEEE11GetBestPathEPNS3_INS4_INS1_16LatticeWeightTplIfEEEENS8_ISI_NSA_ISI_EEEEEEb",
            "__ZN5kaldi12CuMatrixBaseIfE14ParametricReluERKS1_RKNS_12CuVectorBaseIfEES7_",
            "__ZN5kaldi10MatrixBaseIfE11ApplyPowAbsEfb",
            "__ZN5kaldi12PackedMatrixIdE7SetDiagEd",
            "__ZN5kaldi8TpMatrixIfEC1EiNS_16MatrixResizeTypeE",
            "__ZN5kaldi10VectorBaseIdE11AddDiagMat2EdRKNS_10MatrixBaseIdEENS_19MatrixTransposeTypeEd",
            "__ZN5kaldi8SpMatrixIfE6InvertEPfS2_b",
            "__ZN5kaldi8TpMatrixIfE12InvertDoubleEv",
            "__ZN5kaldi12CuVectorBaseIdE4NormEd",
            "__ZN5kaldi12CuMatrixBaseIdE12AddRowRangesERKS1_RKNS_11CuArrayBaseI9Int32PairEE",
            "__ZN5kaldi10MatrixBaseIfE3ExpERKS1_",
            "__ZNK5kaldi12CuMatrixBaseIdE8RowRangeEii",
            "__ZNK5kaldi12CuMatrixBaseIdE6LookupERKNSt3__16vectorI9Int32PairNS2_9allocatorIS4_EEEEPd",
            "__ZNK5kaldi24OnlineGenericBaseFeatureINS_12MfccComputerEE14NumFramesReadyEv",
            "__ZN5kaldi29LatticeFasterOnlineDecoderTplIN3fst8ConstFstINS1_6ArcTplINS1_17TropicalWeightTplIfEEEEjEEE16BestPathIteratorC1EPvi",
            "__ZN5kaldi23EigenvalueDecompositionIdE4GetVEPNS_10MatrixBaseIdEE",
            "__ZN5kaldi23EigenvalueDecompositionIdE1VEii",
            "__ZN5kaldi12PackedMatrixIfE4InitEi",
            "__ZN5kaldi10VectorBaseIdE14CopyFromPackedIfEEvRKNS_12PackedMatrixIT_EE",
            "__ZNK5kaldi12CuMatrixBaseIdE7NumColsEv",
            "__ZN5kaldi28LatticeIncrementalDecoderTplIN3fst3FstINS1_6ArcTplINS1_17TropicalWeightTplIfEEEEEENS_7decoder16BackpointerTokenEED1Ev",
            "__ZN5kaldi8CuVectorIfE4SwapEPNS_6VectorIfEE",
            "__ZN5kaldi8SpMatrixIdEC1Ev",
            "__ZN5kaldi28LatticeIncrementalDecoderTplIN3fst13GrammarFstTplINS1_9VectorFstINS1_6ArcTplINS1_17TropicalWeightTplIfEEEENS1_11VectorStateIS7_NSt3__19allocatorIS7_EEEEEEEENS_7decoder16BackpointerTokenEE17PruneForwardLinksEiPbSI_f",
            "__ZN5kaldi6MatrixIdE4SwapEPS1_",
            "__ZN5kaldi8CuMatrixIdEC1ERKNS_12CuMatrixBaseIdEENS_19MatrixTransposeTypeE",
            "__ZN5kaldi23LatticeFasterDecoderTplIN3fst13GrammarFstTplINS1_9VectorFstINS1_6ArcTplINS1_17TropicalWeightTplIfEEEENS1_11VectorStateIS7_NSt3__19allocatorIS7_EEEEEEEENS_7decoder16BackpointerTokenEE18PossiblyResizeHashEm",
            "__ZNK5kaldi10MatrixBaseIfE11IsSymmetricEf",
            "__ZN5kaldi12CuVectorBaseIdE15CopyRowsFromMatERKNS_12CuMatrixBaseIdEE",
            "__ZN5kaldi10VectorBaseIfE18CopyDiagFromPackedERKNS_12PackedMatrixIfEE",
            "__ZN5kaldi14CuSparseMatrixIfEC2ERKNS_12SparseMatrixIfEE",
            "__ZNK5kaldi23LatticeFasterDecoderTplIN3fst13GrammarFstTplINS1_9VectorFstINS1_6ArcTplINS1_17TropicalWeightTplIfEEEENS1_11VectorStateIS7_NSt3__19allocatorIS7_EEEEEEEENS_7decoder8StdTokenEE13GetRawLatticeEPNS3_INS4_INS1_16LatticeWeightTplIfEEEENS8_ISK_NSA_ISK_EEEEEEb",
            "__ZN5kaldi29LatticeFasterOnlineDecoderTplIN3fst3FstINS1_6ArcTplINS1_17TropicalWeightTplIfEEEEEEE16BestPathIteratorC1EPvi",
            "__ZN5kaldi24OnlineGenericBaseFeatureINS_12MfccComputerEE14AcceptWaveformEfRKNS_10VectorBaseIfEE",
            "__ZN5kaldi13CuBlockMatrixIdEC2Ev",
            "__ZN5kaldi28LatticeIncrementalDecoderTplIN3fst8ConstFstINS1_6ArcTplINS1_17TropicalWeightTplIfEEEEjEENS_7decoder8StdTokenEEC2ERKS7_RKNS_15TransitionModelERKNS_31LatticeIncrementalDecoderConfigE",
            "__ZN5kaldi23LatticeFasterDecoderTplIN3fst13GrammarFstTplINS1_9VectorFstINS1_6ArcTplINS1_17TropicalWeightTplIfEEEENS1_11VectorStateIS7_NSt3__19allocatorIS7_EEEEEEEENS_7decoder8StdTokenEE15AdvanceDecodingEPNS_18DecodableInterfaceEi",
            "__ZN3fst13GrammarFstTplIKNS_8ConstFstINS_6ArcTplINS_17TropicalWeightTplIfEEEEjEEED1Ev",
            "__ZN5kaldi8CuMatrixIfEC1EiiNS_16MatrixResizeTypeENS_16MatrixStrideTypeE",
            "__ZN5kaldi6VecVecIfEET_RKNS_10VectorBaseIS1_EES5_",
            "__ZN5kaldi12CuVectorBaseIfE8ApplyPowEf",
            "__ZN5kaldi8SpMatrixIfE10AddMat2VecEfRKNS_10MatrixBaseIfEENS_19MatrixTransposeTypeERKNS_10VectorBaseIfEEf",
            "__ZN5kaldi10MatrixBaseIdE17OrthogonalizeRowsEv",
            "__ZN5kaldi8TpMatrixIfE10CopyFromTpERKS1_",
            "__ZN5kaldi23LatticeFasterDecoderTplIN3fst13GrammarFstTplIKNS1_8ConstFstINS1_6ArcTplINS1_17TropicalWeightTplIfEEEEjEEEENS_7decoder16BackpointerTokenEE11DeleteElemsEPNS_8HashListIxPSC_E4ElemE",
            "__ZN5kaldi12CuMatrixBaseIdE11CopyFromMatIfEEvRKNS_10MatrixBaseIT_EENS_19MatrixTransposeTypeE",
            "__ZN5kaldi10MatrixBaseIdE10CopyFromTpIdEEvRKNS_8TpMatrixIT_EENS_19MatrixTransposeTypeE",
            "__ZN5kaldi23LatticeFasterDecoderTplIN3fst3FstINS1_6ArcTplINS1_17TropicalWeightTplIfEEEEEENS_7decoder16BackpointerTokenEED2Ev",
            "__ZN5kaldi28LatticeIncrementalDecoderTplIN3fst13GrammarFstTplINS1_9VectorFstINS1_6ArcTplINS1_17TropicalWeightTplIfEEEENS1_11VectorStateIS7_NSt3__19allocatorIS7_EEEEEEEENS_7decoder8StdTokenEE15ProcessEmittingEPNS_18DecodableInterfaceE",
            "__ZN5kaldi10MatrixBaseIdE8AddMatSpEdRKS1_NS_19MatrixTransposeTypeERKNS_8SpMatrixIdEEd",
            "__ZN5kaldi23LatticeFasterDecoderTplIN3fst3FstINS1_6ArcTplINS1_17TropicalWeightTplIfEEEEEENS_7decoder16BackpointerTokenEE22PruneForwardLinksFinalEv",
            "__ZN5kaldi10VectorBaseIdE11MulElementsERKS1_",
            "__ZN5kaldi8SpMatrixIdE6ResizeEiNS_16MatrixResizeTypeE",
            "__ZN5kaldi12CuVectorBaseIfE12CopyElementsERKNS_12CuMatrixBaseIfEENS_19MatrixTransposeTypeERKNS_11CuArrayBaseIiEE",
            "__ZN5kaldi24AddOuterProductPlusMinusIfEEvT_RKNS_10VectorBaseIS1_EES5_PNS_10MatrixBaseIS1_EES8_",
            "__ZN5kaldi12CuMatrixBaseIdE10CopyFromSpERKNS_10CuSpMatrixIdEE",
            "__ZNK5kaldi12CuMatrixBaseIfE6IsUnitEf",
            "__ZN5kaldi23LatticeFasterDecoderTplIN3fst3FstINS1_6ArcTplINS1_17TropicalWeightTplIfEEEEEENS_7decoder8StdTokenEE17PruneForwardLinksEiPbSB_f",
            "__ZNK5kaldi14CuSparseMatrixIfE9CsrColIdxEv",
            "__ZNK5kaldi10MatrixBaseIfE9AddToRowsEfPKPf",
            "__ZN5kaldi8SpMatrixIfE10AddSmat2SpEfRKNS_10MatrixBaseIfEENS_19MatrixTransposeTypeERKS1_f",
            "__ZN5kaldi2cu27CpuBackpropLstmNonlinearityIdEEvRKNS_10MatrixBaseIT_EES6_S6_RKNS2_IdEERKNS_10VectorBaseIS3_EEdPS4_SE_PS7_SF_SE_",
            "__ZNK5kaldi14CuSparseMatrixIdE10CopyToSmatIdEEvPNS_12SparseMatrixIT_EE",
            "__ZN5kaldi23LatticeFasterDecoderTplIN3fst3FstINS1_6ArcTplINS1_17TropicalWeightTplIfEEEEEENS_7decoder8StdTokenEE17PruneActiveTokensEf",
            "__ZN5kaldi12SparseVectorIfE6ResizeEiNS_16MatrixResizeTypeE",
            "__ZN5kaldi14CuSparseMatrixIdEC2ERKNS_7CuArrayIiEERKNS_12CuVectorBaseIdEEiNS_19MatrixTransposeTypeE",
            "__ZN5kaldi12CuMatrixBaseIfE16CopyUpperToLowerEv",
            "__ZN5kaldi8CuMatrixIdE16CompObjfAndDerivERKNSt3__16vectorI13MatrixElementIdENS2_9allocatorIS5_EEEERKS1_PdSD_",
            "__ZN5kaldi13CuBlockMatrixIfED2Ev",
            "__ZN5kaldi12PackedMatrixIfE4SwapEPNS_6MatrixIfEE",
            "__ZN5kaldi10CuSpMatrixIfE11CopyFromMatERKNS_12CuMatrixBaseIfEENS_10SpCopyTypeE",
            "__ZN5kaldi28LatticeIncrementalDecoderTplIN3fst13GrammarFstTplINS1_9VectorFstINS1_6ArcTplINS1_17TropicalWeightTplIfEEEENS1_11VectorStateIS7_NSt3__19allocatorIS7_EEEEEEEENS_7decoder16BackpointerTokenEE28UpdateLatticeDeterminizationEv",
            "__ZNK5kaldi10VectorBaseIfE5RangeEii",
            "__ZN5kaldi8TpMatrixIdEaSERKS1_",
            "__ZNK5kaldi12CuMatrixBaseIdE10CopyToRowsERKNS_11CuArrayBaseIPdEE",
            "__ZN5kaldi14CuSparseMatrixIfE9CsrRowPtrEv",
            "__ZN5kaldi28LatticeIncrementalDecoderTplIN3fst13GrammarFstTplIKNS1_8ConstFstINS1_6ArcTplINS1_17TropicalWeightTplIfEEEEjEEEENS_7decoder16BackpointerTokenEE22PruneForwardLinksFinalEv",
            "__ZN5kaldi23LatticeFasterDecoderTplIN3fst8ConstFstINS1_6ArcTplINS1_17TropicalWeightTplIfEEEEjEENS_7decoder16BackpointerTokenEE18PossiblyResizeHashEm",
            "__ZNK5kaldi14CuSparseMatrixIdE7NumColsEv",
            "__ZNK5kaldi23LatticeFasterDecoderTplIN3fst8ConstFstINS1_6ArcTplINS1_17TropicalWeightTplIfEEEEjEENS_7decoder16BackpointerTokenEE13GetRawLatticeEPNS1_9VectorFstINS3_INS1_16LatticeWeightTplIfEEEENS1_11VectorStateISE_NSt3__19allocatorISE_EEEEEEb",
            "__ZNK5kaldi17SplitRadixRealFftIfE7ComputeEPfbPNSt3__16vectorIfNS3_9allocatorIfEEEE",
            "__ZN5kaldi8CuVectorIfEC2ERKNS_12CuVectorBaseIfEE",
            "__ZN5kaldi29LatticeFasterOnlineDecoderTplIN3fst13GrammarFstTplIKNS1_8ConstFstINS1_6ArcTplINS1_17TropicalWeightTplIfEEEEjEEEEE16BestPathIteratorC1EPvi",
            "__ZN5kaldi16EndpointDetectedINS_34LatticeIncrementalOnlineDecoderTplIN3fst13GrammarFstTplIKNS2_8ConstFstINS2_6ArcTplINS2_17TropicalWeightTplIfEEEEjEEEEEEEEbRKNS_20OnlineEndpointConfigERKNS_15TransitionModelEfRKT_",
            "__ZN5kaldi34LatticeIncrementalOnlineDecoderTplIN3fst3FstINS1_6ArcTplINS1_17TropicalWeightTplIfEEEEEEEC1ERKS7_RKNS_15TransitionModelERKNS_31LatticeIncrementalDecoderConfigE",
            "__ZN5kaldi28LatticeIncrementalDecoderTplIN3fst13GrammarFstTplINS1_9VectorFstINS1_6ArcTplINS1_17TropicalWeightTplIfEEEENS1_11VectorStateIS7_NSt3__19allocatorIS7_EEEEEEEENS_7decoder8StdTokenEE12InitDecodingEv",
            "__ZNK5kaldi10MatrixBaseIdE13FrobeniusNormEv",
            "__ZN5kaldi10MatrixBaseIdE12ApplySoftMaxEv",
            "__ZN5kaldi28LatticeIncrementalDecoderTplIN3fst8ConstFstINS1_6ArcTplINS1_17TropicalWeightTplIfEEEEjEENS_7decoder16BackpointerTokenEE11DeleteElemsEPNS_8HashListIiPS9_E4ElemE",
            "__ZNK5kaldi12CuMatrixBaseIfE3MaxEv",
            "__ZN3fst13GrammarFstTplIKNS_8ConstFstINS_6ArcTplINS_17TropicalWeightTplIfEEEEjEEE18GetChildInstanceIdEiii",
            "__ZN3fst30DeterminizeLatticeDeletePhonesINS_16LatticeWeightTplIfEEEEvNS_6ArcTplIT_E5LabelEPNS_10MutableFstIS5_EE",
            "__ZNK5kaldi28LatticeIncrementalDecoderTplIN3fst13GrammarFstTplINS1_9VectorFstINS1_6ArcTplINS1_17TropicalWeightTplIfEEEENS1_11VectorStateIS7_NSt3__19allocatorIS7_EEEEEEEENS_7decoder8StdTokenEE16NumFramesDecodedEv",
            "__ZN3fst11ArcIteratorINS_13GrammarFstTplINS_9VectorFstINS_6ArcTplINS_17TropicalWeightTplIfEEEENS_11VectorStateIS6_NSt3__19allocatorIS6_EEEEEEEEEC1ERKSD_x",
            "__ZN5kaldi10MatrixBaseIfE10AddMatSmatEfRKS1_RKNS_12SparseMatrixIfEENS_19MatrixTransposeTypeEf",
            "__ZN3fst6script13FarIsomorphicINS_6ArcTplINS_12LogWeightTplIdEEEEEEvPNS0_4args15WithReturnValueIbNS6_7PackageIRKNSt3__112basic_stringIcNS9_11char_traitsIcEENS9_9allocatorIcEEEESH_fSH_SH_NS6_9none_typeESI_SI_SI_EEEE",
            "__ZNK5kaldi14CuSparseMatrixIfE7NumRowsEv",
            "__ZNK5kaldi29LatticeFasterOnlineDecoderTplIN3fst9VectorFstINS1_6ArcTplINS1_17TropicalWeightTplIfEEEENS1_11VectorStateIS6_NSt3__19allocatorIS6_EEEEEEE11BestPathEndEbPf",
            "__ZN5kaldi14CuSparseMatrixIfEC1ERKNS_7CuArrayIiEEiNS_19MatrixTransposeTypeE",
            "__ZN5kaldi8CuMatrixIfE9TransposeEv",
            "__ZN5kaldi27SolveQuadraticMatrixProblemIdEET_RKNS_8SpMatrixIS1_EERKNS_10MatrixBaseIS1_EES5_RKNS_13SolverOptionsEPS7_",
            "__ZNK5kaldi8SpMatrixIfE6LogDetEPf",
            "__ZN5kaldi23EigenvalueDecompositionIfE1HEii",
            "__ZN5kaldi23LatticeFasterDecoderTplIN3fst13GrammarFstTplINS1_9VectorFstINS1_6ArcTplINS1_17TropicalWeightTplIfEEEENS1_11VectorStateIS7_NSt3__19allocatorIS7_EEEEEEEENS_7decoder8StdTokenEEC1ERKNS_26LatticeFasterDecoderConfigEPSE_",
            "__ZN5kaldi8TpMatrixIdE11DeterminantEv",
            "__ZNK5kaldi12CuMatrixBaseIfE5WriteERNSt3__113basic_ostreamIcNS2_11char_traitsIcEEEEb",
            "__ZN5kaldi10MatrixBaseIdE11ApplyPowAbsEdb",
            "__ZN5kaldi8SpMatrixIfE9AddVec2SpEfRKNS_10VectorBaseIfEERKS1_f",
